ARM GAS  C:\Users\lenovo\AppData\Local\Temp\ccMsl09b.s 			page 1


   1              		.syntax unified
   2              		.cpu cortex-m3
   3              		.fpu softvfp
   4              		.eabi_attribute 20, 1
   5              		.eabi_attribute 21, 1
   6              		.eabi_attribute 23, 3
   7              		.eabi_attribute 24, 1
   8              		.eabi_attribute 25, 1
   9              		.eabi_attribute 26, 1
  10              		.eabi_attribute 30, 1
  11              		.eabi_attribute 34, 1
  12              		.eabi_attribute 18, 4
  13              		.thumb
  14              		.file	"cyfitter_cfg.c"
  15              		.text
  16              	.Ltext0:
  17              		.cfi_sections	.debug_frame
  18              		.section	.text.CyClockStartupError,"ax",%progbits
  19              		.align	2
  20              		.thumb
  21              		.thumb_func
  22              		.type	CyClockStartupError, %function
  23              	CyClockStartupError:
  24              	.LFB3:
  25              		.file 1 ".\\Generated_Source\\PSoC5\\cyfitter_cfg.c"
   1:.\Generated_Source\PSoC5/cyfitter_cfg.c **** /*******************************************************************************
   2:.\Generated_Source\PSoC5/cyfitter_cfg.c **** * File Name: cyfitter_cfg.c
   3:.\Generated_Source\PSoC5/cyfitter_cfg.c **** * 
   4:.\Generated_Source\PSoC5/cyfitter_cfg.c **** * PSoC Creator  3.3 CP3
   5:.\Generated_Source\PSoC5/cyfitter_cfg.c **** *
   6:.\Generated_Source\PSoC5/cyfitter_cfg.c **** * Description:
   7:.\Generated_Source\PSoC5/cyfitter_cfg.c **** * This file contains device initialization code.
   8:.\Generated_Source\PSoC5/cyfitter_cfg.c **** * Except for the user defined sections in CyClockStartupError(), this file should not be modified.
   9:.\Generated_Source\PSoC5/cyfitter_cfg.c **** * This file is automatically generated by PSoC Creator.
  10:.\Generated_Source\PSoC5/cyfitter_cfg.c **** *
  11:.\Generated_Source\PSoC5/cyfitter_cfg.c **** ********************************************************************************
  12:.\Generated_Source\PSoC5/cyfitter_cfg.c **** * Copyright (c) 2007-2016 Cypress Semiconductor.  All rights reserved.
  13:.\Generated_Source\PSoC5/cyfitter_cfg.c **** * You may use this file only in accordance with the license, terms, conditions, 
  14:.\Generated_Source\PSoC5/cyfitter_cfg.c **** * disclaimers, and limitations in the end user license agreement accompanying 
  15:.\Generated_Source\PSoC5/cyfitter_cfg.c **** * the software package with which this file was provided.
  16:.\Generated_Source\PSoC5/cyfitter_cfg.c **** ********************************************************************************/
  17:.\Generated_Source\PSoC5/cyfitter_cfg.c **** 
  18:.\Generated_Source\PSoC5/cyfitter_cfg.c **** #include <string.h>
  19:.\Generated_Source\PSoC5/cyfitter_cfg.c **** #include "cytypes.h"
  20:.\Generated_Source\PSoC5/cyfitter_cfg.c **** #include "cydevice_trm.h"
  21:.\Generated_Source\PSoC5/cyfitter_cfg.c **** #include "cyfitter.h"
  22:.\Generated_Source\PSoC5/cyfitter_cfg.c **** #include "CyLib.h"
  23:.\Generated_Source\PSoC5/cyfitter_cfg.c **** #include "cyfitter_cfg.h"
  24:.\Generated_Source\PSoC5/cyfitter_cfg.c **** 
  25:.\Generated_Source\PSoC5/cyfitter_cfg.c **** #define CY_NEED_CYCLOCKSTARTUPERROR 1
  26:.\Generated_Source\PSoC5/cyfitter_cfg.c **** 
  27:.\Generated_Source\PSoC5/cyfitter_cfg.c **** 
  28:.\Generated_Source\PSoC5/cyfitter_cfg.c **** #if defined(__GNUC__) || defined(__ARMCC_VERSION)
  29:.\Generated_Source\PSoC5/cyfitter_cfg.c ****     #define CYPACKED 
  30:.\Generated_Source\PSoC5/cyfitter_cfg.c ****     #define CYPACKED_ATTR __attribute__ ((packed))
  31:.\Generated_Source\PSoC5/cyfitter_cfg.c ****     #define CYALIGNED __attribute__ ((aligned))
  32:.\Generated_Source\PSoC5/cyfitter_cfg.c ****     #define CY_CFG_UNUSED __attribute__ ((unused))
ARM GAS  C:\Users\lenovo\AppData\Local\Temp\ccMsl09b.s 			page 2


  33:.\Generated_Source\PSoC5/cyfitter_cfg.c ****     #ifndef CY_CFG_SECTION
  34:.\Generated_Source\PSoC5/cyfitter_cfg.c ****         #define CY_CFG_SECTION __attribute__ ((section(".psocinit")))
  35:.\Generated_Source\PSoC5/cyfitter_cfg.c ****     #endif
  36:.\Generated_Source\PSoC5/cyfitter_cfg.c ****     
  37:.\Generated_Source\PSoC5/cyfitter_cfg.c ****     #if defined(__ARMCC_VERSION)
  38:.\Generated_Source\PSoC5/cyfitter_cfg.c ****         #define CY_CFG_MEMORY_BARRIER() __memory_changed()
  39:.\Generated_Source\PSoC5/cyfitter_cfg.c ****     #else
  40:.\Generated_Source\PSoC5/cyfitter_cfg.c ****         #define CY_CFG_MEMORY_BARRIER() __sync_synchronize()
  41:.\Generated_Source\PSoC5/cyfitter_cfg.c ****     #endif
  42:.\Generated_Source\PSoC5/cyfitter_cfg.c ****     
  43:.\Generated_Source\PSoC5/cyfitter_cfg.c **** #elif defined(__ICCARM__)
  44:.\Generated_Source\PSoC5/cyfitter_cfg.c ****     #include <intrinsics.h>
  45:.\Generated_Source\PSoC5/cyfitter_cfg.c **** 
  46:.\Generated_Source\PSoC5/cyfitter_cfg.c ****     #define CYPACKED __packed
  47:.\Generated_Source\PSoC5/cyfitter_cfg.c ****     #define CYPACKED_ATTR 
  48:.\Generated_Source\PSoC5/cyfitter_cfg.c ****     #define CYALIGNED _Pragma("data_alignment=4")
  49:.\Generated_Source\PSoC5/cyfitter_cfg.c ****     #define CY_CFG_UNUSED _Pragma("diag_suppress=Pe177")
  50:.\Generated_Source\PSoC5/cyfitter_cfg.c ****     #define CY_CFG_SECTION _Pragma("location=\".psocinit\"")
  51:.\Generated_Source\PSoC5/cyfitter_cfg.c ****     
  52:.\Generated_Source\PSoC5/cyfitter_cfg.c ****     #define CY_CFG_MEMORY_BARRIER() __DMB()
  53:.\Generated_Source\PSoC5/cyfitter_cfg.c ****     
  54:.\Generated_Source\PSoC5/cyfitter_cfg.c **** #else
  55:.\Generated_Source\PSoC5/cyfitter_cfg.c ****     #error Unsupported toolchain
  56:.\Generated_Source\PSoC5/cyfitter_cfg.c **** #endif
  57:.\Generated_Source\PSoC5/cyfitter_cfg.c **** 
  58:.\Generated_Source\PSoC5/cyfitter_cfg.c **** 
  59:.\Generated_Source\PSoC5/cyfitter_cfg.c **** CY_CFG_UNUSED
  60:.\Generated_Source\PSoC5/cyfitter_cfg.c **** static void CYMEMZERO(void *s, size_t n);
  61:.\Generated_Source\PSoC5/cyfitter_cfg.c **** CY_CFG_UNUSED
  62:.\Generated_Source\PSoC5/cyfitter_cfg.c **** static void CYMEMZERO(void *s, size_t n)
  63:.\Generated_Source\PSoC5/cyfitter_cfg.c **** {
  64:.\Generated_Source\PSoC5/cyfitter_cfg.c **** 	(void)memset(s, 0, n);
  65:.\Generated_Source\PSoC5/cyfitter_cfg.c **** }
  66:.\Generated_Source\PSoC5/cyfitter_cfg.c **** CY_CFG_UNUSED
  67:.\Generated_Source\PSoC5/cyfitter_cfg.c **** static void CYCONFIGCPY(void *dest, const void *src, size_t n);
  68:.\Generated_Source\PSoC5/cyfitter_cfg.c **** CY_CFG_UNUSED
  69:.\Generated_Source\PSoC5/cyfitter_cfg.c **** static void CYCONFIGCPY(void *dest, const void *src, size_t n)
  70:.\Generated_Source\PSoC5/cyfitter_cfg.c **** {
  71:.\Generated_Source\PSoC5/cyfitter_cfg.c **** 	(void)memcpy(dest, src, n);
  72:.\Generated_Source\PSoC5/cyfitter_cfg.c **** }
  73:.\Generated_Source\PSoC5/cyfitter_cfg.c **** CY_CFG_UNUSED
  74:.\Generated_Source\PSoC5/cyfitter_cfg.c **** static void CYCONFIGCPYCODE(void *dest, const void *src, size_t n);
  75:.\Generated_Source\PSoC5/cyfitter_cfg.c **** CY_CFG_UNUSED
  76:.\Generated_Source\PSoC5/cyfitter_cfg.c **** static void CYCONFIGCPYCODE(void *dest, const void *src, size_t n)
  77:.\Generated_Source\PSoC5/cyfitter_cfg.c **** {
  78:.\Generated_Source\PSoC5/cyfitter_cfg.c **** 	(void)memcpy(dest, src, n);
  79:.\Generated_Source\PSoC5/cyfitter_cfg.c **** }
  80:.\Generated_Source\PSoC5/cyfitter_cfg.c **** 
  81:.\Generated_Source\PSoC5/cyfitter_cfg.c **** 
  82:.\Generated_Source\PSoC5/cyfitter_cfg.c **** 
  83:.\Generated_Source\PSoC5/cyfitter_cfg.c **** /* Clock startup error codes                                                   */
  84:.\Generated_Source\PSoC5/cyfitter_cfg.c **** #define CYCLOCKSTART_NO_ERROR    0u
  85:.\Generated_Source\PSoC5/cyfitter_cfg.c **** #define CYCLOCKSTART_XTAL_ERROR  1u
  86:.\Generated_Source\PSoC5/cyfitter_cfg.c **** #define CYCLOCKSTART_32KHZ_ERROR 2u
  87:.\Generated_Source\PSoC5/cyfitter_cfg.c **** #define CYCLOCKSTART_PLL_ERROR   3u
  88:.\Generated_Source\PSoC5/cyfitter_cfg.c **** 
  89:.\Generated_Source\PSoC5/cyfitter_cfg.c **** #ifdef CY_NEED_CYCLOCKSTARTUPERROR
ARM GAS  C:\Users\lenovo\AppData\Local\Temp\ccMsl09b.s 			page 3


  90:.\Generated_Source\PSoC5/cyfitter_cfg.c **** /*******************************************************************************
  91:.\Generated_Source\PSoC5/cyfitter_cfg.c **** * Function Name: CyClockStartupError
  92:.\Generated_Source\PSoC5/cyfitter_cfg.c **** ********************************************************************************
  93:.\Generated_Source\PSoC5/cyfitter_cfg.c **** * Summary:
  94:.\Generated_Source\PSoC5/cyfitter_cfg.c **** *  If an error is encountered during clock configuration (crystal startup error,
  95:.\Generated_Source\PSoC5/cyfitter_cfg.c **** *  PLL lock error, etc.), the system will end up here.  Unless reimplemented by
  96:.\Generated_Source\PSoC5/cyfitter_cfg.c **** *  the customer, this function will stop in an infinite loop.
  97:.\Generated_Source\PSoC5/cyfitter_cfg.c **** *
  98:.\Generated_Source\PSoC5/cyfitter_cfg.c **** * Parameters:
  99:.\Generated_Source\PSoC5/cyfitter_cfg.c **** *   void
 100:.\Generated_Source\PSoC5/cyfitter_cfg.c **** *
 101:.\Generated_Source\PSoC5/cyfitter_cfg.c **** * Return:
 102:.\Generated_Source\PSoC5/cyfitter_cfg.c **** *   void
 103:.\Generated_Source\PSoC5/cyfitter_cfg.c **** *
 104:.\Generated_Source\PSoC5/cyfitter_cfg.c **** *******************************************************************************/
 105:.\Generated_Source\PSoC5/cyfitter_cfg.c **** CY_CFG_UNUSED
 106:.\Generated_Source\PSoC5/cyfitter_cfg.c **** static void CyClockStartupError(uint8 errorCode);
 107:.\Generated_Source\PSoC5/cyfitter_cfg.c **** CY_CFG_UNUSED
 108:.\Generated_Source\PSoC5/cyfitter_cfg.c **** static void CyClockStartupError(uint8 errorCode)
 109:.\Generated_Source\PSoC5/cyfitter_cfg.c **** {
  26              		.loc 1 109 0
  27              		.cfi_startproc
  28              		@ Volatile: function does not return.
  29              		@ args = 0, pretend = 0, frame = 0
  30              		@ frame_needed = 0, uses_anonymous_args = 0
  31              		@ link register save eliminated.
  32              	.LVL0:
  33              	.L2:
 110:.\Generated_Source\PSoC5/cyfitter_cfg.c ****     /* To remove the compiler warning if errorCode not used.                */
 111:.\Generated_Source\PSoC5/cyfitter_cfg.c ****     errorCode = errorCode;
 112:.\Generated_Source\PSoC5/cyfitter_cfg.c **** 
 113:.\Generated_Source\PSoC5/cyfitter_cfg.c ****     /* `#START CyClockStartupError` */
 114:.\Generated_Source\PSoC5/cyfitter_cfg.c **** 
 115:.\Generated_Source\PSoC5/cyfitter_cfg.c ****     /* If we have a clock startup error (bad MHz crystal, PLL lock, etc.),  */
 116:.\Generated_Source\PSoC5/cyfitter_cfg.c ****     /* we will end up here to allow the customer to implement something to  */
 117:.\Generated_Source\PSoC5/cyfitter_cfg.c ****     /* deal with the clock condition.                                       */
 118:.\Generated_Source\PSoC5/cyfitter_cfg.c **** 
 119:.\Generated_Source\PSoC5/cyfitter_cfg.c ****     /* `#END` */
 120:.\Generated_Source\PSoC5/cyfitter_cfg.c **** 
 121:.\Generated_Source\PSoC5/cyfitter_cfg.c ****     /* If nothing else, stop here since the clocks have not started         */
 122:.\Generated_Source\PSoC5/cyfitter_cfg.c ****     /* correctly.                                                           */
 123:.\Generated_Source\PSoC5/cyfitter_cfg.c ****     while(1) {}
  34              		.loc 1 123 0 discriminator 1
  35 0000 FEE7     		b	.L2
  36              		.cfi_endproc
  37              	.LFE3:
  38              		.size	CyClockStartupError, .-CyClockStartupError
  39 0002 00BF     		.section	.text.cfg_write_bytes32,"ax",%progbits
  40              		.align	2
  41              		.thumb
  42              		.thumb_func
  43              		.type	cfg_write_bytes32, %function
  44              	cfg_write_bytes32:
  45              	.LFB4:
 124:.\Generated_Source\PSoC5/cyfitter_cfg.c **** }
 125:.\Generated_Source\PSoC5/cyfitter_cfg.c **** #endif
 126:.\Generated_Source\PSoC5/cyfitter_cfg.c **** 
ARM GAS  C:\Users\lenovo\AppData\Local\Temp\ccMsl09b.s 			page 4


 127:.\Generated_Source\PSoC5/cyfitter_cfg.c **** #define CY_CFG_BASE_ADDR_COUNT 28u
 128:.\Generated_Source\PSoC5/cyfitter_cfg.c **** CYPACKED typedef struct
 129:.\Generated_Source\PSoC5/cyfitter_cfg.c **** {
 130:.\Generated_Source\PSoC5/cyfitter_cfg.c **** 	uint8 offset;
 131:.\Generated_Source\PSoC5/cyfitter_cfg.c **** 	uint8 value;
 132:.\Generated_Source\PSoC5/cyfitter_cfg.c **** } CYPACKED_ATTR cy_cfg_addrvalue_t;
 133:.\Generated_Source\PSoC5/cyfitter_cfg.c **** 
 134:.\Generated_Source\PSoC5/cyfitter_cfg.c **** #define cy_cfg_addr_table ((const uint32 CYFAR *)0x48000000u)
 135:.\Generated_Source\PSoC5/cyfitter_cfg.c **** #define cy_cfg_data_table ((const cy_cfg_addrvalue_t CYFAR *)0x48000070u)
 136:.\Generated_Source\PSoC5/cyfitter_cfg.c **** 
 137:.\Generated_Source\PSoC5/cyfitter_cfg.c **** /* IOPINS0_8 Address: CYREG_PRT15_DR Size (bytes): 10 */
 138:.\Generated_Source\PSoC5/cyfitter_cfg.c **** #define BS_IOPINS0_8_VAL ((const uint8 CYFAR *)0x480003A0u)
 139:.\Generated_Source\PSoC5/cyfitter_cfg.c **** 
 140:.\Generated_Source\PSoC5/cyfitter_cfg.c **** /* IOPINS0_2 Address: CYREG_PRT2_DM0 Size (bytes): 8 */
 141:.\Generated_Source\PSoC5/cyfitter_cfg.c **** #define BS_IOPINS0_2_VAL ((const uint8 CYFAR *)0x480003ACu)
 142:.\Generated_Source\PSoC5/cyfitter_cfg.c **** 
 143:.\Generated_Source\PSoC5/cyfitter_cfg.c **** /* IOPINS0_5 Address: CYREG_PRT5_DM0 Size (bytes): 8 */
 144:.\Generated_Source\PSoC5/cyfitter_cfg.c **** #define BS_IOPINS0_5_VAL ((const uint8 CYFAR *)0x480003B4u)
 145:.\Generated_Source\PSoC5/cyfitter_cfg.c **** 
 146:.\Generated_Source\PSoC5/cyfitter_cfg.c **** /* IOPINS0_6 Address: CYREG_PRT6_DM0 Size (bytes): 8 */
 147:.\Generated_Source\PSoC5/cyfitter_cfg.c **** #define BS_IOPINS0_6_VAL ((const uint8 CYFAR *)0x480003BCu)
 148:.\Generated_Source\PSoC5/cyfitter_cfg.c **** 
 149:.\Generated_Source\PSoC5/cyfitter_cfg.c **** 
 150:.\Generated_Source\PSoC5/cyfitter_cfg.c **** /*******************************************************************************
 151:.\Generated_Source\PSoC5/cyfitter_cfg.c **** * Function Name: cfg_write_bytes32
 152:.\Generated_Source\PSoC5/cyfitter_cfg.c **** ********************************************************************************
 153:.\Generated_Source\PSoC5/cyfitter_cfg.c **** * Summary:
 154:.\Generated_Source\PSoC5/cyfitter_cfg.c **** *  This function is used for setting up the chip configuration areas that
 155:.\Generated_Source\PSoC5/cyfitter_cfg.c **** *  contain relatively sparse data.
 156:.\Generated_Source\PSoC5/cyfitter_cfg.c **** *
 157:.\Generated_Source\PSoC5/cyfitter_cfg.c **** * Parameters:
 158:.\Generated_Source\PSoC5/cyfitter_cfg.c **** *   void
 159:.\Generated_Source\PSoC5/cyfitter_cfg.c **** *
 160:.\Generated_Source\PSoC5/cyfitter_cfg.c **** * Return:
 161:.\Generated_Source\PSoC5/cyfitter_cfg.c **** *   void
 162:.\Generated_Source\PSoC5/cyfitter_cfg.c **** *
 163:.\Generated_Source\PSoC5/cyfitter_cfg.c **** *******************************************************************************/
 164:.\Generated_Source\PSoC5/cyfitter_cfg.c **** static void cfg_write_bytes32(const uint32 addr_table[], const cy_cfg_addrvalue_t data_table[]);
 165:.\Generated_Source\PSoC5/cyfitter_cfg.c **** static void cfg_write_bytes32(const uint32 addr_table[], const cy_cfg_addrvalue_t data_table[])
 166:.\Generated_Source\PSoC5/cyfitter_cfg.c **** {
  46              		.loc 1 166 0
  47              		.cfi_startproc
  48              		@ args = 0, pretend = 0, frame = 0
  49              		@ frame_needed = 0, uses_anonymous_args = 0
  50              		@ link register save eliminated.
  51              	.LVL1:
  52 0000 F0B4     		push	{r4, r5, r6, r7}
  53              		.cfi_def_cfa_offset 16
  54              		.cfi_offset 4, -16
  55              		.cfi_offset 5, -12
  56              		.cfi_offset 6, -8
  57              		.cfi_offset 7, -4
  58              	.LVL2:
 167:.\Generated_Source\PSoC5/cyfitter_cfg.c **** 	/* For 32-bit little-endian architectures */
 168:.\Generated_Source\PSoC5/cyfitter_cfg.c **** 	uint32 i, j = 0u;
  59              		.loc 1 168 0
  60 0002 0022     		movs	r2, #0
ARM GAS  C:\Users\lenovo\AppData\Local\Temp\ccMsl09b.s 			page 5


 169:.\Generated_Source\PSoC5/cyfitter_cfg.c **** 	for (i = 0u; i < CY_CFG_BASE_ADDR_COUNT; i++)
  61              		.loc 1 169 0
  62 0004 1746     		mov	r7, r2
  63 0006 11E0     		b	.L4
  64              	.LVL3:
  65              	.L7:
  66              	.LBB2:
 170:.\Generated_Source\PSoC5/cyfitter_cfg.c **** 	{
 171:.\Generated_Source\PSoC5/cyfitter_cfg.c **** 		uint32 baseAddr = addr_table[i];
  67              		.loc 1 171 0
  68 0008 50F82760 		ldr	r6, [r0, r7, lsl #2]
  69              	.LVL4:
 172:.\Generated_Source\PSoC5/cyfitter_cfg.c **** 		uint8 count = (uint8)baseAddr;
  70              		.loc 1 172 0
  71 000c F3B2     		uxtb	r3, r6
  72              	.LVL5:
 173:.\Generated_Source\PSoC5/cyfitter_cfg.c **** 		baseAddr &= 0xFFFFFF00u;
  73              		.loc 1 173 0
  74 000e 26F0FF06 		bic	r6, r6, #255
  75              	.LVL6:
 174:.\Generated_Source\PSoC5/cyfitter_cfg.c **** 		while (count != 0u)
  76              		.loc 1 174 0
  77 0012 08E0     		b	.L5
  78              	.L6:
 175:.\Generated_Source\PSoC5/cyfitter_cfg.c **** 		{
 176:.\Generated_Source\PSoC5/cyfitter_cfg.c **** 			CY_SET_XTND_REG8((void CYFAR *)(baseAddr + data_table[j].offset), data_table[j].value);
  79              		.loc 1 176 0
  80 0014 01EB4205 		add	r5, r1, r2, lsl #1
  81 0018 11F81240 		ldrb	r4, [r1, r2, lsl #1]	@ zero_extendqisi2
  82 001c 6D78     		ldrb	r5, [r5, #1]	@ zero_extendqisi2
  83 001e A555     		strb	r5, [r4, r6]
 177:.\Generated_Source\PSoC5/cyfitter_cfg.c **** 			j++;
  84              		.loc 1 177 0
  85 0020 0132     		adds	r2, r2, #1
  86              	.LVL7:
 178:.\Generated_Source\PSoC5/cyfitter_cfg.c **** 			count--;
  87              		.loc 1 178 0
  88 0022 013B     		subs	r3, r3, #1
  89              	.LVL8:
  90 0024 DBB2     		uxtb	r3, r3
  91              	.LVL9:
  92              	.L5:
 174:.\Generated_Source\PSoC5/cyfitter_cfg.c **** 		{
  93              		.loc 1 174 0
  94 0026 002B     		cmp	r3, #0
  95 0028 F4D1     		bne	.L6
  96              	.LBE2:
 169:.\Generated_Source\PSoC5/cyfitter_cfg.c **** 	{
  97              		.loc 1 169 0 discriminator 2
  98 002a 0137     		adds	r7, r7, #1
  99              	.LVL10:
 100              	.L4:
 169:.\Generated_Source\PSoC5/cyfitter_cfg.c **** 	{
 101              		.loc 1 169 0 is_stmt 0 discriminator 1
 102 002c 1B2F     		cmp	r7, #27
 103 002e EBD9     		bls	.L7
 179:.\Generated_Source\PSoC5/cyfitter_cfg.c **** 		}
ARM GAS  C:\Users\lenovo\AppData\Local\Temp\ccMsl09b.s 			page 6


 180:.\Generated_Source\PSoC5/cyfitter_cfg.c **** 	}
 181:.\Generated_Source\PSoC5/cyfitter_cfg.c **** }
 104              		.loc 1 181 0 is_stmt 1
 105 0030 F0BC     		pop	{r4, r5, r6, r7}
 106              		.cfi_restore 7
 107              		.cfi_restore 6
 108              		.cfi_restore 5
 109              		.cfi_restore 4
 110              		.cfi_def_cfa_offset 0
 111              	.LVL11:
 112 0032 7047     		bx	lr
 113              		.cfi_endproc
 114              	.LFE4:
 115              		.size	cfg_write_bytes32, .-cfg_write_bytes32
 116              		.section	.text.AnalogSetDefault,"ax",%progbits
 117              		.align	2
 118              		.thumb
 119              		.thumb_func
 120              		.type	AnalogSetDefault, %function
 121              	AnalogSetDefault:
 122              	.LFB6:
 182:.\Generated_Source\PSoC5/cyfitter_cfg.c **** 
 183:.\Generated_Source\PSoC5/cyfitter_cfg.c **** /*******************************************************************************
 184:.\Generated_Source\PSoC5/cyfitter_cfg.c **** * Function Name: ClockSetup
 185:.\Generated_Source\PSoC5/cyfitter_cfg.c **** ********************************************************************************
 186:.\Generated_Source\PSoC5/cyfitter_cfg.c **** *
 187:.\Generated_Source\PSoC5/cyfitter_cfg.c **** * Summary:
 188:.\Generated_Source\PSoC5/cyfitter_cfg.c **** *  Performs the initialization of all of the clocks in the device based on the
 189:.\Generated_Source\PSoC5/cyfitter_cfg.c **** *  settings in the Clock tab of the DWR.  This includes enabling the requested
 190:.\Generated_Source\PSoC5/cyfitter_cfg.c **** *  clocks and setting the necessary dividers to produce the desired frequency. 
 191:.\Generated_Source\PSoC5/cyfitter_cfg.c **** *
 192:.\Generated_Source\PSoC5/cyfitter_cfg.c **** * Parameters:
 193:.\Generated_Source\PSoC5/cyfitter_cfg.c **** *  void
 194:.\Generated_Source\PSoC5/cyfitter_cfg.c **** *
 195:.\Generated_Source\PSoC5/cyfitter_cfg.c **** * Return:
 196:.\Generated_Source\PSoC5/cyfitter_cfg.c **** *  void
 197:.\Generated_Source\PSoC5/cyfitter_cfg.c **** *
 198:.\Generated_Source\PSoC5/cyfitter_cfg.c **** *******************************************************************************/
 199:.\Generated_Source\PSoC5/cyfitter_cfg.c **** static void ClockSetup(void);
 200:.\Generated_Source\PSoC5/cyfitter_cfg.c **** static void ClockSetup(void)
 201:.\Generated_Source\PSoC5/cyfitter_cfg.c **** {
 202:.\Generated_Source\PSoC5/cyfitter_cfg.c **** 	uint32 timeout;
 203:.\Generated_Source\PSoC5/cyfitter_cfg.c **** 	uint8 pllLock;
 204:.\Generated_Source\PSoC5/cyfitter_cfg.c **** 
 205:.\Generated_Source\PSoC5/cyfitter_cfg.c **** 
 206:.\Generated_Source\PSoC5/cyfitter_cfg.c **** 	/* Configure Digital Clocks based on settings from Clock DWR */
 207:.\Generated_Source\PSoC5/cyfitter_cfg.c **** 	CY_SET_XTND_REG16((void CYFAR *)(CYREG_CLKDIST_DCFG0_CFG0), 0x0001u);
 208:.\Generated_Source\PSoC5/cyfitter_cfg.c **** 	CY_SET_XTND_REG8((void CYFAR *)(CYREG_CLKDIST_DCFG0_CFG0 + 0x2u), 0x19u);
 209:.\Generated_Source\PSoC5/cyfitter_cfg.c **** 	CY_SET_XTND_REG16((void CYFAR *)(CYREG_CLKDIST_DCFG1_CFG0), 0x027Fu);
 210:.\Generated_Source\PSoC5/cyfitter_cfg.c **** 	CY_SET_XTND_REG8((void CYFAR *)(CYREG_CLKDIST_DCFG1_CFG0 + 0x2u), 0x18u);
 211:.\Generated_Source\PSoC5/cyfitter_cfg.c **** 
 212:.\Generated_Source\PSoC5/cyfitter_cfg.c **** 	/* Configure ILO based on settings from Clock DWR */
 213:.\Generated_Source\PSoC5/cyfitter_cfg.c **** 	CY_SET_XTND_REG8((void CYFAR *)(CYREG_SLOWCLK_ILO_CR0), 0x06u);
 214:.\Generated_Source\PSoC5/cyfitter_cfg.c **** 
 215:.\Generated_Source\PSoC5/cyfitter_cfg.c **** 	/* Configure IMO based on settings from Clock DWR */
 216:.\Generated_Source\PSoC5/cyfitter_cfg.c **** 	CY_SET_XTND_REG8((void CYFAR *)(CYREG_FASTCLK_IMO_CR), 0x52u);
 217:.\Generated_Source\PSoC5/cyfitter_cfg.c **** 	CY_SET_XTND_REG8((void CYFAR *)(CYREG_IMO_TR1), (CY_GET_XTND_REG8((void CYFAR *)CYREG_FLSHID_CUST_
ARM GAS  C:\Users\lenovo\AppData\Local\Temp\ccMsl09b.s 			page 7


 218:.\Generated_Source\PSoC5/cyfitter_cfg.c **** 
 219:.\Generated_Source\PSoC5/cyfitter_cfg.c **** 	/* Configure PLL based on settings from Clock DWR */
 220:.\Generated_Source\PSoC5/cyfitter_cfg.c **** 	CY_SET_XTND_REG16((void CYFAR *)(CYREG_FASTCLK_PLL_P), 0x0818u);
 221:.\Generated_Source\PSoC5/cyfitter_cfg.c **** 	CY_SET_XTND_REG16((void CYFAR *)(CYREG_FASTCLK_PLL_CFG0), 0x1251u);
 222:.\Generated_Source\PSoC5/cyfitter_cfg.c **** 	/* Wait up to 250us for the PLL to lock */
 223:.\Generated_Source\PSoC5/cyfitter_cfg.c **** 	pllLock = 0u;
 224:.\Generated_Source\PSoC5/cyfitter_cfg.c **** 	for (timeout = 250u / 10u; (timeout > 0u) && (pllLock != 0x03u); timeout--)
 225:.\Generated_Source\PSoC5/cyfitter_cfg.c **** 	{ 
 226:.\Generated_Source\PSoC5/cyfitter_cfg.c **** 		pllLock = 0x03u & ((uint8)((uint8)pllLock << 1) | ((CY_GET_XTND_REG8((void CYFAR *)CYREG_FASTCLK_
 227:.\Generated_Source\PSoC5/cyfitter_cfg.c **** 		CyDelayCycles(10u * 48u); /* Delay 10us based on 48MHz clock */
 228:.\Generated_Source\PSoC5/cyfitter_cfg.c **** 	}
 229:.\Generated_Source\PSoC5/cyfitter_cfg.c **** 	/* If we ran out of time the PLL didn't lock so go to the error function */
 230:.\Generated_Source\PSoC5/cyfitter_cfg.c **** 	if (timeout == 0u)
 231:.\Generated_Source\PSoC5/cyfitter_cfg.c **** 	{
 232:.\Generated_Source\PSoC5/cyfitter_cfg.c **** 		CyClockStartupError(CYCLOCKSTART_PLL_ERROR);
 233:.\Generated_Source\PSoC5/cyfitter_cfg.c **** 	}
 234:.\Generated_Source\PSoC5/cyfitter_cfg.c **** 
 235:.\Generated_Source\PSoC5/cyfitter_cfg.c **** 	/* Configure Bus/Master Clock based on settings from Clock DWR */
 236:.\Generated_Source\PSoC5/cyfitter_cfg.c **** 	CY_SET_XTND_REG16((void CYFAR *)(CYREG_CLKDIST_MSTR0), 0x0100u);
 237:.\Generated_Source\PSoC5/cyfitter_cfg.c **** 	CY_SET_XTND_REG8((void CYFAR *)(CYREG_CLKDIST_MSTR0), 0x07u);
 238:.\Generated_Source\PSoC5/cyfitter_cfg.c **** 	CY_SET_XTND_REG8((void CYFAR *)(CYREG_CLKDIST_BCFG0), 0x00u);
 239:.\Generated_Source\PSoC5/cyfitter_cfg.c **** 	CY_SET_XTND_REG8((void CYFAR *)(CYREG_CLKDIST_BCFG2), 0x48u);
 240:.\Generated_Source\PSoC5/cyfitter_cfg.c **** 	CY_SET_XTND_REG8((void CYFAR *)(CYREG_CLKDIST_MSTR0), 0x00u);
 241:.\Generated_Source\PSoC5/cyfitter_cfg.c **** 
 242:.\Generated_Source\PSoC5/cyfitter_cfg.c **** 	/* Configure USB Clock based on settings from Clock DWR */
 243:.\Generated_Source\PSoC5/cyfitter_cfg.c **** 	CY_SET_XTND_REG8((void CYFAR *)(CYREG_CLKDIST_UCFG), 0x00u);
 244:.\Generated_Source\PSoC5/cyfitter_cfg.c **** 	CY_SET_XTND_REG8((void CYFAR *)(CYREG_CLKDIST_LD), 0x02u);
 245:.\Generated_Source\PSoC5/cyfitter_cfg.c **** 
 246:.\Generated_Source\PSoC5/cyfitter_cfg.c **** 	CY_SET_XTND_REG8((void CYFAR *)(CYREG_PM_ACT_CFG2), ((CY_GET_XTND_REG8((void CYFAR *)CYREG_PM_ACT_
 247:.\Generated_Source\PSoC5/cyfitter_cfg.c **** }
 248:.\Generated_Source\PSoC5/cyfitter_cfg.c **** 
 249:.\Generated_Source\PSoC5/cyfitter_cfg.c **** 
 250:.\Generated_Source\PSoC5/cyfitter_cfg.c **** /* Analog API Functions */
 251:.\Generated_Source\PSoC5/cyfitter_cfg.c **** 
 252:.\Generated_Source\PSoC5/cyfitter_cfg.c **** 
 253:.\Generated_Source\PSoC5/cyfitter_cfg.c **** /*******************************************************************************
 254:.\Generated_Source\PSoC5/cyfitter_cfg.c **** * Function Name: AnalogSetDefault
 255:.\Generated_Source\PSoC5/cyfitter_cfg.c **** ********************************************************************************
 256:.\Generated_Source\PSoC5/cyfitter_cfg.c **** *
 257:.\Generated_Source\PSoC5/cyfitter_cfg.c **** * Summary:
 258:.\Generated_Source\PSoC5/cyfitter_cfg.c **** *  Sets up the analog portions of the chip to default values based on chip
 259:.\Generated_Source\PSoC5/cyfitter_cfg.c **** *  configuration options from the project.
 260:.\Generated_Source\PSoC5/cyfitter_cfg.c **** *
 261:.\Generated_Source\PSoC5/cyfitter_cfg.c **** * Parameters:
 262:.\Generated_Source\PSoC5/cyfitter_cfg.c **** *  void
 263:.\Generated_Source\PSoC5/cyfitter_cfg.c **** *
 264:.\Generated_Source\PSoC5/cyfitter_cfg.c **** * Return:
 265:.\Generated_Source\PSoC5/cyfitter_cfg.c **** *  void
 266:.\Generated_Source\PSoC5/cyfitter_cfg.c **** *
 267:.\Generated_Source\PSoC5/cyfitter_cfg.c **** *******************************************************************************/
 268:.\Generated_Source\PSoC5/cyfitter_cfg.c **** static void AnalogSetDefault(void);
 269:.\Generated_Source\PSoC5/cyfitter_cfg.c **** static void AnalogSetDefault(void)
 270:.\Generated_Source\PSoC5/cyfitter_cfg.c **** {
 123              		.loc 1 270 0
 124              		.cfi_startproc
 125              		@ args = 0, pretend = 0, frame = 0
 126              		@ frame_needed = 0, uses_anonymous_args = 0
ARM GAS  C:\Users\lenovo\AppData\Local\Temp\ccMsl09b.s 			page 8


 127              		@ link register save eliminated.
 271:.\Generated_Source\PSoC5/cyfitter_cfg.c **** 	uint8 bg_xover_inl_trim = CY_GET_XTND_REG8((void CYFAR *)(CYREG_FLSHID_MFG_CFG_BG_XOVER_INL_TRIM +
 128              		.loc 1 271 0
 129 0000 0E4B     		ldr	r3, .L10
 130 0002 1B78     		ldrb	r3, [r3]	@ zero_extendqisi2
 131 0004 DBB2     		uxtb	r3, r3
 132              	.LVL12:
 272:.\Generated_Source\PSoC5/cyfitter_cfg.c **** 	CY_SET_XTND_REG8((void CYFAR *)(CYREG_BG_DFT0), (bg_xover_inl_trim & 0x07u));
 133              		.loc 1 272 0
 134 0006 03F00701 		and	r1, r3, #7
 135 000a 0D4A     		ldr	r2, .L10+4
 136 000c 1170     		strb	r1, [r2]
 273:.\Generated_Source\PSoC5/cyfitter_cfg.c **** 	CY_SET_XTND_REG8((void CYFAR *)(CYREG_BG_DFT1), ((bg_xover_inl_trim >> 4) & 0x0Fu));
 137              		.loc 1 273 0
 138 000e 1B09     		lsrs	r3, r3, #4
 139              	.LVL13:
 140 0010 0132     		adds	r2, r2, #1
 141 0012 1370     		strb	r3, [r2]
 274:.\Generated_Source\PSoC5/cyfitter_cfg.c **** 	CY_SET_XTND_REG8((void CYFAR *)CYREG_PRT6_AG, 0x10u);
 142              		.loc 1 274 0
 143 0014 1022     		movs	r2, #16
 144 0016 0B4B     		ldr	r3, .L10+8
 145 0018 1A70     		strb	r2, [r3]
 275:.\Generated_Source\PSoC5/cyfitter_cfg.c **** 	CY_SET_XTND_REG8((void CYFAR *)CYREG_CAPSL_CFG0, 0x00u);
 146              		.loc 1 275 0
 147 001a 0022     		movs	r2, #0
 148 001c 03F20373 		addw	r3, r3, #1795
 149 0020 1A70     		strb	r2, [r3]
 276:.\Generated_Source\PSoC5/cyfitter_cfg.c **** 	CY_SET_XTND_REG8((void CYFAR *)CYREG_CMP0_SW3, 0x20u);
 150              		.loc 1 276 0
 151 0022 2022     		movs	r2, #32
 152 0024 03F25323 		addw	r3, r3, #595
 153 0028 1A70     		strb	r2, [r3]
 277:.\Generated_Source\PSoC5/cyfitter_cfg.c **** 	CY_SET_XTND_REG8((void CYFAR *)CYREG_BUS_SW3, 0x01u);
 154              		.loc 1 277 0
 155 002a 0122     		movs	r2, #1
 156 002c 9833     		adds	r3, r3, #152
 157 002e 1A70     		strb	r2, [r3]
 278:.\Generated_Source\PSoC5/cyfitter_cfg.c **** 	CY_SET_XTND_REG8((void CYFAR *)CYREG_PUMP_CR0, 0x44u);
 158              		.loc 1 278 0
 159 0030 4422     		movs	r2, #68
 160 0032 A3F2E523 		subw	r3, r3, #741
 161 0036 1A70     		strb	r2, [r3]
 162 0038 7047     		bx	lr
 163              	.L11:
 164 003a 00BF     		.align	2
 165              	.L10:
 166 003c CF010049 		.word	1224737231
 167 0040 6E580040 		.word	1073764462
 168 0044 6D510040 		.word	1073762669
 169              		.cfi_endproc
 170              	.LFE6:
 171              		.size	AnalogSetDefault, .-AnalogSetDefault
 172              		.section	.text.ClockSetup,"ax",%progbits
 173              		.align	2
 174              		.thumb
 175              		.thumb_func
ARM GAS  C:\Users\lenovo\AppData\Local\Temp\ccMsl09b.s 			page 9


 176              		.type	ClockSetup, %function
 177              	ClockSetup:
 178              	.LFB5:
 201:.\Generated_Source\PSoC5/cyfitter_cfg.c **** 	uint32 timeout;
 179              		.loc 1 201 0
 180              		.cfi_startproc
 181              		@ args = 0, pretend = 0, frame = 0
 182              		@ frame_needed = 0, uses_anonymous_args = 0
 183 0000 38B5     		push	{r3, r4, r5, lr}
 184              		.cfi_def_cfa_offset 16
 185              		.cfi_offset 3, -16
 186              		.cfi_offset 4, -12
 187              		.cfi_offset 5, -8
 188              		.cfi_offset 14, -4
 207:.\Generated_Source\PSoC5/cyfitter_cfg.c **** 	CY_SET_XTND_REG8((void CYFAR *)(CYREG_CLKDIST_DCFG0_CFG0 + 0x2u), 0x19u);
 189              		.loc 1 207 0
 190 0002 0122     		movs	r2, #1
 191 0004 274B     		ldr	r3, .L18
 192 0006 1A80     		strh	r2, [r3]	@ movhi
 208:.\Generated_Source\PSoC5/cyfitter_cfg.c **** 	CY_SET_XTND_REG16((void CYFAR *)(CYREG_CLKDIST_DCFG1_CFG0), 0x027Fu);
 193              		.loc 1 208 0
 194 0008 1925     		movs	r5, #25
 195 000a 0233     		adds	r3, r3, #2
 196 000c 1D70     		strb	r5, [r3]
 209:.\Generated_Source\PSoC5/cyfitter_cfg.c **** 	CY_SET_XTND_REG8((void CYFAR *)(CYREG_CLKDIST_DCFG1_CFG0 + 0x2u), 0x18u);
 197              		.loc 1 209 0
 198 000e 40F27F22 		movw	r2, #639
 199 0012 0233     		adds	r3, r3, #2
 200 0014 1A80     		strh	r2, [r3]	@ movhi
 210:.\Generated_Source\PSoC5/cyfitter_cfg.c **** 
 201              		.loc 1 210 0
 202 0016 1822     		movs	r2, #24
 203 0018 0233     		adds	r3, r3, #2
 204 001a 1A70     		strb	r2, [r3]
 213:.\Generated_Source\PSoC5/cyfitter_cfg.c **** 
 205              		.loc 1 213 0
 206 001c 0622     		movs	r2, #6
 207 001e 03F27A23 		addw	r3, r3, #634
 208 0022 1A70     		strb	r2, [r3]
 216:.\Generated_Source\PSoC5/cyfitter_cfg.c **** 	CY_SET_XTND_REG8((void CYFAR *)(CYREG_IMO_TR1), (CY_GET_XTND_REG8((void CYFAR *)CYREG_FLSHID_CUST_
 209              		.loc 1 216 0
 210 0024 5222     		movs	r2, #82
 211 0026 A3F58073 		sub	r3, r3, #256
 212 002a 1A70     		strb	r2, [r3]
 217:.\Generated_Source\PSoC5/cyfitter_cfg.c **** 
 213              		.loc 1 217 0
 214 002c 1E4B     		ldr	r3, .L18+4
 215 002e 1B78     		ldrb	r3, [r3]	@ zero_extendqisi2
 216 0030 DBB2     		uxtb	r3, r3
 217 0032 1E4A     		ldr	r2, .L18+8
 218 0034 1370     		strb	r3, [r2]
 220:.\Generated_Source\PSoC5/cyfitter_cfg.c **** 	CY_SET_XTND_REG16((void CYFAR *)(CYREG_FASTCLK_PLL_CFG0), 0x1251u);
 219              		.loc 1 220 0
 220 0036 40F61802 		movw	r2, #2072
 221 003a 1D4B     		ldr	r3, .L18+12
 222 003c 1A80     		strh	r2, [r3]	@ movhi
 221:.\Generated_Source\PSoC5/cyfitter_cfg.c **** 	/* Wait up to 250us for the PLL to lock */
ARM GAS  C:\Users\lenovo\AppData\Local\Temp\ccMsl09b.s 			page 10


 223              		.loc 1 221 0
 224 003e 41F25122 		movw	r2, #4689
 225 0042 023B     		subs	r3, r3, #2
 226 0044 1A80     		strh	r2, [r3]	@ movhi
 227              	.LVL14:
 223:.\Generated_Source\PSoC5/cyfitter_cfg.c **** 	for (timeout = 250u / 10u; (timeout > 0u) && (pllLock != 0x03u); timeout--)
 228              		.loc 1 223 0
 229 0046 0024     		movs	r4, #0
 224:.\Generated_Source\PSoC5/cyfitter_cfg.c **** 	{ 
 230              		.loc 1 224 0
 231 0048 0CE0     		b	.L13
 232              	.LVL15:
 233              	.L15:
 226:.\Generated_Source\PSoC5/cyfitter_cfg.c **** 		CyDelayCycles(10u * 48u); /* Delay 10us based on 48MHz clock */
 234              		.loc 1 226 0 discriminator 4
 235 004a 1A4B     		ldr	r3, .L18+16
 236 004c 1B78     		ldrb	r3, [r3]	@ zero_extendqisi2
 237 004e 03F00103 		and	r3, r3, #1
 238 0052 43EA4404 		orr	r4, r3, r4, lsl #1
 239              	.LVL16:
 240 0056 04F00304 		and	r4, r4, #3
 241              	.LVL17:
 227:.\Generated_Source\PSoC5/cyfitter_cfg.c **** 	}
 242              		.loc 1 227 0 discriminator 4
 243 005a 4FF4F070 		mov	r0, #480
 244 005e FFF7FEFF 		bl	CyDelayCycles
 245              	.LVL18:
 224:.\Generated_Source\PSoC5/cyfitter_cfg.c **** 	{ 
 246              		.loc 1 224 0 discriminator 4
 247 0062 013D     		subs	r5, r5, #1
 248              	.LVL19:
 249              	.L13:
 224:.\Generated_Source\PSoC5/cyfitter_cfg.c **** 	{ 
 250              		.loc 1 224 0 is_stmt 0 discriminator 1
 251 0064 0DB1     		cbz	r5, .L14
 224:.\Generated_Source\PSoC5/cyfitter_cfg.c **** 	{ 
 252              		.loc 1 224 0 discriminator 3
 253 0066 032C     		cmp	r4, #3
 254 0068 EFD1     		bne	.L15
 255              	.L14:
 230:.\Generated_Source\PSoC5/cyfitter_cfg.c **** 	{
 256              		.loc 1 230 0 is_stmt 1
 257 006a 15B9     		cbnz	r5, .L16
 232:.\Generated_Source\PSoC5/cyfitter_cfg.c **** 	}
 258              		.loc 1 232 0
 259 006c 0320     		movs	r0, #3
 260 006e FFF7FEFF 		bl	CyClockStartupError
 261              	.LVL20:
 262              	.L16:
 236:.\Generated_Source\PSoC5/cyfitter_cfg.c **** 	CY_SET_XTND_REG8((void CYFAR *)(CYREG_CLKDIST_MSTR0), 0x07u);
 263              		.loc 1 236 0
 264 0072 114A     		ldr	r2, .L18+20
 265 0074 4FF48073 		mov	r3, #256
 266 0078 1380     		strh	r3, [r2]	@ movhi
 237:.\Generated_Source\PSoC5/cyfitter_cfg.c **** 	CY_SET_XTND_REG8((void CYFAR *)(CYREG_CLKDIST_BCFG0), 0x00u);
 267              		.loc 1 237 0
 268 007a 0723     		movs	r3, #7
ARM GAS  C:\Users\lenovo\AppData\Local\Temp\ccMsl09b.s 			page 11


 269 007c 1370     		strb	r3, [r2]
 238:.\Generated_Source\PSoC5/cyfitter_cfg.c **** 	CY_SET_XTND_REG8((void CYFAR *)(CYREG_CLKDIST_BCFG2), 0x48u);
 270              		.loc 1 238 0
 271 007e 0023     		movs	r3, #0
 272 0080 0E49     		ldr	r1, .L18+24
 273 0082 0B70     		strb	r3, [r1]
 239:.\Generated_Source\PSoC5/cyfitter_cfg.c **** 	CY_SET_XTND_REG8((void CYFAR *)(CYREG_CLKDIST_MSTR0), 0x00u);
 274              		.loc 1 239 0
 275 0084 4820     		movs	r0, #72
 276 0086 0231     		adds	r1, r1, #2
 277 0088 0870     		strb	r0, [r1]
 240:.\Generated_Source\PSoC5/cyfitter_cfg.c **** 
 278              		.loc 1 240 0
 279 008a 1370     		strb	r3, [r2]
 243:.\Generated_Source\PSoC5/cyfitter_cfg.c **** 	CY_SET_XTND_REG8((void CYFAR *)(CYREG_CLKDIST_LD), 0x02u);
 280              		.loc 1 243 0
 281 008c 0532     		adds	r2, r2, #5
 282 008e 1370     		strb	r3, [r2]
 244:.\Generated_Source\PSoC5/cyfitter_cfg.c **** 
 283              		.loc 1 244 0
 284 0090 0222     		movs	r2, #2
 285 0092 0B4B     		ldr	r3, .L18+28
 286 0094 1A70     		strb	r2, [r3]
 246:.\Generated_Source\PSoC5/cyfitter_cfg.c **** }
 287              		.loc 1 246 0
 288 0096 0B4A     		ldr	r2, .L18+32
 289 0098 1378     		ldrb	r3, [r2]	@ zero_extendqisi2
 290 009a 43F00303 		orr	r3, r3, #3
 291 009e 1370     		strb	r3, [r2]
 292 00a0 38BD     		pop	{r3, r4, r5, pc}
 293              	.LVL21:
 294              	.L19:
 295 00a2 00BF     		.align	2
 296              	.L18:
 297 00a4 80400040 		.word	1073758336
 298 00a8 0F010049 		.word	1224737039
 299 00ac A1460040 		.word	1073759905
 300 00b0 22420040 		.word	1073758754
 301 00b4 25420040 		.word	1073758757
 302 00b8 04400040 		.word	1073758212
 303 00bc 06400040 		.word	1073758214
 304 00c0 01400040 		.word	1073758209
 305 00c4 A2430040 		.word	1073759138
 306              		.cfi_endproc
 307              	.LFE5:
 308              		.size	ClockSetup, .-ClockSetup
 309              		.section	.text.CYMEMZERO,"ax",%progbits
 310              		.align	2
 311              		.thumb
 312              		.thumb_func
 313              		.type	CYMEMZERO, %function
 314              	CYMEMZERO:
 315              	.LFB0:
  63:.\Generated_Source\PSoC5/cyfitter_cfg.c **** 	(void)memset(s, 0, n);
 316              		.loc 1 63 0
 317              		.cfi_startproc
 318              		@ args = 0, pretend = 0, frame = 0
ARM GAS  C:\Users\lenovo\AppData\Local\Temp\ccMsl09b.s 			page 12


 319              		@ frame_needed = 0, uses_anonymous_args = 0
 320              	.LVL22:
 321 0000 08B5     		push	{r3, lr}
 322              		.cfi_def_cfa_offset 8
 323              		.cfi_offset 3, -8
 324              		.cfi_offset 14, -4
 325 0002 0A46     		mov	r2, r1
  64:.\Generated_Source\PSoC5/cyfitter_cfg.c **** }
 326              		.loc 1 64 0
 327 0004 0021     		movs	r1, #0
 328              	.LVL23:
 329 0006 FFF7FEFF 		bl	memset
 330              	.LVL24:
 331 000a 08BD     		pop	{r3, pc}
 332              		.cfi_endproc
 333              	.LFE0:
 334              		.size	CYMEMZERO, .-CYMEMZERO
 335              		.section	.text.CYCONFIGCPY,"ax",%progbits
 336              		.align	2
 337              		.thumb
 338              		.thumb_func
 339              		.type	CYCONFIGCPY, %function
 340              	CYCONFIGCPY:
 341              	.LFB1:
  70:.\Generated_Source\PSoC5/cyfitter_cfg.c **** 	(void)memcpy(dest, src, n);
 342              		.loc 1 70 0
 343              		.cfi_startproc
 344              		@ args = 0, pretend = 0, frame = 0
 345              		@ frame_needed = 0, uses_anonymous_args = 0
 346              	.LVL25:
 347 0000 08B5     		push	{r3, lr}
 348              		.cfi_def_cfa_offset 8
 349              		.cfi_offset 3, -8
 350              		.cfi_offset 14, -4
  71:.\Generated_Source\PSoC5/cyfitter_cfg.c **** }
 351              		.loc 1 71 0
 352 0002 FFF7FEFF 		bl	memcpy
 353              	.LVL26:
 354 0006 08BD     		pop	{r3, pc}
 355              		.cfi_endproc
 356              	.LFE1:
 357              		.size	CYCONFIGCPY, .-CYCONFIGCPY
 358              		.section	.text.SetAnalogRoutingPumps,"ax",%progbits
 359              		.align	2
 360              		.global	SetAnalogRoutingPumps
 361              		.thumb
 362              		.thumb_func
 363              		.type	SetAnalogRoutingPumps, %function
 364              	SetAnalogRoutingPumps:
 365              	.LFB7:
 279:.\Generated_Source\PSoC5/cyfitter_cfg.c **** }
 280:.\Generated_Source\PSoC5/cyfitter_cfg.c **** 
 281:.\Generated_Source\PSoC5/cyfitter_cfg.c **** 
 282:.\Generated_Source\PSoC5/cyfitter_cfg.c **** /*******************************************************************************
 283:.\Generated_Source\PSoC5/cyfitter_cfg.c **** * Function Name: SetAnalogRoutingPumps
 284:.\Generated_Source\PSoC5/cyfitter_cfg.c **** ********************************************************************************
 285:.\Generated_Source\PSoC5/cyfitter_cfg.c **** *
ARM GAS  C:\Users\lenovo\AppData\Local\Temp\ccMsl09b.s 			page 13


 286:.\Generated_Source\PSoC5/cyfitter_cfg.c **** * Summary:
 287:.\Generated_Source\PSoC5/cyfitter_cfg.c **** * Enables or disables the analog pumps feeding analog routing switches.
 288:.\Generated_Source\PSoC5/cyfitter_cfg.c **** * Intended to be called at startup, based on the Vdda system configuration;
 289:.\Generated_Source\PSoC5/cyfitter_cfg.c **** * may be called during operation when the user informs us that the Vdda voltage
 290:.\Generated_Source\PSoC5/cyfitter_cfg.c **** * crossed the pump threshold.
 291:.\Generated_Source\PSoC5/cyfitter_cfg.c **** *
 292:.\Generated_Source\PSoC5/cyfitter_cfg.c **** * Parameters:
 293:.\Generated_Source\PSoC5/cyfitter_cfg.c **** *  enabled - 1 to enable the pumps, 0 to disable the pumps
 294:.\Generated_Source\PSoC5/cyfitter_cfg.c **** *
 295:.\Generated_Source\PSoC5/cyfitter_cfg.c **** * Return:
 296:.\Generated_Source\PSoC5/cyfitter_cfg.c **** *  void
 297:.\Generated_Source\PSoC5/cyfitter_cfg.c **** *
 298:.\Generated_Source\PSoC5/cyfitter_cfg.c **** *******************************************************************************/
 299:.\Generated_Source\PSoC5/cyfitter_cfg.c **** void SetAnalogRoutingPumps(uint8 enabled)
 300:.\Generated_Source\PSoC5/cyfitter_cfg.c **** {
 366              		.loc 1 300 0
 367              		.cfi_startproc
 368              		@ args = 0, pretend = 0, frame = 0
 369              		@ frame_needed = 0, uses_anonymous_args = 0
 370              		@ link register save eliminated.
 371              	.LVL27:
 301:.\Generated_Source\PSoC5/cyfitter_cfg.c **** 	uint8 regValue = CY_GET_XTND_REG8((void CYFAR *)CYREG_PUMP_CR0);
 372              		.loc 1 301 0
 373 0000 054B     		ldr	r3, .L27
 374 0002 1B78     		ldrb	r3, [r3]	@ zero_extendqisi2
 375 0004 DBB2     		uxtb	r3, r3
 376              	.LVL28:
 302:.\Generated_Source\PSoC5/cyfitter_cfg.c **** 	if (enabled != 0u)
 377              		.loc 1 302 0
 378 0006 10B1     		cbz	r0, .L25
 303:.\Generated_Source\PSoC5/cyfitter_cfg.c **** 	{
 304:.\Generated_Source\PSoC5/cyfitter_cfg.c **** 		regValue |= 0x22u;
 379              		.loc 1 304 0
 380 0008 43F02203 		orr	r3, r3, #34
 381              	.LVL29:
 382 000c 01E0     		b	.L26
 383              	.L25:
 305:.\Generated_Source\PSoC5/cyfitter_cfg.c **** 	}
 306:.\Generated_Source\PSoC5/cyfitter_cfg.c **** 	else
 307:.\Generated_Source\PSoC5/cyfitter_cfg.c **** 	{
 308:.\Generated_Source\PSoC5/cyfitter_cfg.c **** 		regValue &= (uint8)~0x22u;
 384              		.loc 1 308 0
 385 000e 03F0DD03 		and	r3, r3, #221
 386              	.LVL30:
 387              	.L26:
 309:.\Generated_Source\PSoC5/cyfitter_cfg.c **** 	}
 310:.\Generated_Source\PSoC5/cyfitter_cfg.c **** 	CY_SET_XTND_REG8((void CYFAR *)CYREG_PUMP_CR0, regValue);
 388              		.loc 1 310 0
 389 0012 014A     		ldr	r2, .L27
 390 0014 1370     		strb	r3, [r2]
 391 0016 7047     		bx	lr
 392              	.L28:
 393              		.align	2
 394              	.L27:
 395 0018 76580040 		.word	1073764470
 396              		.cfi_endproc
 397              	.LFE7:
ARM GAS  C:\Users\lenovo\AppData\Local\Temp\ccMsl09b.s 			page 14


 398              		.size	SetAnalogRoutingPumps, .-SetAnalogRoutingPumps
 399              		.section	.text.CapSense_AMuxCH0_Set,"ax",%progbits
 400              		.align	2
 401              		.global	CapSense_AMuxCH0_Set
 402              		.thumb
 403              		.thumb_func
 404              		.type	CapSense_AMuxCH0_Set, %function
 405              	CapSense_AMuxCH0_Set:
 406              	.LFB8:
 311:.\Generated_Source\PSoC5/cyfitter_cfg.c **** }
 312:.\Generated_Source\PSoC5/cyfitter_cfg.c **** 
 313:.\Generated_Source\PSoC5/cyfitter_cfg.c **** #define CY_AMUX_UNUSED CYREG_BOOST_SR
 314:.\Generated_Source\PSoC5/cyfitter_cfg.c **** /* This is an implementation detail of the AMux. Code that depends on it may be
 315:.\Generated_Source\PSoC5/cyfitter_cfg.c ****    incompatible with other versions of PSoC Creator. */
 316:.\Generated_Source\PSoC5/cyfitter_cfg.c **** uint8 CYXDATA * const CYCODE CapSense_AMuxCH0__addrTable[10] = {
 317:.\Generated_Source\PSoC5/cyfitter_cfg.c **** 	(uint8 CYXDATA *)CYREG_PRT5_AMUX, 
 318:.\Generated_Source\PSoC5/cyfitter_cfg.c **** 	(uint8 CYXDATA *)CYREG_PRT5_AMUX, 
 319:.\Generated_Source\PSoC5/cyfitter_cfg.c **** 	(uint8 CYXDATA *)CYREG_PRT5_AMUX, 
 320:.\Generated_Source\PSoC5/cyfitter_cfg.c **** 	(uint8 CYXDATA *)CYREG_PRT5_AMUX, 
 321:.\Generated_Source\PSoC5/cyfitter_cfg.c **** 	(uint8 CYXDATA *)CYREG_PRT5_AMUX, 
 322:.\Generated_Source\PSoC5/cyfitter_cfg.c **** 	(uint8 CYXDATA *)CYREG_PRT5_AMUX, 
 323:.\Generated_Source\PSoC5/cyfitter_cfg.c **** 	(uint8 CYXDATA *)CYREG_PRT5_AMUX, 
 324:.\Generated_Source\PSoC5/cyfitter_cfg.c **** 	(uint8 CYXDATA *)CYREG_PRT6_AMUX, 
 325:.\Generated_Source\PSoC5/cyfitter_cfg.c **** 	(uint8 CYXDATA *)CYREG_CMP0_SW3, 
 326:.\Generated_Source\PSoC5/cyfitter_cfg.c **** 	(uint8 CYXDATA *)CYREG_DAC0_SW3, 
 327:.\Generated_Source\PSoC5/cyfitter_cfg.c **** };
 328:.\Generated_Source\PSoC5/cyfitter_cfg.c **** 
 329:.\Generated_Source\PSoC5/cyfitter_cfg.c **** /* This is an implementation detail of the AMux. Code that depends on it may be
 330:.\Generated_Source\PSoC5/cyfitter_cfg.c ****    incompatible with other versions of PSoC Creator. */
 331:.\Generated_Source\PSoC5/cyfitter_cfg.c **** const uint8 CYCODE CapSense_AMuxCH0__maskTable[10] = {
 332:.\Generated_Source\PSoC5/cyfitter_cfg.c **** 	0x20u, 
 333:.\Generated_Source\PSoC5/cyfitter_cfg.c **** 	0x40u, 
 334:.\Generated_Source\PSoC5/cyfitter_cfg.c **** 	0x01u, 
 335:.\Generated_Source\PSoC5/cyfitter_cfg.c **** 	0x02u, 
 336:.\Generated_Source\PSoC5/cyfitter_cfg.c **** 	0x04u, 
 337:.\Generated_Source\PSoC5/cyfitter_cfg.c **** 	0x08u, 
 338:.\Generated_Source\PSoC5/cyfitter_cfg.c **** 	0x10u, 
 339:.\Generated_Source\PSoC5/cyfitter_cfg.c **** 	0x10u, 
 340:.\Generated_Source\PSoC5/cyfitter_cfg.c **** 	0x01u, 
 341:.\Generated_Source\PSoC5/cyfitter_cfg.c **** 	0x10u, 
 342:.\Generated_Source\PSoC5/cyfitter_cfg.c **** };
 343:.\Generated_Source\PSoC5/cyfitter_cfg.c **** 
 344:.\Generated_Source\PSoC5/cyfitter_cfg.c **** /*******************************************************************************
 345:.\Generated_Source\PSoC5/cyfitter_cfg.c **** * Function Name: CapSense_AMuxCH0_Set
 346:.\Generated_Source\PSoC5/cyfitter_cfg.c **** ********************************************************************************
 347:.\Generated_Source\PSoC5/cyfitter_cfg.c **** * Summary:
 348:.\Generated_Source\PSoC5/cyfitter_cfg.c **** *  This function is used to set a particular channel as active on the AMux.
 349:.\Generated_Source\PSoC5/cyfitter_cfg.c **** *
 350:.\Generated_Source\PSoC5/cyfitter_cfg.c **** * Parameters:  
 351:.\Generated_Source\PSoC5/cyfitter_cfg.c **** *   channel - The mux channel input to set as active
 352:.\Generated_Source\PSoC5/cyfitter_cfg.c **** *
 353:.\Generated_Source\PSoC5/cyfitter_cfg.c **** * Return:
 354:.\Generated_Source\PSoC5/cyfitter_cfg.c **** *   void
 355:.\Generated_Source\PSoC5/cyfitter_cfg.c **** *
 356:.\Generated_Source\PSoC5/cyfitter_cfg.c **** *******************************************************************************/
 357:.\Generated_Source\PSoC5/cyfitter_cfg.c **** void CapSense_AMuxCH0_Set(uint8 channel)
 358:.\Generated_Source\PSoC5/cyfitter_cfg.c **** {
ARM GAS  C:\Users\lenovo\AppData\Local\Temp\ccMsl09b.s 			page 15


 407              		.loc 1 358 0
 408              		.cfi_startproc
 409              		@ args = 0, pretend = 0, frame = 0
 410              		@ frame_needed = 0, uses_anonymous_args = 0
 411              		@ link register save eliminated.
 412              	.LVL31:
 359:.\Generated_Source\PSoC5/cyfitter_cfg.c **** 	if (channel < 10)
 413              		.loc 1 359 0
 414 0000 0928     		cmp	r0, #9
 415 0002 08D8     		bhi	.L29
 360:.\Generated_Source\PSoC5/cyfitter_cfg.c **** 	{
 361:.\Generated_Source\PSoC5/cyfitter_cfg.c **** 		*CapSense_AMuxCH0__addrTable[channel] |= CapSense_AMuxCH0__maskTable[channel];
 416              		.loc 1 361 0
 417 0004 044B     		ldr	r3, .L31
 418 0006 53F82020 		ldr	r2, [r3, r0, lsl #2]
 419 000a 1844     		add	r0, r0, r3
 420              	.LVL32:
 421 000c 90F82810 		ldrb	r1, [r0, #40]	@ zero_extendqisi2
 422 0010 1378     		ldrb	r3, [r2]	@ zero_extendqisi2
 423 0012 0B43     		orrs	r3, r3, r1
 424 0014 1370     		strb	r3, [r2]
 425              	.L29:
 426 0016 7047     		bx	lr
 427              	.L32:
 428              		.align	2
 429              	.L31:
 430 0018 00000000 		.word	.LANCHOR0
 431              		.cfi_endproc
 432              	.LFE8:
 433              		.size	CapSense_AMuxCH0_Set, .-CapSense_AMuxCH0_Set
 434              		.section	.text.CapSense_AMuxCH0_Unset,"ax",%progbits
 435              		.align	2
 436              		.global	CapSense_AMuxCH0_Unset
 437              		.thumb
 438              		.thumb_func
 439              		.type	CapSense_AMuxCH0_Unset, %function
 440              	CapSense_AMuxCH0_Unset:
 441              	.LFB9:
 362:.\Generated_Source\PSoC5/cyfitter_cfg.c **** 	}
 363:.\Generated_Source\PSoC5/cyfitter_cfg.c **** }
 364:.\Generated_Source\PSoC5/cyfitter_cfg.c **** 
 365:.\Generated_Source\PSoC5/cyfitter_cfg.c **** /*******************************************************************************
 366:.\Generated_Source\PSoC5/cyfitter_cfg.c **** * Function Name: CapSense_AMuxCH0_Unset
 367:.\Generated_Source\PSoC5/cyfitter_cfg.c **** ********************************************************************************
 368:.\Generated_Source\PSoC5/cyfitter_cfg.c **** * Summary:
 369:.\Generated_Source\PSoC5/cyfitter_cfg.c **** *  This function is used to clear a particular channel from being active on the
 370:.\Generated_Source\PSoC5/cyfitter_cfg.c **** *  AMux.
 371:.\Generated_Source\PSoC5/cyfitter_cfg.c **** *
 372:.\Generated_Source\PSoC5/cyfitter_cfg.c **** * Parameters:  
 373:.\Generated_Source\PSoC5/cyfitter_cfg.c **** *   channel - The mux channel input to mark inactive
 374:.\Generated_Source\PSoC5/cyfitter_cfg.c **** *
 375:.\Generated_Source\PSoC5/cyfitter_cfg.c **** * Return:
 376:.\Generated_Source\PSoC5/cyfitter_cfg.c **** *   void
 377:.\Generated_Source\PSoC5/cyfitter_cfg.c **** *
 378:.\Generated_Source\PSoC5/cyfitter_cfg.c **** *******************************************************************************/
 379:.\Generated_Source\PSoC5/cyfitter_cfg.c **** void CapSense_AMuxCH0_Unset(uint8 channel)
 380:.\Generated_Source\PSoC5/cyfitter_cfg.c **** {
ARM GAS  C:\Users\lenovo\AppData\Local\Temp\ccMsl09b.s 			page 16


 442              		.loc 1 380 0
 443              		.cfi_startproc
 444              		@ args = 0, pretend = 0, frame = 0
 445              		@ frame_needed = 0, uses_anonymous_args = 0
 446              		@ link register save eliminated.
 447              	.LVL33:
 381:.\Generated_Source\PSoC5/cyfitter_cfg.c **** 	if (channel < 10)
 448              		.loc 1 381 0
 449 0000 0928     		cmp	r0, #9
 450 0002 09D8     		bhi	.L33
 382:.\Generated_Source\PSoC5/cyfitter_cfg.c **** 	{
 383:.\Generated_Source\PSoC5/cyfitter_cfg.c **** 		*CapSense_AMuxCH0__addrTable[channel] &= (uint8)~CapSense_AMuxCH0__maskTable[channel];
 451              		.loc 1 383 0
 452 0004 054B     		ldr	r3, .L35
 453 0006 53F82020 		ldr	r2, [r3, r0, lsl #2]
 454 000a 1844     		add	r0, r0, r3
 455              	.LVL34:
 456 000c 90F82810 		ldrb	r1, [r0, #40]	@ zero_extendqisi2
 457 0010 1378     		ldrb	r3, [r2]	@ zero_extendqisi2
 458 0012 23EA0103 		bic	r3, r3, r1
 459 0016 1370     		strb	r3, [r2]
 460              	.L33:
 461 0018 7047     		bx	lr
 462              	.L36:
 463 001a 00BF     		.align	2
 464              	.L35:
 465 001c 00000000 		.word	.LANCHOR0
 466              		.cfi_endproc
 467              	.LFE9:
 468              		.size	CapSense_AMuxCH0_Unset, .-CapSense_AMuxCH0_Unset
 469              		.section	.text.cyfitter_cfg,"ax",%progbits
 470              		.align	2
 471              		.global	cyfitter_cfg
 472              		.thumb
 473              		.thumb_func
 474              		.type	cyfitter_cfg, %function
 475              	cyfitter_cfg:
 476              	.LFB10:
 384:.\Generated_Source\PSoC5/cyfitter_cfg.c **** 	}
 385:.\Generated_Source\PSoC5/cyfitter_cfg.c **** }
 386:.\Generated_Source\PSoC5/cyfitter_cfg.c **** 
 387:.\Generated_Source\PSoC5/cyfitter_cfg.c **** 
 388:.\Generated_Source\PSoC5/cyfitter_cfg.c **** 
 389:.\Generated_Source\PSoC5/cyfitter_cfg.c **** /*******************************************************************************
 390:.\Generated_Source\PSoC5/cyfitter_cfg.c **** * Function Name: cyfitter_cfg
 391:.\Generated_Source\PSoC5/cyfitter_cfg.c **** ********************************************************************************
 392:.\Generated_Source\PSoC5/cyfitter_cfg.c **** * Summary:
 393:.\Generated_Source\PSoC5/cyfitter_cfg.c **** *  This function is called by the start-up code for the selected device. It
 394:.\Generated_Source\PSoC5/cyfitter_cfg.c **** *  performs all of the necessary device configuration based on the design
 395:.\Generated_Source\PSoC5/cyfitter_cfg.c **** *  settings.  This includes settings from the Design Wide Resources (DWR) such
 396:.\Generated_Source\PSoC5/cyfitter_cfg.c **** *  as Clocks and Pins as well as any component configuration that is necessary.
 397:.\Generated_Source\PSoC5/cyfitter_cfg.c **** *
 398:.\Generated_Source\PSoC5/cyfitter_cfg.c **** * Parameters:  
 399:.\Generated_Source\PSoC5/cyfitter_cfg.c **** *   void
 400:.\Generated_Source\PSoC5/cyfitter_cfg.c **** *
 401:.\Generated_Source\PSoC5/cyfitter_cfg.c **** * Return:
 402:.\Generated_Source\PSoC5/cyfitter_cfg.c **** *   void
ARM GAS  C:\Users\lenovo\AppData\Local\Temp\ccMsl09b.s 			page 17


 403:.\Generated_Source\PSoC5/cyfitter_cfg.c **** *
 404:.\Generated_Source\PSoC5/cyfitter_cfg.c **** *******************************************************************************/
 405:.\Generated_Source\PSoC5/cyfitter_cfg.c **** 
 406:.\Generated_Source\PSoC5/cyfitter_cfg.c **** void cyfitter_cfg(void)
 407:.\Generated_Source\PSoC5/cyfitter_cfg.c **** {
 477              		.loc 1 407 0
 478              		.cfi_startproc
 479              		@ args = 0, pretend = 0, frame = 0
 480              		@ frame_needed = 0, uses_anonymous_args = 0
 481 0000 10B5     		push	{r4, lr}
 482              		.cfi_def_cfa_offset 8
 483              		.cfi_offset 4, -8
 484              		.cfi_offset 14, -4
 408:.\Generated_Source\PSoC5/cyfitter_cfg.c **** #ifdef CYGlobalIntDisable
 409:.\Generated_Source\PSoC5/cyfitter_cfg.c **** 	/* Disable interrupts by default. Let user enable if/when they want. */
 410:.\Generated_Source\PSoC5/cyfitter_cfg.c **** 	CYGlobalIntDisable
 485              		.loc 1 410 0
 486              	@ 410 ".\Generated_Source\PSoC5\cyfitter_cfg.c" 1
 487 0002 72B6     		CPSID   i
 488              	@ 0 "" 2
 411:.\Generated_Source\PSoC5/cyfitter_cfg.c **** #endif
 412:.\Generated_Source\PSoC5/cyfitter_cfg.c **** 
 413:.\Generated_Source\PSoC5/cyfitter_cfg.c **** 
 414:.\Generated_Source\PSoC5/cyfitter_cfg.c **** 	/* Set Flash Cycles based on max possible frequency in case a glitch occurs during ClockSetup(). *
 415:.\Generated_Source\PSoC5/cyfitter_cfg.c **** 	CY_SET_XTND_REG8((void CYFAR *)(CYREG_CACHE_CC_CTL), (((CYDEV_INSTRUCT_CACHE_ENABLED) != 0) ? 0x01
 489              		.loc 1 415 0
 490              		.thumb
 491 0004 0122     		movs	r2, #1
 492 0006 304B     		ldr	r3, .L41
 493 0008 1A70     		strb	r2, [r3]
 416:.\Generated_Source\PSoC5/cyfitter_cfg.c **** 	/* Setup clocks based on selections from Clock DWR */
 417:.\Generated_Source\PSoC5/cyfitter_cfg.c **** 	ClockSetup();
 494              		.loc 1 417 0
 495 000a FFF7FEFF 		bl	ClockSetup
 496              	.LVL35:
 418:.\Generated_Source\PSoC5/cyfitter_cfg.c **** 	/* Enable/Disable Debug functionality based on settings from System DWR */
 419:.\Generated_Source\PSoC5/cyfitter_cfg.c **** 	CY_SET_XTND_REG8((void CYFAR *)CYREG_MLOGIC_DEBUG, (CY_GET_XTND_REG8((void CYFAR *)CYREG_MLOGIC_DE
 497              		.loc 1 419 0
 498 000e 2F4A     		ldr	r2, .L41+4
 499 0010 1378     		ldrb	r3, [r2]	@ zero_extendqisi2
 500 0012 43F00403 		orr	r3, r3, #4
 501 0016 1370     		strb	r3, [r2]
 502              	.LVL36:
 503              	.LBB3:
 420:.\Generated_Source\PSoC5/cyfitter_cfg.c **** 
 421:.\Generated_Source\PSoC5/cyfitter_cfg.c **** 	{
 422:.\Generated_Source\PSoC5/cyfitter_cfg.c **** 
 423:.\Generated_Source\PSoC5/cyfitter_cfg.c **** 		CYPACKED typedef struct {
 424:.\Generated_Source\PSoC5/cyfitter_cfg.c **** 			void CYFAR *address;
 425:.\Generated_Source\PSoC5/cyfitter_cfg.c **** 			uint16 size;
 426:.\Generated_Source\PSoC5/cyfitter_cfg.c **** 		} CYPACKED_ATTR cfg_memset_t;
 427:.\Generated_Source\PSoC5/cyfitter_cfg.c **** 
 428:.\Generated_Source\PSoC5/cyfitter_cfg.c **** 		static const cfg_memset_t CYCODE cfg_memset_list [] = {
 429:.\Generated_Source\PSoC5/cyfitter_cfg.c **** 			/* address, size */
 430:.\Generated_Source\PSoC5/cyfitter_cfg.c **** 			{(void CYFAR *)(CYREG_PRT0_DR), 32u},
 431:.\Generated_Source\PSoC5/cyfitter_cfg.c **** 			{(void CYFAR *)(CYREG_PRT3_DR), 32u},
 432:.\Generated_Source\PSoC5/cyfitter_cfg.c **** 			{(void CYFAR *)(CYREG_PRT12_DR), 16u},
ARM GAS  C:\Users\lenovo\AppData\Local\Temp\ccMsl09b.s 			page 18


 433:.\Generated_Source\PSoC5/cyfitter_cfg.c **** 			{(void CYFAR *)(CYDEV_UCFG_B0_P0_U0_BASE), 4096u},
 434:.\Generated_Source\PSoC5/cyfitter_cfg.c **** 			{(void CYFAR *)(CYDEV_UCFG_B1_P2_U0_BASE), 2048u},
 435:.\Generated_Source\PSoC5/cyfitter_cfg.c **** 			{(void CYFAR *)(CYDEV_UCFG_DSI0_BASE), 2560u},
 436:.\Generated_Source\PSoC5/cyfitter_cfg.c **** 			{(void CYFAR *)(CYDEV_UCFG_DSI12_BASE), 512u},
 437:.\Generated_Source\PSoC5/cyfitter_cfg.c **** 			{(void CYFAR *)(CYREG_BCTL0_MDCLK_EN), 32u},
 438:.\Generated_Source\PSoC5/cyfitter_cfg.c **** 		};
 439:.\Generated_Source\PSoC5/cyfitter_cfg.c **** 
 440:.\Generated_Source\PSoC5/cyfitter_cfg.c **** 		uint8 CYDATA i;
 441:.\Generated_Source\PSoC5/cyfitter_cfg.c **** 
 442:.\Generated_Source\PSoC5/cyfitter_cfg.c **** 		/* Zero out critical memory blocks before beginning configuration */
 443:.\Generated_Source\PSoC5/cyfitter_cfg.c **** 		for (i = 0u; i < (sizeof(cfg_memset_list)/sizeof(cfg_memset_list[0])); i++)
 504              		.loc 1 443 0
 505 0018 0024     		movs	r4, #0
 506 001a 0AE0     		b	.L38
 507              	.LVL37:
 508              	.L39:
 509              	.LBB4:
 444:.\Generated_Source\PSoC5/cyfitter_cfg.c **** 		{
 445:.\Generated_Source\PSoC5/cyfitter_cfg.c **** 			const cfg_memset_t CYCODE * CYDATA ms = &cfg_memset_list[i];
 446:.\Generated_Source\PSoC5/cyfitter_cfg.c **** 			CYMEMZERO(ms->address, (size_t)(uint32)(ms->size));
 510              		.loc 1 446 0 discriminator 3
 511 001c 2C49     		ldr	r1, .L41+8
 512 001e 6300     		lsls	r3, r4, #1
 513 0020 1A19     		adds	r2, r3, r4
 514 0022 5200     		lsls	r2, r2, #1
 515 0024 0A44     		add	r2, r2, r1
 516 0026 506B     		ldr	r0, [r2, #52]	@ unaligned
 517 0028 118F     		ldrh	r1, [r2, #56]
 518 002a FFF7FEFF 		bl	CYMEMZERO
 519              	.LVL38:
 520              	.LBE4:
 443:.\Generated_Source\PSoC5/cyfitter_cfg.c **** 		{
 521              		.loc 1 443 0 discriminator 3
 522 002e 0134     		adds	r4, r4, #1
 523              	.LVL39:
 524 0030 E4B2     		uxtb	r4, r4
 525              	.LVL40:
 526              	.L38:
 443:.\Generated_Source\PSoC5/cyfitter_cfg.c **** 		{
 527              		.loc 1 443 0 is_stmt 0 discriminator 1
 528 0032 072C     		cmp	r4, #7
 529 0034 F2D9     		bls	.L39
 447:.\Generated_Source\PSoC5/cyfitter_cfg.c **** 		}
 448:.\Generated_Source\PSoC5/cyfitter_cfg.c **** 
 449:.\Generated_Source\PSoC5/cyfitter_cfg.c **** 		cfg_write_bytes32(cy_cfg_addr_table, cy_cfg_data_table);
 530              		.loc 1 449 0 is_stmt 1
 531 0036 4FF09040 		mov	r0, #1207959552
 532 003a 2649     		ldr	r1, .L41+12
 533 003c FFF7FEFF 		bl	cfg_write_bytes32
 534              	.LVL41:
 450:.\Generated_Source\PSoC5/cyfitter_cfg.c **** 
 451:.\Generated_Source\PSoC5/cyfitter_cfg.c **** 		/* Perform normal device configuration. Order is not critical for these items. */
 452:.\Generated_Source\PSoC5/cyfitter_cfg.c **** 		CY_SET_XTND_REG16((void CYFAR *)(CYREG_CAPSR_CFG0), 0x0300u);
 535              		.loc 1 452 0
 536 0040 4FF44072 		mov	r2, #768
 537 0044 244B     		ldr	r3, .L41+16
 538 0046 1A80     		strh	r2, [r3]	@ movhi
ARM GAS  C:\Users\lenovo\AppData\Local\Temp\ccMsl09b.s 			page 19


 453:.\Generated_Source\PSoC5/cyfitter_cfg.c **** 		CY_SET_XTND_REG16((void CYFAR *)(CYREG_LUT0_CR), 0x0003u);
 539              		.loc 1 453 0
 540 0048 0322     		movs	r2, #3
 541 004a 2A3B     		subs	r3, r3, #42
 542 004c 1A80     		strh	r2, [r3]	@ movhi
 454:.\Generated_Source\PSoC5/cyfitter_cfg.c **** 
 455:.\Generated_Source\PSoC5/cyfitter_cfg.c **** 		/* Enable digital routing */
 456:.\Generated_Source\PSoC5/cyfitter_cfg.c **** 		CY_SET_XTND_REG8((void CYFAR *)CYREG_BCTL0_BANK_CTL, CY_GET_XTND_REG8((void CYFAR *)CYREG_BCTL0_B
 543              		.loc 1 456 0
 544 004e 02F18042 		add	r2, r2, #1073741824
 545 0052 02F5A832 		add	r2, r2, #86016
 546 0056 1378     		ldrb	r3, [r2]	@ zero_extendqisi2
 547 0058 43F00203 		orr	r3, r3, #2
 548 005c 1370     		strb	r3, [r2]
 457:.\Generated_Source\PSoC5/cyfitter_cfg.c **** 		CY_SET_XTND_REG8((void CYFAR *)CYREG_BCTL1_BANK_CTL, CY_GET_XTND_REG8((void CYFAR *)CYREG_BCTL1_B
 549              		.loc 1 457 0
 550 005e 1032     		adds	r2, r2, #16
 551 0060 1378     		ldrb	r3, [r2]	@ zero_extendqisi2
 552 0062 43F00203 		orr	r3, r3, #2
 553 0066 1370     		strb	r3, [r2]
 458:.\Generated_Source\PSoC5/cyfitter_cfg.c **** 
 459:.\Generated_Source\PSoC5/cyfitter_cfg.c **** 		/* Enable UDB array */
 460:.\Generated_Source\PSoC5/cyfitter_cfg.c **** 		CY_SET_XTND_REG8((void CYFAR *)CYREG_PM_ACT_CFG0, CY_GET_XTND_REG8((void CYFAR *)CYREG_PM_ACT_CFG
 554              		.loc 1 460 0
 555 0068 1C4C     		ldr	r4, .L41+20
 556              	.LVL42:
 557 006a 2378     		ldrb	r3, [r4]	@ zero_extendqisi2
 558 006c 43F04003 		orr	r3, r3, #64
 559 0070 2370     		strb	r3, [r4]
 461:.\Generated_Source\PSoC5/cyfitter_cfg.c **** 		CY_SET_XTND_REG8((void CYFAR *)CYREG_PM_AVAIL_CR2, CY_GET_XTND_REG8((void CYFAR *)CYREG_PM_AVAIL_
 560              		.loc 1 461 0
 561 0072 A2F58632 		sub	r2, r2, #68608
 562 0076 513A     		subs	r2, r2, #81
 563 0078 1378     		ldrb	r3, [r2]	@ zero_extendqisi2
 564 007a 43F01003 		orr	r3, r3, #16
 565 007e 1370     		strb	r3, [r2]
 566              	.LBE3:
 462:.\Generated_Source\PSoC5/cyfitter_cfg.c **** 	}
 463:.\Generated_Source\PSoC5/cyfitter_cfg.c **** 
 464:.\Generated_Source\PSoC5/cyfitter_cfg.c **** 
 465:.\Generated_Source\PSoC5/cyfitter_cfg.c **** 	/* Perform second pass device configuration. These items must be configured in specific order afte
 466:.\Generated_Source\PSoC5/cyfitter_cfg.c **** 	CYCONFIGCPY((void CYFAR *)(CYREG_PRT15_DR), (const void CYFAR *)(BS_IOPINS0_8_VAL), 10u);
 567              		.loc 1 466 0
 568 0080 1748     		ldr	r0, .L41+24
 569 0082 1849     		ldr	r1, .L41+28
 570 0084 0A22     		movs	r2, #10
 571 0086 FFF7FEFF 		bl	CYCONFIGCPY
 572              	.LVL43:
 467:.\Generated_Source\PSoC5/cyfitter_cfg.c **** 	CYCONFIGCPY((void CYFAR *)(CYREG_PRT2_DM0), (const void CYFAR *)(BS_IOPINS0_2_VAL), 8u);
 573              		.loc 1 467 0
 574 008a 1748     		ldr	r0, .L41+32
 575 008c 1749     		ldr	r1, .L41+36
 576 008e 0822     		movs	r2, #8
 577 0090 FFF7FEFF 		bl	CYCONFIGCPY
 578              	.LVL44:
 468:.\Generated_Source\PSoC5/cyfitter_cfg.c **** 	CYCONFIGCPY((void CYFAR *)(CYREG_PRT5_DM0), (const void CYFAR *)(BS_IOPINS0_5_VAL), 8u);
 579              		.loc 1 468 0
ARM GAS  C:\Users\lenovo\AppData\Local\Temp\ccMsl09b.s 			page 20


 580 0094 1648     		ldr	r0, .L41+40
 581 0096 1749     		ldr	r1, .L41+44
 582 0098 0822     		movs	r2, #8
 583 009a FFF7FEFF 		bl	CYCONFIGCPY
 584              	.LVL45:
 469:.\Generated_Source\PSoC5/cyfitter_cfg.c **** 	CYCONFIGCPY((void CYFAR *)(CYREG_PRT6_DM0), (const void CYFAR *)(BS_IOPINS0_6_VAL), 8u);
 585              		.loc 1 469 0
 586 009e 1648     		ldr	r0, .L41+48
 587 00a0 1649     		ldr	r1, .L41+52
 588 00a2 0822     		movs	r2, #8
 589 00a4 FFF7FEFF 		bl	CYCONFIGCPY
 590              	.LVL46:
 470:.\Generated_Source\PSoC5/cyfitter_cfg.c **** 	CY_SET_XTND_REG8((void CYFAR *)(CYREG_B0_P7_U0_CFG27), 0x84u);
 591              		.loc 1 470 0
 592 00a8 8422     		movs	r2, #132
 593 00aa 154B     		ldr	r3, .L41+56
 594 00ac 1A70     		strb	r2, [r3]
 471:.\Generated_Source\PSoC5/cyfitter_cfg.c **** 	/* Switch Boost to the precision bandgap reference from its internal reference */
 472:.\Generated_Source\PSoC5/cyfitter_cfg.c **** 	CY_SET_REG8((void CYXDATA *)CYREG_BOOST_CR2, (CY_GET_REG8((void CYXDATA *)CYREG_BOOST_CR2) | 0x08u
 595              		.loc 1 472 0
 596 00ae 154A     		ldr	r2, .L41+60
 597 00b0 1378     		ldrb	r3, [r2]	@ zero_extendqisi2
 598 00b2 43F00803 		orr	r3, r3, #8
 599 00b6 1370     		strb	r3, [r2]
 473:.\Generated_Source\PSoC5/cyfitter_cfg.c **** 
 474:.\Generated_Source\PSoC5/cyfitter_cfg.c **** 	/* Perform basic analog initialization to defaults */
 475:.\Generated_Source\PSoC5/cyfitter_cfg.c **** 	AnalogSetDefault();
 600              		.loc 1 475 0
 601 00b8 FFF7FEFF 		bl	AnalogSetDefault
 602              	.LVL47:
 476:.\Generated_Source\PSoC5/cyfitter_cfg.c **** 
 477:.\Generated_Source\PSoC5/cyfitter_cfg.c **** 	/* Configure alternate active mode */
 478:.\Generated_Source\PSoC5/cyfitter_cfg.c **** 	CYCONFIGCPY((void CYFAR *)CYDEV_PM_STBY_BASE, (const void CYFAR *)CYDEV_PM_ACT_BASE, 14u);
 603              		.loc 1 478 0
 604 00bc 1248     		ldr	r0, .L41+64
 605 00be 2146     		mov	r1, r4
 606 00c0 0E22     		movs	r2, #14
 607 00c2 FFF7FEFF 		bl	CYCONFIGCPY
 608              	.LVL48:
 609 00c6 10BD     		pop	{r4, pc}
 610              	.L42:
 611              		.align	2
 612              	.L41:
 613 00c8 00480040 		.word	1073760256
 614 00cc E8460040 		.word	1073759976
 615 00d0 00000000 		.word	.LANCHOR0
 616 00d4 70000048 		.word	1207959664
 617 00d8 72580040 		.word	1073764466
 618 00dc A0430040 		.word	1073759136
 619 00e0 F0510040 		.word	1073762800
 620 00e4 A0030048 		.word	1207960480
 621 00e8 22510040 		.word	1073762594
 622 00ec AC030048 		.word	1207960492
 623 00f0 52510040 		.word	1073762642
 624 00f4 B4030048 		.word	1207960500
 625 00f8 62510040 		.word	1073762658
 626 00fc BC030048 		.word	1207960508
ARM GAS  C:\Users\lenovo\AppData\Local\Temp\ccMsl09b.s 			page 21


 627 0100 5B0E0140 		.word	1073811035
 628 0104 22430040 		.word	1073759010
 629 0108 B0430040 		.word	1073759152
 630              		.cfi_endproc
 631              	.LFE10:
 632              		.size	cyfitter_cfg, .-cyfitter_cfg
 633              		.global	CapSense_AMuxCH0__maskTable
 634              		.global	CapSense_AMuxCH0__addrTable
 635              		.section	.rodata
 636              		.align	2
 637              		.set	.LANCHOR0,. + 0
 638              		.type	CapSense_AMuxCH0__addrTable, %object
 639              		.size	CapSense_AMuxCH0__addrTable, 40
 640              	CapSense_AMuxCH0__addrTable:
 641 0000 5C510040 		.word	1073762652
 642 0004 5C510040 		.word	1073762652
 643 0008 5C510040 		.word	1073762652
 644 000c 5C510040 		.word	1073762652
 645 0010 5C510040 		.word	1073762652
 646 0014 5C510040 		.word	1073762652
 647 0018 5C510040 		.word	1073762652
 648 001c 6C510040 		.word	1073762668
 649 0020 C35A0040 		.word	1073765059
 650 0024 835A0040 		.word	1073764995
 651              		.type	CapSense_AMuxCH0__maskTable, %object
 652              		.size	CapSense_AMuxCH0__maskTable, 10
 653              	CapSense_AMuxCH0__maskTable:
 654 0028 20       		.byte	32
 655 0029 40       		.byte	64
 656 002a 01       		.byte	1
 657 002b 02       		.byte	2
 658 002c 04       		.byte	4
 659 002d 08       		.byte	8
 660 002e 10       		.byte	16
 661 002f 10       		.byte	16
 662 0030 01       		.byte	1
 663 0031 10       		.byte	16
 664 0032 0000     		.space	2
 665              		.type	cfg_memset_list.4894, %object
 666              		.size	cfg_memset_list.4894, 48
 667              	cfg_memset_list.4894:
 668 0034 00510040 		.word	1073762560
 669 0038 2000     		.short	32
 670 003a 30510040 		.4byte	1073762608
 671 003e 2000     		.short	32
 672 0040 C0510040 		.word	1073762752
 673 0044 1000     		.short	16
 674 0046 00000140 		.4byte	1073807360
 675 004a 0010     		.short	4096
 676 004c 00140140 		.word	1073812480
 677 0050 0008     		.short	2048
 678 0052 00400140 		.4byte	1073823744
 679 0056 000A     		.short	2560
 680 0058 004C0140 		.word	1073826816
 681 005c 0002     		.short	512
 682 005e 00500140 		.4byte	1073827840
 683 0062 2000     		.short	32
ARM GAS  C:\Users\lenovo\AppData\Local\Temp\ccMsl09b.s 			page 22


 684              		.text
 685              	.Letext0:
 686              		.file 2 "c:\\program files (x86)\\cypress\\psoc creator\\3.3\\psoc creator\\import\\gnu\\arm\\4.9.
 687              		.file 3 ".\\Generated_Source\\PSoC5\\cytypes.h"
 688              		.file 4 ".\\Generated_Source\\PSoC5\\CyLib.h"