ARM GAS  C:\Users\lenovo\AppData\Local\Temp\ccWMYq61.s 			page 1


   1              		.syntax unified
   2              		.cpu cortex-m3
   3              		.fpu softvfp
   4              		.eabi_attribute 20, 1
   5              		.eabi_attribute 21, 1
   6              		.eabi_attribute 23, 3
   7              		.eabi_attribute 24, 1
   8              		.eabi_attribute 25, 1
   9              		.eabi_attribute 26, 1
  10              		.eabi_attribute 30, 1
  11              		.eabi_attribute 34, 1
  12              		.eabi_attribute 18, 4
  13              		.thumb
  14              		.file	"USBUART_std.c"
  15              		.text
  16              	.Ltext0:
  17              		.cfi_sections	.debug_frame
  18              		.section	.text.USBUART_ReadDieID,"ax",%progbits
  19              		.align	2
  20              		.global	USBUART_ReadDieID
  21              		.thumb
  22              		.thumb_func
  23              		.type	USBUART_ReadDieID, %function
  24              	USBUART_ReadDieID:
  25              	.LFB1:
  26              		.file 1 ".\\Generated_Source\\PSoC5\\USBUART_std.c"
   1:.\Generated_Source\PSoC5/USBUART_std.c **** /***************************************************************************//**
   2:.\Generated_Source\PSoC5/USBUART_std.c **** * \file USBUART_std.c
   3:.\Generated_Source\PSoC5/USBUART_std.c **** * \version 3.0
   4:.\Generated_Source\PSoC5/USBUART_std.c **** *
   5:.\Generated_Source\PSoC5/USBUART_std.c **** * \brief
   6:.\Generated_Source\PSoC5/USBUART_std.c **** *  This file contains the USB Standard request handler.
   7:.\Generated_Source\PSoC5/USBUART_std.c **** *
   8:.\Generated_Source\PSoC5/USBUART_std.c **** ********************************************************************************
   9:.\Generated_Source\PSoC5/USBUART_std.c **** * \copyright
  10:.\Generated_Source\PSoC5/USBUART_std.c **** * Copyright 2008-2015, Cypress Semiconductor Corporation.  All rights reserved.
  11:.\Generated_Source\PSoC5/USBUART_std.c **** * You may use this file only in accordance with the license, terms, conditions,
  12:.\Generated_Source\PSoC5/USBUART_std.c **** * disclaimers, and limitations in the end user license agreement accompanying
  13:.\Generated_Source\PSoC5/USBUART_std.c **** * the software package with which this file was provided.
  14:.\Generated_Source\PSoC5/USBUART_std.c **** *******************************************************************************/
  15:.\Generated_Source\PSoC5/USBUART_std.c **** 
  16:.\Generated_Source\PSoC5/USBUART_std.c **** #include "USBUART_pvt.h"
  17:.\Generated_Source\PSoC5/USBUART_std.c **** 
  18:.\Generated_Source\PSoC5/USBUART_std.c **** /***************************************
  19:.\Generated_Source\PSoC5/USBUART_std.c **** *   Static data allocation
  20:.\Generated_Source\PSoC5/USBUART_std.c **** ***************************************/
  21:.\Generated_Source\PSoC5/USBUART_std.c **** 
  22:.\Generated_Source\PSoC5/USBUART_std.c **** #if defined(USBUART_ENABLE_FWSN_STRING)
  23:.\Generated_Source\PSoC5/USBUART_std.c ****     static volatile uint8* USBUART_fwSerialNumberStringDescriptor;
  24:.\Generated_Source\PSoC5/USBUART_std.c ****     static volatile uint8  USBUART_snStringConfirm = USBUART_FALSE;
  25:.\Generated_Source\PSoC5/USBUART_std.c **** #endif  /* (USBUART_ENABLE_FWSN_STRING) */
  26:.\Generated_Source\PSoC5/USBUART_std.c **** 
  27:.\Generated_Source\PSoC5/USBUART_std.c **** #if defined(USBUART_ENABLE_FWSN_STRING)
  28:.\Generated_Source\PSoC5/USBUART_std.c ****     /***************************************************************************
  29:.\Generated_Source\PSoC5/USBUART_std.c ****     * Function Name: USBUART_SerialNumString
  30:.\Generated_Source\PSoC5/USBUART_std.c ****     ************************************************************************//**
  31:.\Generated_Source\PSoC5/USBUART_std.c ****     *
ARM GAS  C:\Users\lenovo\AppData\Local\Temp\ccWMYq61.s 			page 2


  32:.\Generated_Source\PSoC5/USBUART_std.c ****     *  This function is available only when the User Call Back option in the 
  33:.\Generated_Source\PSoC5/USBUART_std.c ****     *  Serial Number String descriptor properties is selected. Application 
  34:.\Generated_Source\PSoC5/USBUART_std.c ****     *  firmware can provide the source of the USB device serial number string 
  35:.\Generated_Source\PSoC5/USBUART_std.c ****     *  descriptor during run time. The default string is used if the application 
  36:.\Generated_Source\PSoC5/USBUART_std.c ****     *  firmware does not use this function or sets the wrong string descriptor.
  37:.\Generated_Source\PSoC5/USBUART_std.c ****     *
  38:.\Generated_Source\PSoC5/USBUART_std.c ****     *  \param snString:  Pointer to the user-defined string descriptor. The 
  39:.\Generated_Source\PSoC5/USBUART_std.c ****     *  string descriptor should meet the Universal Serial Bus Specification 
  40:.\Generated_Source\PSoC5/USBUART_std.c ****     *  revision 2.0 chapter 9.6.7
  41:.\Generated_Source\PSoC5/USBUART_std.c ****     *  Offset|Size|Value|Description
  42:.\Generated_Source\PSoC5/USBUART_std.c ****     *  ------|----|------|---------------------------------
  43:.\Generated_Source\PSoC5/USBUART_std.c ****     *  0     |1   |N     |Size of this descriptor in bytes
  44:.\Generated_Source\PSoC5/USBUART_std.c ****     *  1     |1   |0x03  |STRING Descriptor Type
  45:.\Generated_Source\PSoC5/USBUART_std.c ****     *  2     |N-2 |Number|UNICODE encoded string
  46:.\Generated_Source\PSoC5/USBUART_std.c ****     *  
  47:.\Generated_Source\PSoC5/USBUART_std.c ****     * *For example:* uint8 snString[16]={0x0E,0x03,'F',0,'W',0,'S',0,'N',0,'0',0,'1',0};
  48:.\Generated_Source\PSoC5/USBUART_std.c ****     *
  49:.\Generated_Source\PSoC5/USBUART_std.c ****     * \reentrant
  50:.\Generated_Source\PSoC5/USBUART_std.c ****     *  No.
  51:.\Generated_Source\PSoC5/USBUART_std.c ****     *
  52:.\Generated_Source\PSoC5/USBUART_std.c ****     ***************************************************************************/
  53:.\Generated_Source\PSoC5/USBUART_std.c ****     void  USBUART_SerialNumString(uint8 snString[]) 
  54:.\Generated_Source\PSoC5/USBUART_std.c ****     {
  55:.\Generated_Source\PSoC5/USBUART_std.c ****         USBUART_snStringConfirm = USBUART_FALSE;
  56:.\Generated_Source\PSoC5/USBUART_std.c ****         
  57:.\Generated_Source\PSoC5/USBUART_std.c ****         if (snString != NULL)
  58:.\Generated_Source\PSoC5/USBUART_std.c ****         {
  59:.\Generated_Source\PSoC5/USBUART_std.c ****             /* Check descriptor validation */
  60:.\Generated_Source\PSoC5/USBUART_std.c ****             if ((snString[0u] > 1u) && (snString[1u] == USBUART_DESCR_STRING))
  61:.\Generated_Source\PSoC5/USBUART_std.c ****             {
  62:.\Generated_Source\PSoC5/USBUART_std.c ****                 USBUART_fwSerialNumberStringDescriptor = snString;
  63:.\Generated_Source\PSoC5/USBUART_std.c ****                 USBUART_snStringConfirm = USBUART_TRUE;
  64:.\Generated_Source\PSoC5/USBUART_std.c ****             }
  65:.\Generated_Source\PSoC5/USBUART_std.c ****         }
  66:.\Generated_Source\PSoC5/USBUART_std.c ****     }
  67:.\Generated_Source\PSoC5/USBUART_std.c **** #endif  /* USBUART_ENABLE_FWSN_STRING */
  68:.\Generated_Source\PSoC5/USBUART_std.c **** 
  69:.\Generated_Source\PSoC5/USBUART_std.c **** 
  70:.\Generated_Source\PSoC5/USBUART_std.c **** /*******************************************************************************
  71:.\Generated_Source\PSoC5/USBUART_std.c **** * Function Name: USBUART_HandleStandardRqst
  72:.\Generated_Source\PSoC5/USBUART_std.c **** ****************************************************************************//**
  73:.\Generated_Source\PSoC5/USBUART_std.c **** *
  74:.\Generated_Source\PSoC5/USBUART_std.c **** *  This Routine dispatches standard requests
  75:.\Generated_Source\PSoC5/USBUART_std.c **** *
  76:.\Generated_Source\PSoC5/USBUART_std.c **** *
  77:.\Generated_Source\PSoC5/USBUART_std.c **** * \return
  78:.\Generated_Source\PSoC5/USBUART_std.c **** *  TRUE if request handled.
  79:.\Generated_Source\PSoC5/USBUART_std.c **** *
  80:.\Generated_Source\PSoC5/USBUART_std.c **** * \reentrant
  81:.\Generated_Source\PSoC5/USBUART_std.c **** *  No.
  82:.\Generated_Source\PSoC5/USBUART_std.c **** *
  83:.\Generated_Source\PSoC5/USBUART_std.c **** *******************************************************************************/
  84:.\Generated_Source\PSoC5/USBUART_std.c **** uint8 USBUART_HandleStandardRqst(void) 
  85:.\Generated_Source\PSoC5/USBUART_std.c **** {
  86:.\Generated_Source\PSoC5/USBUART_std.c ****     uint8 requestHandled = USBUART_FALSE;
  87:.\Generated_Source\PSoC5/USBUART_std.c ****     uint8 interfaceNumber;
  88:.\Generated_Source\PSoC5/USBUART_std.c ****     uint8 configurationN;
ARM GAS  C:\Users\lenovo\AppData\Local\Temp\ccWMYq61.s 			page 3


  89:.\Generated_Source\PSoC5/USBUART_std.c ****     uint8 bmRequestType = USBUART_bmRequestTypeReg;
  90:.\Generated_Source\PSoC5/USBUART_std.c **** 
  91:.\Generated_Source\PSoC5/USBUART_std.c **** #if defined(USBUART_ENABLE_STRINGS)
  92:.\Generated_Source\PSoC5/USBUART_std.c ****     volatile uint8 *pStr = 0u;
  93:.\Generated_Source\PSoC5/USBUART_std.c ****     #if defined(USBUART_ENABLE_DESCRIPTOR_STRINGS)
  94:.\Generated_Source\PSoC5/USBUART_std.c ****         uint8 nStr;
  95:.\Generated_Source\PSoC5/USBUART_std.c ****         uint8 descrLength;
  96:.\Generated_Source\PSoC5/USBUART_std.c ****     #endif /* (USBUART_ENABLE_DESCRIPTOR_STRINGS) */
  97:.\Generated_Source\PSoC5/USBUART_std.c **** #endif /* (USBUART_ENABLE_STRINGS) */
  98:.\Generated_Source\PSoC5/USBUART_std.c ****     
  99:.\Generated_Source\PSoC5/USBUART_std.c ****     static volatile uint8 USBUART_tBuffer[USBUART_STATUS_LENGTH_MAX];
 100:.\Generated_Source\PSoC5/USBUART_std.c ****     const T_USBUART_LUT CYCODE *pTmp;
 101:.\Generated_Source\PSoC5/USBUART_std.c **** 
 102:.\Generated_Source\PSoC5/USBUART_std.c ****     USBUART_currentTD.count = 0u;
 103:.\Generated_Source\PSoC5/USBUART_std.c **** 
 104:.\Generated_Source\PSoC5/USBUART_std.c ****     if (USBUART_RQST_DIR_D2H == (bmRequestType & USBUART_RQST_DIR_MASK))
 105:.\Generated_Source\PSoC5/USBUART_std.c ****     {
 106:.\Generated_Source\PSoC5/USBUART_std.c ****         /* Control Read */
 107:.\Generated_Source\PSoC5/USBUART_std.c ****         switch (USBUART_bRequestReg)
 108:.\Generated_Source\PSoC5/USBUART_std.c ****         {
 109:.\Generated_Source\PSoC5/USBUART_std.c ****             case USBUART_GET_DESCRIPTOR:
 110:.\Generated_Source\PSoC5/USBUART_std.c ****                 if (USBUART_DESCR_DEVICE ==USBUART_wValueHiReg)
 111:.\Generated_Source\PSoC5/USBUART_std.c ****                 {
 112:.\Generated_Source\PSoC5/USBUART_std.c ****                     pTmp = USBUART_GetDeviceTablePtr();
 113:.\Generated_Source\PSoC5/USBUART_std.c ****                     USBUART_currentTD.pData = (volatile uint8 *)pTmp->p_list;
 114:.\Generated_Source\PSoC5/USBUART_std.c ****                     USBUART_currentTD.count = USBUART_DEVICE_DESCR_LENGTH;
 115:.\Generated_Source\PSoC5/USBUART_std.c ****                     
 116:.\Generated_Source\PSoC5/USBUART_std.c ****                     requestHandled  = USBUART_InitControlRead();
 117:.\Generated_Source\PSoC5/USBUART_std.c ****                 }
 118:.\Generated_Source\PSoC5/USBUART_std.c ****                 else if (USBUART_DESCR_CONFIG == USBUART_wValueHiReg)
 119:.\Generated_Source\PSoC5/USBUART_std.c ****                 {
 120:.\Generated_Source\PSoC5/USBUART_std.c ****                     pTmp = USBUART_GetConfigTablePtr((uint8) USBUART_wValueLoReg);
 121:.\Generated_Source\PSoC5/USBUART_std.c ****                     
 122:.\Generated_Source\PSoC5/USBUART_std.c ****                     /* Verify that requested descriptor exists */
 123:.\Generated_Source\PSoC5/USBUART_std.c ****                     if (pTmp != NULL)
 124:.\Generated_Source\PSoC5/USBUART_std.c ****                     {
 125:.\Generated_Source\PSoC5/USBUART_std.c ****                         USBUART_currentTD.pData = (volatile uint8 *)pTmp->p_list;
 126:.\Generated_Source\PSoC5/USBUART_std.c ****                         USBUART_currentTD.count = (uint16)((uint16)(USBUART_currentTD.pData)[USBUAR
 127:.\Generated_Source\PSoC5/USBUART_std.c ****                                                                             (USBUART_currentTD.pDat
 128:.\Generated_Source\PSoC5/USBUART_std.c ****                         requestHandled  = USBUART_InitControlRead();
 129:.\Generated_Source\PSoC5/USBUART_std.c ****                     }
 130:.\Generated_Source\PSoC5/USBUART_std.c ****                 }
 131:.\Generated_Source\PSoC5/USBUART_std.c ****                 
 132:.\Generated_Source\PSoC5/USBUART_std.c ****             #if(USBUART_BOS_ENABLE)
 133:.\Generated_Source\PSoC5/USBUART_std.c ****                 else if (USBUART_DESCR_BOS == USBUART_wValueHiReg)
 134:.\Generated_Source\PSoC5/USBUART_std.c ****                 {
 135:.\Generated_Source\PSoC5/USBUART_std.c ****                     pTmp = USBUART_GetBOSPtr();
 136:.\Generated_Source\PSoC5/USBUART_std.c ****                     
 137:.\Generated_Source\PSoC5/USBUART_std.c ****                     /* Verify that requested descriptor exists */
 138:.\Generated_Source\PSoC5/USBUART_std.c ****                     if (pTmp != NULL)
 139:.\Generated_Source\PSoC5/USBUART_std.c ****                     {
 140:.\Generated_Source\PSoC5/USBUART_std.c ****                         USBUART_currentTD.pData = (volatile uint8 *)pTmp;
 141:.\Generated_Source\PSoC5/USBUART_std.c ****                         USBUART_currentTD.count = ((uint16)((uint16)(USBUART_currentTD.pData)[USBUA
 142:.\Generated_Source\PSoC5/USBUART_std.c ****                                                                              (USBUART_currentTD.pDa
 143:.\Generated_Source\PSoC5/USBUART_std.c ****                         requestHandled  = USBUART_InitControlRead();
 144:.\Generated_Source\PSoC5/USBUART_std.c ****                     }
 145:.\Generated_Source\PSoC5/USBUART_std.c ****                 }
ARM GAS  C:\Users\lenovo\AppData\Local\Temp\ccWMYq61.s 			page 4


 146:.\Generated_Source\PSoC5/USBUART_std.c ****             #endif /*(USBUART_BOS_ENABLE)*/
 147:.\Generated_Source\PSoC5/USBUART_std.c ****             
 148:.\Generated_Source\PSoC5/USBUART_std.c ****             #if defined(USBUART_ENABLE_STRINGS)
 149:.\Generated_Source\PSoC5/USBUART_std.c ****                 else if (USBUART_DESCR_STRING == USBUART_wValueHiReg)
 150:.\Generated_Source\PSoC5/USBUART_std.c ****                 {
 151:.\Generated_Source\PSoC5/USBUART_std.c ****                 /* Descriptor Strings */
 152:.\Generated_Source\PSoC5/USBUART_std.c ****                 #if defined(USBUART_ENABLE_DESCRIPTOR_STRINGS)
 153:.\Generated_Source\PSoC5/USBUART_std.c ****                     nStr = 0u;
 154:.\Generated_Source\PSoC5/USBUART_std.c ****                     pStr = (volatile uint8 *) &USBUART_STRING_DESCRIPTORS[0u];
 155:.\Generated_Source\PSoC5/USBUART_std.c ****                     
 156:.\Generated_Source\PSoC5/USBUART_std.c ****                     while ((USBUART_wValueLoReg > nStr) && (*pStr != 0u))
 157:.\Generated_Source\PSoC5/USBUART_std.c ****                     {
 158:.\Generated_Source\PSoC5/USBUART_std.c ****                         /* Read descriptor length from 1st byte */
 159:.\Generated_Source\PSoC5/USBUART_std.c ****                         descrLength = *pStr;
 160:.\Generated_Source\PSoC5/USBUART_std.c ****                         /* Move to next string descriptor */
 161:.\Generated_Source\PSoC5/USBUART_std.c ****                         pStr = &pStr[descrLength];
 162:.\Generated_Source\PSoC5/USBUART_std.c ****                         nStr++;
 163:.\Generated_Source\PSoC5/USBUART_std.c ****                     }
 164:.\Generated_Source\PSoC5/USBUART_std.c ****                 #endif /* (USBUART_ENABLE_DESCRIPTOR_STRINGS) */
 165:.\Generated_Source\PSoC5/USBUART_std.c ****                 
 166:.\Generated_Source\PSoC5/USBUART_std.c ****                 /* Microsoft OS String */
 167:.\Generated_Source\PSoC5/USBUART_std.c ****                 #if defined(USBUART_ENABLE_MSOS_STRING)
 168:.\Generated_Source\PSoC5/USBUART_std.c ****                     if (USBUART_STRING_MSOS == USBUART_wValueLoReg)
 169:.\Generated_Source\PSoC5/USBUART_std.c ****                     {
 170:.\Generated_Source\PSoC5/USBUART_std.c ****                         pStr = (volatile uint8 *)& USBUART_MSOS_DESCRIPTOR[0u];
 171:.\Generated_Source\PSoC5/USBUART_std.c ****                     }
 172:.\Generated_Source\PSoC5/USBUART_std.c ****                 #endif /* (USBUART_ENABLE_MSOS_STRING) */
 173:.\Generated_Source\PSoC5/USBUART_std.c ****                 
 174:.\Generated_Source\PSoC5/USBUART_std.c ****                 /* SN string */
 175:.\Generated_Source\PSoC5/USBUART_std.c ****                 #if defined(USBUART_ENABLE_SN_STRING)
 176:.\Generated_Source\PSoC5/USBUART_std.c ****                     if ((USBUART_wValueLoReg != 0u) && 
 177:.\Generated_Source\PSoC5/USBUART_std.c ****                         (USBUART_wValueLoReg == USBUART_DEVICE0_DESCR[USBUART_DEVICE_DESCR_SN_SHIFT
 178:.\Generated_Source\PSoC5/USBUART_std.c ****                     {
 179:.\Generated_Source\PSoC5/USBUART_std.c ****                     #if defined(USBUART_ENABLE_IDSN_STRING)
 180:.\Generated_Source\PSoC5/USBUART_std.c ****                         /* Read DIE ID and generate string descriptor in RAM */
 181:.\Generated_Source\PSoC5/USBUART_std.c ****                         USBUART_ReadDieID(USBUART_idSerialNumberStringDescriptor);
 182:.\Generated_Source\PSoC5/USBUART_std.c ****                         pStr = USBUART_idSerialNumberStringDescriptor;
 183:.\Generated_Source\PSoC5/USBUART_std.c ****                     #elif defined(USBUART_ENABLE_FWSN_STRING)
 184:.\Generated_Source\PSoC5/USBUART_std.c ****                         
 185:.\Generated_Source\PSoC5/USBUART_std.c ****                         if(USBUART_snStringConfirm != USBUART_FALSE)
 186:.\Generated_Source\PSoC5/USBUART_std.c ****                         {
 187:.\Generated_Source\PSoC5/USBUART_std.c ****                             pStr = USBUART_fwSerialNumberStringDescriptor;
 188:.\Generated_Source\PSoC5/USBUART_std.c ****                         }
 189:.\Generated_Source\PSoC5/USBUART_std.c ****                         else
 190:.\Generated_Source\PSoC5/USBUART_std.c ****                         {
 191:.\Generated_Source\PSoC5/USBUART_std.c ****                             pStr = (volatile uint8 *)&USBUART_SN_STRING_DESCRIPTOR[0u];
 192:.\Generated_Source\PSoC5/USBUART_std.c ****                         }
 193:.\Generated_Source\PSoC5/USBUART_std.c ****                     #else
 194:.\Generated_Source\PSoC5/USBUART_std.c ****                         pStr = (volatile uint8 *)&USBUART_SN_STRING_DESCRIPTOR[0u];
 195:.\Generated_Source\PSoC5/USBUART_std.c ****                     #endif  /* (USBUART_ENABLE_IDSN_STRING) */
 196:.\Generated_Source\PSoC5/USBUART_std.c ****                     }
 197:.\Generated_Source\PSoC5/USBUART_std.c ****                 #endif /* (USBUART_ENABLE_SN_STRING) */
 198:.\Generated_Source\PSoC5/USBUART_std.c ****                 
 199:.\Generated_Source\PSoC5/USBUART_std.c ****                     if (*pStr != 0u)
 200:.\Generated_Source\PSoC5/USBUART_std.c ****                     {
 201:.\Generated_Source\PSoC5/USBUART_std.c ****                         USBUART_currentTD.count = *pStr;
 202:.\Generated_Source\PSoC5/USBUART_std.c ****                         USBUART_currentTD.pData = pStr;
ARM GAS  C:\Users\lenovo\AppData\Local\Temp\ccWMYq61.s 			page 5


 203:.\Generated_Source\PSoC5/USBUART_std.c ****                         requestHandled  = USBUART_InitControlRead();
 204:.\Generated_Source\PSoC5/USBUART_std.c ****                     }
 205:.\Generated_Source\PSoC5/USBUART_std.c ****                 }
 206:.\Generated_Source\PSoC5/USBUART_std.c ****             #endif /*  USBUART_ENABLE_STRINGS */
 207:.\Generated_Source\PSoC5/USBUART_std.c ****                 else
 208:.\Generated_Source\PSoC5/USBUART_std.c ****                 {
 209:.\Generated_Source\PSoC5/USBUART_std.c ****                     requestHandled = USBUART_DispatchClassRqst();
 210:.\Generated_Source\PSoC5/USBUART_std.c ****                 }
 211:.\Generated_Source\PSoC5/USBUART_std.c ****                 break;
 212:.\Generated_Source\PSoC5/USBUART_std.c ****                 
 213:.\Generated_Source\PSoC5/USBUART_std.c ****             case USBUART_GET_STATUS:
 214:.\Generated_Source\PSoC5/USBUART_std.c ****                 switch (bmRequestType & USBUART_RQST_RCPT_MASK)
 215:.\Generated_Source\PSoC5/USBUART_std.c ****                 {
 216:.\Generated_Source\PSoC5/USBUART_std.c ****                     case USBUART_RQST_RCPT_EP:
 217:.\Generated_Source\PSoC5/USBUART_std.c ****                         USBUART_currentTD.count = USBUART_EP_STATUS_LENGTH;
 218:.\Generated_Source\PSoC5/USBUART_std.c ****                         USBUART_tBuffer[0u]     = USBUART_EP[USBUART_wIndexLoReg & USBUART_DIR_UNUS
 219:.\Generated_Source\PSoC5/USBUART_std.c ****                         USBUART_tBuffer[1u]     = 0u;
 220:.\Generated_Source\PSoC5/USBUART_std.c ****                         USBUART_currentTD.pData = &USBUART_tBuffer[0u];
 221:.\Generated_Source\PSoC5/USBUART_std.c ****                         
 222:.\Generated_Source\PSoC5/USBUART_std.c ****                         requestHandled  = USBUART_InitControlRead();
 223:.\Generated_Source\PSoC5/USBUART_std.c ****                         break;
 224:.\Generated_Source\PSoC5/USBUART_std.c ****                     case USBUART_RQST_RCPT_DEV:
 225:.\Generated_Source\PSoC5/USBUART_std.c ****                         USBUART_currentTD.count = USBUART_DEVICE_STATUS_LENGTH;
 226:.\Generated_Source\PSoC5/USBUART_std.c ****                         USBUART_tBuffer[0u]     = USBUART_deviceStatus;
 227:.\Generated_Source\PSoC5/USBUART_std.c ****                         USBUART_tBuffer[1u]     = 0u;
 228:.\Generated_Source\PSoC5/USBUART_std.c ****                         USBUART_currentTD.pData = &USBUART_tBuffer[0u];
 229:.\Generated_Source\PSoC5/USBUART_std.c ****                         
 230:.\Generated_Source\PSoC5/USBUART_std.c ****                         requestHandled  = USBUART_InitControlRead();
 231:.\Generated_Source\PSoC5/USBUART_std.c ****                         break;
 232:.\Generated_Source\PSoC5/USBUART_std.c ****                     default:    /* requestHandled is initialized as FALSE by default */
 233:.\Generated_Source\PSoC5/USBUART_std.c ****                         break;
 234:.\Generated_Source\PSoC5/USBUART_std.c ****                 }
 235:.\Generated_Source\PSoC5/USBUART_std.c ****                 break;
 236:.\Generated_Source\PSoC5/USBUART_std.c ****                 
 237:.\Generated_Source\PSoC5/USBUART_std.c ****             case USBUART_GET_CONFIGURATION:
 238:.\Generated_Source\PSoC5/USBUART_std.c ****                 USBUART_currentTD.count = 1u;
 239:.\Generated_Source\PSoC5/USBUART_std.c ****                 USBUART_currentTD.pData = (volatile uint8 *) &USBUART_configuration;
 240:.\Generated_Source\PSoC5/USBUART_std.c ****                 requestHandled  = USBUART_InitControlRead();
 241:.\Generated_Source\PSoC5/USBUART_std.c ****                 break;
 242:.\Generated_Source\PSoC5/USBUART_std.c ****                 
 243:.\Generated_Source\PSoC5/USBUART_std.c ****             case USBUART_GET_INTERFACE:
 244:.\Generated_Source\PSoC5/USBUART_std.c ****                 USBUART_currentTD.count = 1u;
 245:.\Generated_Source\PSoC5/USBUART_std.c ****                 USBUART_currentTD.pData = (volatile uint8 *) &USBUART_interfaceSetting[USBUART_wInd
 246:.\Generated_Source\PSoC5/USBUART_std.c ****                 requestHandled  = USBUART_InitControlRead();
 247:.\Generated_Source\PSoC5/USBUART_std.c ****                 break;
 248:.\Generated_Source\PSoC5/USBUART_std.c ****                 
 249:.\Generated_Source\PSoC5/USBUART_std.c ****             default: /* requestHandled is initialized as FALSE by default */
 250:.\Generated_Source\PSoC5/USBUART_std.c ****                 break;
 251:.\Generated_Source\PSoC5/USBUART_std.c ****         }
 252:.\Generated_Source\PSoC5/USBUART_std.c ****     }
 253:.\Generated_Source\PSoC5/USBUART_std.c ****     else
 254:.\Generated_Source\PSoC5/USBUART_std.c ****     {
 255:.\Generated_Source\PSoC5/USBUART_std.c ****         /* Control Write */
 256:.\Generated_Source\PSoC5/USBUART_std.c ****         switch (USBUART_bRequestReg)
 257:.\Generated_Source\PSoC5/USBUART_std.c ****         {
 258:.\Generated_Source\PSoC5/USBUART_std.c ****             case USBUART_SET_ADDRESS:
 259:.\Generated_Source\PSoC5/USBUART_std.c ****                 /* Store address to be set in USBUART_NoDataControlStatusStage(). */
ARM GAS  C:\Users\lenovo\AppData\Local\Temp\ccWMYq61.s 			page 6


 260:.\Generated_Source\PSoC5/USBUART_std.c ****                 USBUART_deviceAddress = (uint8) USBUART_wValueLoReg;
 261:.\Generated_Source\PSoC5/USBUART_std.c ****                 requestHandled = USBUART_InitNoDataControlTransfer();
 262:.\Generated_Source\PSoC5/USBUART_std.c ****                 break;
 263:.\Generated_Source\PSoC5/USBUART_std.c ****                 
 264:.\Generated_Source\PSoC5/USBUART_std.c ****             case USBUART_SET_CONFIGURATION:
 265:.\Generated_Source\PSoC5/USBUART_std.c ****                 configurationN = USBUART_wValueLoReg;
 266:.\Generated_Source\PSoC5/USBUART_std.c ****                 
 267:.\Generated_Source\PSoC5/USBUART_std.c ****                 /* Verify that configuration descriptor exists */
 268:.\Generated_Source\PSoC5/USBUART_std.c ****                 if(configurationN > 0u)
 269:.\Generated_Source\PSoC5/USBUART_std.c ****                 {
 270:.\Generated_Source\PSoC5/USBUART_std.c ****                     pTmp = USBUART_GetConfigTablePtr((uint8) configurationN - 1u);
 271:.\Generated_Source\PSoC5/USBUART_std.c ****                 }
 272:.\Generated_Source\PSoC5/USBUART_std.c ****                 
 273:.\Generated_Source\PSoC5/USBUART_std.c ****                 /* Responds with a Request Error when configuration number is invalid */
 274:.\Generated_Source\PSoC5/USBUART_std.c ****                 if (((configurationN > 0u) && (pTmp != NULL)) || (configurationN == 0u))
 275:.\Generated_Source\PSoC5/USBUART_std.c ****                 {
 276:.\Generated_Source\PSoC5/USBUART_std.c ****                     /* Set new configuration if it has been changed */
 277:.\Generated_Source\PSoC5/USBUART_std.c ****                     if(configurationN != USBUART_configuration)
 278:.\Generated_Source\PSoC5/USBUART_std.c ****                     {
 279:.\Generated_Source\PSoC5/USBUART_std.c ****                         USBUART_configuration = (uint8) configurationN;
 280:.\Generated_Source\PSoC5/USBUART_std.c ****                         USBUART_configurationChanged = USBUART_TRUE;
 281:.\Generated_Source\PSoC5/USBUART_std.c ****                         USBUART_Config(USBUART_TRUE);
 282:.\Generated_Source\PSoC5/USBUART_std.c ****                     }
 283:.\Generated_Source\PSoC5/USBUART_std.c ****                     requestHandled = USBUART_InitNoDataControlTransfer();
 284:.\Generated_Source\PSoC5/USBUART_std.c ****                 }
 285:.\Generated_Source\PSoC5/USBUART_std.c ****                 break;
 286:.\Generated_Source\PSoC5/USBUART_std.c ****                 
 287:.\Generated_Source\PSoC5/USBUART_std.c ****             case USBUART_SET_INTERFACE:
 288:.\Generated_Source\PSoC5/USBUART_std.c ****                 if (0u != USBUART_ValidateAlternateSetting())
 289:.\Generated_Source\PSoC5/USBUART_std.c ****                 {
 290:.\Generated_Source\PSoC5/USBUART_std.c ****                     /* Get interface number from the request. */
 291:.\Generated_Source\PSoC5/USBUART_std.c ****                     interfaceNumber = USBUART_wIndexLoReg;
 292:.\Generated_Source\PSoC5/USBUART_std.c ****                     USBUART_interfaceNumber = (uint8) USBUART_wIndexLoReg;
 293:.\Generated_Source\PSoC5/USBUART_std.c ****                      
 294:.\Generated_Source\PSoC5/USBUART_std.c ****                     /* Check if alternate settings is changed for interface. */
 295:.\Generated_Source\PSoC5/USBUART_std.c ****                     if (USBUART_interfaceSettingLast[interfaceNumber] != USBUART_interfaceSetting[i
 296:.\Generated_Source\PSoC5/USBUART_std.c ****                     {
 297:.\Generated_Source\PSoC5/USBUART_std.c ****                         USBUART_configurationChanged = USBUART_TRUE;
 298:.\Generated_Source\PSoC5/USBUART_std.c ****                     
 299:.\Generated_Source\PSoC5/USBUART_std.c ****                         /* Change alternate setting for the endpoints. */
 300:.\Generated_Source\PSoC5/USBUART_std.c ****                     #if (USBUART_EP_MANAGEMENT_MANUAL && USBUART_EP_ALLOC_DYNAMIC)
 301:.\Generated_Source\PSoC5/USBUART_std.c ****                         USBUART_Config(USBUART_FALSE);
 302:.\Generated_Source\PSoC5/USBUART_std.c ****                     #else
 303:.\Generated_Source\PSoC5/USBUART_std.c ****                         USBUART_ConfigAltChanged();
 304:.\Generated_Source\PSoC5/USBUART_std.c ****                     #endif /* (USBUART_EP_MANAGEMENT_MANUAL && USBUART_EP_ALLOC_DYNAMIC) */
 305:.\Generated_Source\PSoC5/USBUART_std.c ****                     }
 306:.\Generated_Source\PSoC5/USBUART_std.c ****                     
 307:.\Generated_Source\PSoC5/USBUART_std.c ****                     requestHandled = USBUART_InitNoDataControlTransfer();
 308:.\Generated_Source\PSoC5/USBUART_std.c ****                 }
 309:.\Generated_Source\PSoC5/USBUART_std.c ****                 break;
 310:.\Generated_Source\PSoC5/USBUART_std.c ****                 
 311:.\Generated_Source\PSoC5/USBUART_std.c ****             case USBUART_CLEAR_FEATURE:
 312:.\Generated_Source\PSoC5/USBUART_std.c ****                 switch (bmRequestType & USBUART_RQST_RCPT_MASK)
 313:.\Generated_Source\PSoC5/USBUART_std.c ****                 {
 314:.\Generated_Source\PSoC5/USBUART_std.c ****                     case USBUART_RQST_RCPT_EP:
 315:.\Generated_Source\PSoC5/USBUART_std.c ****                         if (USBUART_wValueLoReg == USBUART_ENDPOINT_HALT)
 316:.\Generated_Source\PSoC5/USBUART_std.c ****                         {
ARM GAS  C:\Users\lenovo\AppData\Local\Temp\ccWMYq61.s 			page 7


 317:.\Generated_Source\PSoC5/USBUART_std.c ****                             requestHandled = USBUART_ClearEndpointHalt();
 318:.\Generated_Source\PSoC5/USBUART_std.c ****                         }
 319:.\Generated_Source\PSoC5/USBUART_std.c ****                         break;
 320:.\Generated_Source\PSoC5/USBUART_std.c ****                     case USBUART_RQST_RCPT_DEV:
 321:.\Generated_Source\PSoC5/USBUART_std.c ****                         /* Clear device REMOTE_WAKEUP */
 322:.\Generated_Source\PSoC5/USBUART_std.c ****                         if (USBUART_wValueLoReg == USBUART_DEVICE_REMOTE_WAKEUP)
 323:.\Generated_Source\PSoC5/USBUART_std.c ****                         {
 324:.\Generated_Source\PSoC5/USBUART_std.c ****                             USBUART_deviceStatus &= (uint8)~USBUART_DEVICE_STATUS_REMOTE_WAKEUP;
 325:.\Generated_Source\PSoC5/USBUART_std.c ****                             requestHandled = USBUART_InitNoDataControlTransfer();
 326:.\Generated_Source\PSoC5/USBUART_std.c ****                         }
 327:.\Generated_Source\PSoC5/USBUART_std.c ****                         break;
 328:.\Generated_Source\PSoC5/USBUART_std.c ****                     case USBUART_RQST_RCPT_IFC:
 329:.\Generated_Source\PSoC5/USBUART_std.c ****                         /* Validate interfaceNumber */
 330:.\Generated_Source\PSoC5/USBUART_std.c ****                         if (USBUART_wIndexLoReg < USBUART_MAX_INTERFACES_NUMBER)
 331:.\Generated_Source\PSoC5/USBUART_std.c ****                         {
 332:.\Generated_Source\PSoC5/USBUART_std.c ****                             USBUART_interfaceStatus[USBUART_wIndexLoReg] &= (uint8) ~USBUART_wValue
 333:.\Generated_Source\PSoC5/USBUART_std.c ****                             requestHandled = USBUART_InitNoDataControlTransfer();
 334:.\Generated_Source\PSoC5/USBUART_std.c ****                         }
 335:.\Generated_Source\PSoC5/USBUART_std.c ****                         break;
 336:.\Generated_Source\PSoC5/USBUART_std.c ****                     default:    /* requestHandled is initialized as FALSE by default */
 337:.\Generated_Source\PSoC5/USBUART_std.c ****                         break;
 338:.\Generated_Source\PSoC5/USBUART_std.c ****                 }
 339:.\Generated_Source\PSoC5/USBUART_std.c ****                 break;
 340:.\Generated_Source\PSoC5/USBUART_std.c ****                 
 341:.\Generated_Source\PSoC5/USBUART_std.c ****             case USBUART_SET_FEATURE:
 342:.\Generated_Source\PSoC5/USBUART_std.c ****                 switch (bmRequestType & USBUART_RQST_RCPT_MASK)
 343:.\Generated_Source\PSoC5/USBUART_std.c ****                 {
 344:.\Generated_Source\PSoC5/USBUART_std.c ****                     case USBUART_RQST_RCPT_EP:
 345:.\Generated_Source\PSoC5/USBUART_std.c ****                         if (USBUART_wValueLoReg == USBUART_ENDPOINT_HALT)
 346:.\Generated_Source\PSoC5/USBUART_std.c ****                         {
 347:.\Generated_Source\PSoC5/USBUART_std.c ****                             requestHandled = USBUART_SetEndpointHalt();
 348:.\Generated_Source\PSoC5/USBUART_std.c ****                         }
 349:.\Generated_Source\PSoC5/USBUART_std.c ****                         break;
 350:.\Generated_Source\PSoC5/USBUART_std.c ****                         
 351:.\Generated_Source\PSoC5/USBUART_std.c ****                     case USBUART_RQST_RCPT_DEV:
 352:.\Generated_Source\PSoC5/USBUART_std.c ****                         /* Set device REMOTE_WAKEUP */
 353:.\Generated_Source\PSoC5/USBUART_std.c ****                         if (USBUART_wValueLoReg == USBUART_DEVICE_REMOTE_WAKEUP)
 354:.\Generated_Source\PSoC5/USBUART_std.c ****                         {
 355:.\Generated_Source\PSoC5/USBUART_std.c ****                             USBUART_deviceStatus |= USBUART_DEVICE_STATUS_REMOTE_WAKEUP;
 356:.\Generated_Source\PSoC5/USBUART_std.c ****                             requestHandled = USBUART_InitNoDataControlTransfer();
 357:.\Generated_Source\PSoC5/USBUART_std.c ****                         }
 358:.\Generated_Source\PSoC5/USBUART_std.c ****                         break;
 359:.\Generated_Source\PSoC5/USBUART_std.c ****                         
 360:.\Generated_Source\PSoC5/USBUART_std.c ****                     case USBUART_RQST_RCPT_IFC:
 361:.\Generated_Source\PSoC5/USBUART_std.c ****                         /* Validate interfaceNumber */
 362:.\Generated_Source\PSoC5/USBUART_std.c ****                         if (USBUART_wIndexLoReg < USBUART_MAX_INTERFACES_NUMBER)
 363:.\Generated_Source\PSoC5/USBUART_std.c ****                         {
 364:.\Generated_Source\PSoC5/USBUART_std.c ****                             USBUART_interfaceStatus[USBUART_wIndexLoReg] &= (uint8) ~USBUART_wValue
 365:.\Generated_Source\PSoC5/USBUART_std.c ****                             requestHandled = USBUART_InitNoDataControlTransfer();
 366:.\Generated_Source\PSoC5/USBUART_std.c ****                         }
 367:.\Generated_Source\PSoC5/USBUART_std.c ****                         break;
 368:.\Generated_Source\PSoC5/USBUART_std.c ****                     
 369:.\Generated_Source\PSoC5/USBUART_std.c ****                     default:    /* requestHandled is initialized as FALSE by default */
 370:.\Generated_Source\PSoC5/USBUART_std.c ****                         break;
 371:.\Generated_Source\PSoC5/USBUART_std.c ****                 }
 372:.\Generated_Source\PSoC5/USBUART_std.c ****                 break;
 373:.\Generated_Source\PSoC5/USBUART_std.c ****                 
ARM GAS  C:\Users\lenovo\AppData\Local\Temp\ccWMYq61.s 			page 8


 374:.\Generated_Source\PSoC5/USBUART_std.c ****             default:    /* requestHandled is initialized as FALSE by default */
 375:.\Generated_Source\PSoC5/USBUART_std.c ****                 break;
 376:.\Generated_Source\PSoC5/USBUART_std.c ****         }
 377:.\Generated_Source\PSoC5/USBUART_std.c ****     }
 378:.\Generated_Source\PSoC5/USBUART_std.c ****     
 379:.\Generated_Source\PSoC5/USBUART_std.c ****     return (requestHandled);
 380:.\Generated_Source\PSoC5/USBUART_std.c **** }
 381:.\Generated_Source\PSoC5/USBUART_std.c **** 
 382:.\Generated_Source\PSoC5/USBUART_std.c **** 
 383:.\Generated_Source\PSoC5/USBUART_std.c **** #if defined(USBUART_ENABLE_IDSN_STRING)
 384:.\Generated_Source\PSoC5/USBUART_std.c ****     /***************************************************************************
 385:.\Generated_Source\PSoC5/USBUART_std.c ****     * Function Name: USBUART_ReadDieID
 386:.\Generated_Source\PSoC5/USBUART_std.c ****     ************************************************************************//**
 387:.\Generated_Source\PSoC5/USBUART_std.c ****     *
 388:.\Generated_Source\PSoC5/USBUART_std.c ****     *  This routine read Die ID and generate Serial Number string descriptor.
 389:.\Generated_Source\PSoC5/USBUART_std.c ****     *
 390:.\Generated_Source\PSoC5/USBUART_std.c ****     *  \param descr:  pointer on string descriptor. This string size has to be equal or
 391:.\Generated_Source\PSoC5/USBUART_std.c ****     *          greater than USBUART_IDSN_DESCR_LENGTH.
 392:.\Generated_Source\PSoC5/USBUART_std.c ****     *
 393:.\Generated_Source\PSoC5/USBUART_std.c ****     *
 394:.\Generated_Source\PSoC5/USBUART_std.c ****     * \reentrant
 395:.\Generated_Source\PSoC5/USBUART_std.c ****     *  No.
 396:.\Generated_Source\PSoC5/USBUART_std.c ****     *
 397:.\Generated_Source\PSoC5/USBUART_std.c ****     ***************************************************************************/
 398:.\Generated_Source\PSoC5/USBUART_std.c ****     void USBUART_ReadDieID(uint8 descr[]) 
 399:.\Generated_Source\PSoC5/USBUART_std.c ****     {
  27              		.loc 1 399 0
  28              		.cfi_startproc
  29              		@ args = 0, pretend = 0, frame = 32
  30              		@ frame_needed = 0, uses_anonymous_args = 0
  31              	.LVL0:
  32 0000 70B5     		push	{r4, r5, r6, lr}
  33              		.cfi_def_cfa_offset 16
  34              		.cfi_offset 4, -16
  35              		.cfi_offset 5, -12
  36              		.cfi_offset 6, -8
  37              		.cfi_offset 14, -4
  38 0002 88B0     		sub	sp, sp, #32
  39              		.cfi_def_cfa_offset 48
  40 0004 0546     		mov	r5, r0
 400:.\Generated_Source\PSoC5/USBUART_std.c ****         const char8 CYCODE hex[] = "0123456789ABCDEF";
  41              		.loc 1 400 0
  42 0006 03AC     		add	r4, sp, #12
  43 0008 174E     		ldr	r6, .L6
  44 000a 0FCE     		ldmia	r6!, {r0, r1, r2, r3}
  45              	.LVL1:
  46 000c 0FC4     		stmia	r4!, {r0, r1, r2, r3}
  47 000e 3368     		ldr	r3, [r6]
  48 0010 2370     		strb	r3, [r4]
  49              	.LVL2:
 401:.\Generated_Source\PSoC5/USBUART_std.c ****         uint8 i;
 402:.\Generated_Source\PSoC5/USBUART_std.c ****         uint8 j = 0u;
 403:.\Generated_Source\PSoC5/USBUART_std.c ****         uint8 uniqueId[8u];
 404:.\Generated_Source\PSoC5/USBUART_std.c **** 
 405:.\Generated_Source\PSoC5/USBUART_std.c ****         if (NULL != descr)
  50              		.loc 1 405 0
  51 0012 35B3     		cbz	r5, .L1
ARM GAS  C:\Users\lenovo\AppData\Local\Temp\ccWMYq61.s 			page 9


 406:.\Generated_Source\PSoC5/USBUART_std.c ****         {
 407:.\Generated_Source\PSoC5/USBUART_std.c ****             /* Initialize descriptor header. */
 408:.\Generated_Source\PSoC5/USBUART_std.c ****             descr[0u] = USBUART_IDSN_DESCR_LENGTH;
  52              		.loc 1 408 0
  53 0014 2223     		movs	r3, #34
  54 0016 2B70     		strb	r3, [r5]
 409:.\Generated_Source\PSoC5/USBUART_std.c ****             descr[1u] = USBUART_DESCR_STRING;
  55              		.loc 1 409 0
  56 0018 0323     		movs	r3, #3
  57 001a 6B70     		strb	r3, [r5, #1]
 410:.\Generated_Source\PSoC5/USBUART_std.c ****             
 411:.\Generated_Source\PSoC5/USBUART_std.c ****             /* Unique ID size is 8 bytes. */
 412:.\Generated_Source\PSoC5/USBUART_std.c ****             CyGetUniqueId((uint32 *) uniqueId);
  58              		.loc 1 412 0
  59 001c 01A8     		add	r0, sp, #4
  60 001e FFF7FEFF 		bl	CyGetUniqueId
  61              	.LVL3:
 402:.\Generated_Source\PSoC5/USBUART_std.c ****         uint8 uniqueId[8u];
  62              		.loc 1 402 0
  63 0022 0024     		movs	r4, #0
 413:.\Generated_Source\PSoC5/USBUART_std.c **** 
 414:.\Generated_Source\PSoC5/USBUART_std.c ****             /* Fill descriptor with unique device ID. */
 415:.\Generated_Source\PSoC5/USBUART_std.c ****             for (i = 2u; i < USBUART_IDSN_DESCR_LENGTH; i += 4u)
  64              		.loc 1 415 0
  65 0024 0223     		movs	r3, #2
  66 0026 1AE0     		b	.L3
  67              	.LVL4:
  68              	.L4:
 416:.\Generated_Source\PSoC5/USBUART_std.c ****             {
 417:.\Generated_Source\PSoC5/USBUART_std.c ****                 descr[i]      = (uint8) hex[(uniqueId[j] >> 4u)];
  69              		.loc 1 417 0 discriminator 3
  70 0028 08AA     		add	r2, sp, #32
  71 002a 2244     		add	r2, r2, r4
  72 002c 12F81C2C 		ldrb	r2, [r2, #-28]	@ zero_extendqisi2
  73 0030 08A9     		add	r1, sp, #32
  74 0032 01EB1211 		add	r1, r1, r2, lsr #4
  75 0036 11F8141C 		ldrb	r1, [r1, #-20]	@ zero_extendqisi2
  76 003a E954     		strb	r1, [r5, r3]
 418:.\Generated_Source\PSoC5/USBUART_std.c ****                 descr[i + 1u] = 0u;
  77              		.loc 1 418 0 discriminator 3
  78 003c 581C     		adds	r0, r3, #1
  79 003e 0021     		movs	r1, #0
  80 0040 2954     		strb	r1, [r5, r0]
 419:.\Generated_Source\PSoC5/USBUART_std.c ****                 descr[i + 2u] = (uint8) hex[(uniqueId[j] & 0x0Fu)];
  81              		.loc 1 419 0 discriminator 3
  82 0042 981C     		adds	r0, r3, #2
  83 0044 02F00F02 		and	r2, r2, #15
  84 0048 08AE     		add	r6, sp, #32
  85 004a 3244     		add	r2, r2, r6
  86 004c 12F8142C 		ldrb	r2, [r2, #-20]	@ zero_extendqisi2
  87 0050 2A54     		strb	r2, [r5, r0]
 420:.\Generated_Source\PSoC5/USBUART_std.c ****                 descr[i + 3u] = 0u;
  88              		.loc 1 420 0 discriminator 3
  89 0052 DA1C     		adds	r2, r3, #3
  90 0054 A954     		strb	r1, [r5, r2]
 421:.\Generated_Source\PSoC5/USBUART_std.c ****                 ++j;
  91              		.loc 1 421 0 discriminator 3
ARM GAS  C:\Users\lenovo\AppData\Local\Temp\ccWMYq61.s 			page 10


  92 0056 0134     		adds	r4, r4, #1
  93              	.LVL5:
  94 0058 E4B2     		uxtb	r4, r4
  95              	.LVL6:
 415:.\Generated_Source\PSoC5/USBUART_std.c ****             {
  96              		.loc 1 415 0 discriminator 3
  97 005a 0433     		adds	r3, r3, #4
  98              	.LVL7:
  99 005c DBB2     		uxtb	r3, r3
 100              	.LVL8:
 101              	.L3:
 415:.\Generated_Source\PSoC5/USBUART_std.c ****             {
 102              		.loc 1 415 0 is_stmt 0 discriminator 1
 103 005e 212B     		cmp	r3, #33
 104 0060 E2D9     		bls	.L4
 105              	.LVL9:
 106              	.L1:
 422:.\Generated_Source\PSoC5/USBUART_std.c ****             }
 423:.\Generated_Source\PSoC5/USBUART_std.c ****         }
 424:.\Generated_Source\PSoC5/USBUART_std.c ****     }
 107              		.loc 1 424 0 is_stmt 1
 108 0062 08B0     		add	sp, sp, #32
 109              		.cfi_def_cfa_offset 16
 110              		@ sp needed
 111 0064 70BD     		pop	{r4, r5, r6, pc}
 112              	.LVL10:
 113              	.L7:
 114 0066 00BF     		.align	2
 115              	.L6:
 116 0068 00000000 		.word	.LC0
 117              		.cfi_endproc
 118              	.LFE1:
 119              		.size	USBUART_ReadDieID, .-USBUART_ReadDieID
 120              		.section	.text.USBUART_ConfigReg,"ax",%progbits
 121              		.align	2
 122              		.global	USBUART_ConfigReg
 123              		.thumb
 124              		.thumb_func
 125              		.type	USBUART_ConfigReg, %function
 126              	USBUART_ConfigReg:
 127              	.LFB2:
 425:.\Generated_Source\PSoC5/USBUART_std.c **** #endif /* (USBUART_ENABLE_IDSN_STRING) */
 426:.\Generated_Source\PSoC5/USBUART_std.c **** 
 427:.\Generated_Source\PSoC5/USBUART_std.c **** 
 428:.\Generated_Source\PSoC5/USBUART_std.c **** /*******************************************************************************
 429:.\Generated_Source\PSoC5/USBUART_std.c **** * Function Name: USBUART_ConfigReg
 430:.\Generated_Source\PSoC5/USBUART_std.c **** ****************************************************************************//**
 431:.\Generated_Source\PSoC5/USBUART_std.c **** *
 432:.\Generated_Source\PSoC5/USBUART_std.c **** *  This routine configures hardware registers from the variables.
 433:.\Generated_Source\PSoC5/USBUART_std.c **** *  It is called from USBUART_Config() function and from RestoreConfig
 434:.\Generated_Source\PSoC5/USBUART_std.c **** *  after Wakeup.
 435:.\Generated_Source\PSoC5/USBUART_std.c **** *
 436:.\Generated_Source\PSoC5/USBUART_std.c **** *******************************************************************************/
 437:.\Generated_Source\PSoC5/USBUART_std.c **** void USBUART_ConfigReg(void) 
 438:.\Generated_Source\PSoC5/USBUART_std.c **** {
 128              		.loc 1 438 0
 129              		.cfi_startproc
ARM GAS  C:\Users\lenovo\AppData\Local\Temp\ccWMYq61.s 			page 11


 130              		@ args = 0, pretend = 0, frame = 0
 131              		@ frame_needed = 0, uses_anonymous_args = 0
 132              		@ link register save eliminated.
 133 0000 10B4     		push	{r4}
 134              		.cfi_def_cfa_offset 4
 135              		.cfi_offset 4, -4
 136              	.LVL11:
 439:.\Generated_Source\PSoC5/USBUART_std.c ****     uint8 ep;
 440:.\Generated_Source\PSoC5/USBUART_std.c **** 
 441:.\Generated_Source\PSoC5/USBUART_std.c **** #if (USBUART_EP_MANAGEMENT_DMA_AUTO)
 442:.\Generated_Source\PSoC5/USBUART_std.c ****     uint8 epType = 0u;
 443:.\Generated_Source\PSoC5/USBUART_std.c **** #endif /* (USBUART_EP_MANAGEMENT_DMA_AUTO) */
 444:.\Generated_Source\PSoC5/USBUART_std.c **** 
 445:.\Generated_Source\PSoC5/USBUART_std.c ****     /* Go thought all endpoints and set hardware configuration */
 446:.\Generated_Source\PSoC5/USBUART_std.c ****     for (ep = USBUART_EP1; ep < USBUART_MAX_EP; ++ep)
 137              		.loc 1 446 0
 138 0002 0122     		movs	r2, #1
 139 0004 3DE0     		b	.L9
 140              	.LVL12:
 141              	.L13:
 447:.\Generated_Source\PSoC5/USBUART_std.c ****     {
 448:.\Generated_Source\PSoC5/USBUART_std.c ****         USBUART_ARB_EP_BASE.arbEp[ep].epCfg = USBUART_ARB_EPX_CFG_DEFAULT;
 142              		.loc 1 448 0
 143 0006 1146     		mov	r1, r2
 144 0008 1301     		lsls	r3, r2, #4
 145 000a 0C24     		movs	r4, #12
 146 000c 2148     		ldr	r0, .L15
 147 000e C454     		strb	r4, [r0, r3]
 449:.\Generated_Source\PSoC5/USBUART_std.c ****         
 450:.\Generated_Source\PSoC5/USBUART_std.c ****     #if (USBUART_EP_MANAGEMENT_DMA)
 451:.\Generated_Source\PSoC5/USBUART_std.c ****         /* Enable arbiter endpoint interrupt sources */
 452:.\Generated_Source\PSoC5/USBUART_std.c ****         USBUART_ARB_EP_BASE.arbEp[ep].epIntEn = USBUART_ARB_EPX_INT_MASK;
 453:.\Generated_Source\PSoC5/USBUART_std.c ****     #endif /* (USBUART_EP_MANAGEMENT_DMA) */
 454:.\Generated_Source\PSoC5/USBUART_std.c ****     
 455:.\Generated_Source\PSoC5/USBUART_std.c ****         if (USBUART_EP[ep].epMode != USBUART_MODE_DISABLE)
 148              		.loc 1 455 0
 149 0010 02EB4203 		add	r3, r2, r2, lsl #1
 150 0014 9B00     		lsls	r3, r3, #2
 151 0016 2048     		ldr	r0, .L15+4
 152 0018 0344     		add	r3, r3, r0
 153 001a 5B79     		ldrb	r3, [r3, #5]	@ zero_extendqisi2
 154 001c 13F0FF0F 		tst	r3, #255
 155 0020 12D0     		beq	.L10
 456:.\Generated_Source\PSoC5/USBUART_std.c ****         {
 457:.\Generated_Source\PSoC5/USBUART_std.c ****             if (0u != (USBUART_EP[ep].addr & USBUART_DIR_IN))
 156              		.loc 1 457 0
 157 0022 02EB4203 		add	r3, r2, r2, lsl #1
 158 0026 9B00     		lsls	r3, r3, #2
 159 0028 0344     		add	r3, r3, r0
 160 002a 1B79     		ldrb	r3, [r3, #4]	@ zero_extendqisi2
 161 002c 13F0800F 		tst	r3, #128
 162 0030 04D0     		beq	.L11
 458:.\Generated_Source\PSoC5/USBUART_std.c ****             {
 459:.\Generated_Source\PSoC5/USBUART_std.c ****                 USBUART_SIE_EP_BASE.sieEp[ep].epCr0 = USBUART_MODE_NAK_IN;
 163              		.loc 1 459 0
 164 0032 1001     		lsls	r0, r2, #4
 165 0034 194B     		ldr	r3, .L15+8
ARM GAS  C:\Users\lenovo\AppData\Local\Temp\ccWMYq61.s 			page 12


 166 0036 0344     		add	r3, r3, r0
 167 0038 9C70     		strb	r4, [r3, #2]
 168 003a 0AE0     		b	.L12
 169              	.L11:
 460:.\Generated_Source\PSoC5/USBUART_std.c ****                 
 461:.\Generated_Source\PSoC5/USBUART_std.c ****             #if (USBUART_EP_MANAGEMENT_DMA_AUTO && CY_PSOC4)
 462:.\Generated_Source\PSoC5/USBUART_std.c ****                 /* Clear DMA_TERMIN for IN endpoint. */
 463:.\Generated_Source\PSoC5/USBUART_std.c ****                 USBUART_ARB_EP_BASE.arbEp[ep].epIntEn &= (uint32) ~USBUART_ARB_EPX_INT_DMA_TERMIN;
 464:.\Generated_Source\PSoC5/USBUART_std.c ****             #endif /* (USBUART_EP_MANAGEMENT_DMA_AUTO && CY_PSOC4) */
 465:.\Generated_Source\PSoC5/USBUART_std.c ****             }
 466:.\Generated_Source\PSoC5/USBUART_std.c ****             else
 467:.\Generated_Source\PSoC5/USBUART_std.c ****             {
 468:.\Generated_Source\PSoC5/USBUART_std.c ****                 USBUART_SIE_EP_BASE.sieEp[ep].epCr0 = USBUART_MODE_NAK_OUT;
 170              		.loc 1 468 0
 171 003c 1001     		lsls	r0, r2, #4
 172 003e 174B     		ldr	r3, .L15+8
 173 0040 0344     		add	r3, r3, r0
 174 0042 0820     		movs	r0, #8
 175 0044 9870     		strb	r0, [r3, #2]
 176 0046 04E0     		b	.L12
 177              	.L10:
 469:.\Generated_Source\PSoC5/USBUART_std.c **** 
 470:.\Generated_Source\PSoC5/USBUART_std.c ****             #if (USBUART_EP_MANAGEMENT_DMA_AUTO)
 471:.\Generated_Source\PSoC5/USBUART_std.c ****                 /* (CY_PSOC4): DMA_TERMIN for OUT endpoint is set above. */
 472:.\Generated_Source\PSoC5/USBUART_std.c ****                 
 473:.\Generated_Source\PSoC5/USBUART_std.c ****                 /* Prepare endpoint type mask. */
 474:.\Generated_Source\PSoC5/USBUART_std.c ****                 epType |= (uint8) (0x01u << (ep - USBUART_EP1));
 475:.\Generated_Source\PSoC5/USBUART_std.c ****             #endif /* (USBUART_EP_MANAGEMENT_DMA_AUTO) */
 476:.\Generated_Source\PSoC5/USBUART_std.c ****             }
 477:.\Generated_Source\PSoC5/USBUART_std.c ****         }
 478:.\Generated_Source\PSoC5/USBUART_std.c ****         else
 479:.\Generated_Source\PSoC5/USBUART_std.c ****         {
 480:.\Generated_Source\PSoC5/USBUART_std.c ****             USBUART_SIE_EP_BASE.sieEp[ep].epCr0 = USBUART_MODE_STALL_DATA_EP;
 178              		.loc 1 480 0
 179 0048 1001     		lsls	r0, r2, #4
 180 004a 144B     		ldr	r3, .L15+8
 181 004c 0344     		add	r3, r3, r0
 182 004e 8020     		movs	r0, #128
 183 0050 9870     		strb	r0, [r3, #2]
 184              	.L12:
 481:.\Generated_Source\PSoC5/USBUART_std.c ****         }
 482:.\Generated_Source\PSoC5/USBUART_std.c ****         
 483:.\Generated_Source\PSoC5/USBUART_std.c ****     #if (!USBUART_EP_MANAGEMENT_DMA_AUTO)
 484:.\Generated_Source\PSoC5/USBUART_std.c ****         #if (CY_PSOC4)
 485:.\Generated_Source\PSoC5/USBUART_std.c ****             USBUART_ARB_EP16_BASE.arbEp[ep].rwRa16  = (uint32) USBUART_EP[ep].buffOffset;
 486:.\Generated_Source\PSoC5/USBUART_std.c ****             USBUART_ARB_EP16_BASE.arbEp[ep].rwWa16  = (uint32) USBUART_EP[ep].buffOffset;
 487:.\Generated_Source\PSoC5/USBUART_std.c ****         #else
 488:.\Generated_Source\PSoC5/USBUART_std.c ****             USBUART_ARB_EP_BASE.arbEp[ep].rwRa    = LO8(USBUART_EP[ep].buffOffset);
 185              		.loc 1 488 0 discriminator 2
 186 0052 4B00     		lsls	r3, r1, #1
 187 0054 0B44     		add	r3, r3, r1
 188 0056 9B00     		lsls	r3, r3, #2
 189 0058 0F48     		ldr	r0, .L15+4
 190 005a 0344     		add	r3, r3, r0
 191 005c DC88     		ldrh	r4, [r3, #6]
 192 005e E4B2     		uxtb	r4, r4
 193 0060 0801     		lsls	r0, r1, #4
ARM GAS  C:\Users\lenovo\AppData\Local\Temp\ccWMYq61.s 			page 13


 194 0062 0C49     		ldr	r1, .L15
 195 0064 0144     		add	r1, r1, r0
 196 0066 8C71     		strb	r4, [r1, #6]
 489:.\Generated_Source\PSoC5/USBUART_std.c ****             USBUART_ARB_EP_BASE.arbEp[ep].rwRaMsb = HI8(USBUART_EP[ep].buffOffset);
 197              		.loc 1 489 0 discriminator 2
 198 0068 D888     		ldrh	r0, [r3, #6]
 199 006a C0F30720 		ubfx	r0, r0, #8, #8
 200 006e C871     		strb	r0, [r1, #7]
 490:.\Generated_Source\PSoC5/USBUART_std.c ****             USBUART_ARB_EP_BASE.arbEp[ep].rwWa    = LO8(USBUART_EP[ep].buffOffset);
 201              		.loc 1 490 0 discriminator 2
 202 0070 D888     		ldrh	r0, [r3, #6]
 203 0072 C0B2     		uxtb	r0, r0
 204 0074 0871     		strb	r0, [r1, #4]
 491:.\Generated_Source\PSoC5/USBUART_std.c ****             USBUART_ARB_EP_BASE.arbEp[ep].rwWaMsb = HI8(USBUART_EP[ep].buffOffset);
 205              		.loc 1 491 0 discriminator 2
 206 0076 DB88     		ldrh	r3, [r3, #6]
 207 0078 C3F30723 		ubfx	r3, r3, #8, #8
 208 007c 4B71     		strb	r3, [r1, #5]
 446:.\Generated_Source\PSoC5/USBUART_std.c ****     {
 209              		.loc 1 446 0 discriminator 2
 210 007e 0132     		adds	r2, r2, #1
 211              	.LVL13:
 212 0080 D2B2     		uxtb	r2, r2
 213              	.LVL14:
 214              	.L9:
 446:.\Generated_Source\PSoC5/USBUART_std.c ****     {
 215              		.loc 1 446 0 is_stmt 0 discriminator 1
 216 0082 082A     		cmp	r2, #8
 217 0084 BFD9     		bls	.L13
 492:.\Generated_Source\PSoC5/USBUART_std.c ****         #endif /* (CY_PSOC4) */
 493:.\Generated_Source\PSoC5/USBUART_std.c ****     #endif /* (!USBUART_EP_MANAGEMENT_DMA_AUTO) */
 494:.\Generated_Source\PSoC5/USBUART_std.c ****     }
 495:.\Generated_Source\PSoC5/USBUART_std.c **** 
 496:.\Generated_Source\PSoC5/USBUART_std.c **** #if (USBUART_EP_MANAGEMENT_DMA_AUTO)
 497:.\Generated_Source\PSoC5/USBUART_std.c ****      /* BUF_SIZE depend on DMA_THRESS value:0x55-32 bytes  0x44-16 bytes 0x33-8 bytes 0x22-4 bytes 
 498:.\Generated_Source\PSoC5/USBUART_std.c ****     USBUART_BUF_SIZE_REG = USBUART_DMA_BUF_SIZE;
 499:.\Generated_Source\PSoC5/USBUART_std.c **** 
 500:.\Generated_Source\PSoC5/USBUART_std.c ****     /* Configure DMA burst threshold */
 501:.\Generated_Source\PSoC5/USBUART_std.c **** #if (CY_PSOC4)
 502:.\Generated_Source\PSoC5/USBUART_std.c ****     USBUART_DMA_THRES16_REG   = USBUART_DMA_BYTES_PER_BURST;
 503:.\Generated_Source\PSoC5/USBUART_std.c **** #else
 504:.\Generated_Source\PSoC5/USBUART_std.c ****     USBUART_DMA_THRES_REG     = USBUART_DMA_BYTES_PER_BURST;
 505:.\Generated_Source\PSoC5/USBUART_std.c ****     USBUART_DMA_THRES_MSB_REG = 0u;
 506:.\Generated_Source\PSoC5/USBUART_std.c **** #endif /* (CY_PSOC4) */
 507:.\Generated_Source\PSoC5/USBUART_std.c ****     USBUART_EP_ACTIVE_REG = USBUART_DEFAULT_ARB_INT_EN;
 508:.\Generated_Source\PSoC5/USBUART_std.c ****     USBUART_EP_TYPE_REG   = epType;
 509:.\Generated_Source\PSoC5/USBUART_std.c ****     
 510:.\Generated_Source\PSoC5/USBUART_std.c ****     /* Cfg_cmp bit set to 1 once configuration is complete. */
 511:.\Generated_Source\PSoC5/USBUART_std.c ****     /* Lock arbiter configtuation */
 512:.\Generated_Source\PSoC5/USBUART_std.c ****     USBUART_ARB_CFG_REG |= (uint8)  USBUART_ARB_CFG_CFG_CMP;
 513:.\Generated_Source\PSoC5/USBUART_std.c ****     /* Cfg_cmp bit set to 0 during configuration of PFSUSB Registers. */
 514:.\Generated_Source\PSoC5/USBUART_std.c ****     USBUART_ARB_CFG_REG &= (uint8) ~USBUART_ARB_CFG_CFG_CMP;
 515:.\Generated_Source\PSoC5/USBUART_std.c **** 
 516:.\Generated_Source\PSoC5/USBUART_std.c **** #endif /* (USBUART_EP_MANAGEMENT_DMA_AUTO) */
 517:.\Generated_Source\PSoC5/USBUART_std.c **** 
 518:.\Generated_Source\PSoC5/USBUART_std.c ****     /* Enable interrupt SIE interurpt source from EP0-EP1 */
 519:.\Generated_Source\PSoC5/USBUART_std.c ****     USBUART_SIE_EP_INT_EN_REG = (uint8) USBUART_DEFAULT_SIE_EP_INT_EN;
ARM GAS  C:\Users\lenovo\AppData\Local\Temp\ccWMYq61.s 			page 14


 218              		.loc 1 519 0 is_stmt 1
 219 0086 FF22     		movs	r2, #255
 220              	.LVL15:
 221 0088 054B     		ldr	r3, .L15+12
 222 008a 1A70     		strb	r2, [r3]
 520:.\Generated_Source\PSoC5/USBUART_std.c **** }
 223              		.loc 1 520 0
 224 008c 5DF8044B 		ldr	r4, [sp], #4
 225              		.cfi_restore 4
 226              		.cfi_def_cfa_offset 0
 227 0090 7047     		bx	lr
 228              	.L16:
 229 0092 00BF     		.align	2
 230              	.L15:
 231 0094 70600040 		.word	1073766512
 232 0098 00000000 		.word	USBUART_EP
 233 009c FC5F0040 		.word	1073766396
 234 00a0 0A600040 		.word	1073766410
 235              		.cfi_endproc
 236              	.LFE2:
 237              		.size	USBUART_ConfigReg, .-USBUART_ConfigReg
 238              		.section	.text.USBUART_EpStateInit,"ax",%progbits
 239              		.align	2
 240              		.global	USBUART_EpStateInit
 241              		.thumb
 242              		.thumb_func
 243              		.type	USBUART_EpStateInit, %function
 244              	USBUART_EpStateInit:
 245              	.LFB3:
 521:.\Generated_Source\PSoC5/USBUART_std.c **** 
 522:.\Generated_Source\PSoC5/USBUART_std.c **** 
 523:.\Generated_Source\PSoC5/USBUART_std.c **** /*******************************************************************************
 524:.\Generated_Source\PSoC5/USBUART_std.c **** * Function Name: USBUART_EpStateInit
 525:.\Generated_Source\PSoC5/USBUART_std.c **** ****************************************************************************//**
 526:.\Generated_Source\PSoC5/USBUART_std.c **** *
 527:.\Generated_Source\PSoC5/USBUART_std.c **** *  This routine initialize state of Data end points based of its type: 
 528:.\Generated_Source\PSoC5/USBUART_std.c **** *   IN  - USBUART_IN_BUFFER_EMPTY (USBUART_EVENT_PENDING)
 529:.\Generated_Source\PSoC5/USBUART_std.c **** *   OUT - USBUART_OUT_BUFFER_EMPTY (USBUART_NO_EVENT_PENDING)
 530:.\Generated_Source\PSoC5/USBUART_std.c **** *
 531:.\Generated_Source\PSoC5/USBUART_std.c **** *******************************************************************************/
 532:.\Generated_Source\PSoC5/USBUART_std.c **** void USBUART_EpStateInit(void) 
 533:.\Generated_Source\PSoC5/USBUART_std.c **** {
 246              		.loc 1 533 0
 247              		.cfi_startproc
 248              		@ args = 0, pretend = 0, frame = 0
 249              		@ frame_needed = 0, uses_anonymous_args = 0
 250              		@ link register save eliminated.
 251              	.LVL16:
 534:.\Generated_Source\PSoC5/USBUART_std.c ****     uint8 i;
 535:.\Generated_Source\PSoC5/USBUART_std.c **** 
 536:.\Generated_Source\PSoC5/USBUART_std.c ****     for (i = USBUART_EP1; i < USBUART_MAX_EP; i++)
 252              		.loc 1 536 0
 253 0000 0123     		movs	r3, #1
 254 0002 18E0     		b	.L18
 255              	.LVL17:
 256              	.L21:
 537:.\Generated_Source\PSoC5/USBUART_std.c ****     { 
ARM GAS  C:\Users\lenovo\AppData\Local\Temp\ccWMYq61.s 			page 15


 538:.\Generated_Source\PSoC5/USBUART_std.c ****         if (0u != (USBUART_EP[i].addr & USBUART_DIR_IN))
 257              		.loc 1 538 0
 258 0004 03EB4302 		add	r2, r3, r3, lsl #1
 259 0008 9200     		lsls	r2, r2, #2
 260 000a 0C49     		ldr	r1, .L22
 261 000c 0A44     		add	r2, r2, r1
 262 000e 1279     		ldrb	r2, [r2, #4]	@ zero_extendqisi2
 263 0010 12F0800F 		tst	r2, #128
 264 0014 06D0     		beq	.L19
 539:.\Generated_Source\PSoC5/USBUART_std.c ****         {
 540:.\Generated_Source\PSoC5/USBUART_std.c ****             /* IN Endpoint */
 541:.\Generated_Source\PSoC5/USBUART_std.c ****             USBUART_EP[i].apiEpState = USBUART_EVENT_PENDING;
 265              		.loc 1 541 0
 266 0016 03EB4302 		add	r2, r3, r3, lsl #1
 267 001a 9200     		lsls	r2, r2, #2
 268 001c 0A44     		add	r2, r2, r1
 269 001e 0121     		movs	r1, #1
 270 0020 5170     		strb	r1, [r2, #1]
 271 0022 06E0     		b	.L20
 272              	.L19:
 542:.\Generated_Source\PSoC5/USBUART_std.c ****         }
 543:.\Generated_Source\PSoC5/USBUART_std.c ****         else
 544:.\Generated_Source\PSoC5/USBUART_std.c ****         {
 545:.\Generated_Source\PSoC5/USBUART_std.c ****             /* OUT Endpoint */
 546:.\Generated_Source\PSoC5/USBUART_std.c ****             USBUART_EP[i].apiEpState = USBUART_NO_EVENT_PENDING;
 273              		.loc 1 546 0
 274 0024 03EB4302 		add	r2, r3, r3, lsl #1
 275 0028 9200     		lsls	r2, r2, #2
 276 002a 0449     		ldr	r1, .L22
 277 002c 0A44     		add	r2, r2, r1
 278 002e 0021     		movs	r1, #0
 279 0030 5170     		strb	r1, [r2, #1]
 280              	.L20:
 536:.\Generated_Source\PSoC5/USBUART_std.c ****     { 
 281              		.loc 1 536 0 discriminator 2
 282 0032 0133     		adds	r3, r3, #1
 283              	.LVL18:
 284 0034 DBB2     		uxtb	r3, r3
 285              	.LVL19:
 286              	.L18:
 536:.\Generated_Source\PSoC5/USBUART_std.c ****     { 
 287              		.loc 1 536 0 is_stmt 0 discriminator 1
 288 0036 082B     		cmp	r3, #8
 289 0038 E4D9     		bls	.L21
 547:.\Generated_Source\PSoC5/USBUART_std.c ****         }
 548:.\Generated_Source\PSoC5/USBUART_std.c ****     }
 549:.\Generated_Source\PSoC5/USBUART_std.c ****                     
 550:.\Generated_Source\PSoC5/USBUART_std.c **** }
 290              		.loc 1 550 0 is_stmt 1
 291 003a 7047     		bx	lr
 292              	.L23:
 293              		.align	2
 294              	.L22:
 295 003c 00000000 		.word	USBUART_EP
 296              		.cfi_endproc
 297              	.LFE3:
 298              		.size	USBUART_EpStateInit, .-USBUART_EpStateInit
ARM GAS  C:\Users\lenovo\AppData\Local\Temp\ccWMYq61.s 			page 16


 299              		.section	.text.USBUART_GetConfigTablePtr,"ax",%progbits
 300              		.align	2
 301              		.global	USBUART_GetConfigTablePtr
 302              		.thumb
 303              		.thumb_func
 304              		.type	USBUART_GetConfigTablePtr, %function
 305              	USBUART_GetConfigTablePtr:
 306              	.LFB6:
 551:.\Generated_Source\PSoC5/USBUART_std.c **** 
 552:.\Generated_Source\PSoC5/USBUART_std.c **** 
 553:.\Generated_Source\PSoC5/USBUART_std.c **** /*******************************************************************************
 554:.\Generated_Source\PSoC5/USBUART_std.c **** * Function Name: USBUART_Config
 555:.\Generated_Source\PSoC5/USBUART_std.c **** ****************************************************************************//**
 556:.\Generated_Source\PSoC5/USBUART_std.c **** *
 557:.\Generated_Source\PSoC5/USBUART_std.c **** *  This routine configures endpoints for the entire configuration by scanning
 558:.\Generated_Source\PSoC5/USBUART_std.c **** *  the configuration descriptor.
 559:.\Generated_Source\PSoC5/USBUART_std.c **** *
 560:.\Generated_Source\PSoC5/USBUART_std.c **** *  \param clearAltSetting: It configures the bAlternateSetting 0 for each interface.
 561:.\Generated_Source\PSoC5/USBUART_std.c **** *
 562:.\Generated_Source\PSoC5/USBUART_std.c **** * USBUART_interfaceClass - Initialized class array for each interface.
 563:.\Generated_Source\PSoC5/USBUART_std.c **** *   It is used for handling Class specific requests depend on interface class.
 564:.\Generated_Source\PSoC5/USBUART_std.c **** *   Different classes in multiple Alternate settings does not supported.
 565:.\Generated_Source\PSoC5/USBUART_std.c **** *
 566:.\Generated_Source\PSoC5/USBUART_std.c **** * \reentrant
 567:.\Generated_Source\PSoC5/USBUART_std.c **** *  No.
 568:.\Generated_Source\PSoC5/USBUART_std.c **** *
 569:.\Generated_Source\PSoC5/USBUART_std.c **** *******************************************************************************/
 570:.\Generated_Source\PSoC5/USBUART_std.c **** void USBUART_Config(uint8 clearAltSetting) 
 571:.\Generated_Source\PSoC5/USBUART_std.c **** {
 572:.\Generated_Source\PSoC5/USBUART_std.c ****     uint8 ep;
 573:.\Generated_Source\PSoC5/USBUART_std.c ****     uint8 curEp;
 574:.\Generated_Source\PSoC5/USBUART_std.c ****     uint8 i;
 575:.\Generated_Source\PSoC5/USBUART_std.c ****     uint8 epType;
 576:.\Generated_Source\PSoC5/USBUART_std.c ****     const uint8 *pDescr;
 577:.\Generated_Source\PSoC5/USBUART_std.c ****     
 578:.\Generated_Source\PSoC5/USBUART_std.c ****     #if (!USBUART_EP_MANAGEMENT_DMA_AUTO)
 579:.\Generated_Source\PSoC5/USBUART_std.c ****         uint16 buffCount = 0u;
 580:.\Generated_Source\PSoC5/USBUART_std.c ****     #endif /* (!USBUART_EP_MANAGEMENT_DMA_AUTO) */
 581:.\Generated_Source\PSoC5/USBUART_std.c **** 
 582:.\Generated_Source\PSoC5/USBUART_std.c ****     const T_USBUART_LUT CYCODE *pTmp;
 583:.\Generated_Source\PSoC5/USBUART_std.c ****     const T_USBUART_EP_SETTINGS_BLOCK CYCODE *pEP;
 584:.\Generated_Source\PSoC5/USBUART_std.c **** 
 585:.\Generated_Source\PSoC5/USBUART_std.c ****     /* Clear endpoints settings */
 586:.\Generated_Source\PSoC5/USBUART_std.c ****     for (ep = 0u; ep < USBUART_MAX_EP; ++ep)
 587:.\Generated_Source\PSoC5/USBUART_std.c ****     {
 588:.\Generated_Source\PSoC5/USBUART_std.c ****         USBUART_EP[ep].attrib     = 0u;
 589:.\Generated_Source\PSoC5/USBUART_std.c ****         USBUART_EP[ep].hwEpState  = 0u;
 590:.\Generated_Source\PSoC5/USBUART_std.c ****         USBUART_EP[ep].epToggle   = 0u;
 591:.\Generated_Source\PSoC5/USBUART_std.c ****         USBUART_EP[ep].bufferSize = 0u;
 592:.\Generated_Source\PSoC5/USBUART_std.c ****         USBUART_EP[ep].interface  = 0u;
 593:.\Generated_Source\PSoC5/USBUART_std.c ****         USBUART_EP[ep].apiEpState = USBUART_NO_EVENT_PENDING;
 594:.\Generated_Source\PSoC5/USBUART_std.c ****         USBUART_EP[ep].epMode     = USBUART_MODE_DISABLE;   
 595:.\Generated_Source\PSoC5/USBUART_std.c ****     }
 596:.\Generated_Source\PSoC5/USBUART_std.c **** 
 597:.\Generated_Source\PSoC5/USBUART_std.c ****     /* Clear Alternate settings for all interfaces. */
 598:.\Generated_Source\PSoC5/USBUART_std.c ****     if (0u != clearAltSetting)
 599:.\Generated_Source\PSoC5/USBUART_std.c ****     {
ARM GAS  C:\Users\lenovo\AppData\Local\Temp\ccWMYq61.s 			page 17


 600:.\Generated_Source\PSoC5/USBUART_std.c ****         for (i = 0u; i < USBUART_MAX_INTERFACES_NUMBER; ++i)
 601:.\Generated_Source\PSoC5/USBUART_std.c ****         {
 602:.\Generated_Source\PSoC5/USBUART_std.c ****             USBUART_interfaceSetting[i]     = 0u;
 603:.\Generated_Source\PSoC5/USBUART_std.c ****             USBUART_interfaceSettingLast[i] = 0u;
 604:.\Generated_Source\PSoC5/USBUART_std.c ****         }
 605:.\Generated_Source\PSoC5/USBUART_std.c ****     }
 606:.\Generated_Source\PSoC5/USBUART_std.c **** 
 607:.\Generated_Source\PSoC5/USBUART_std.c ****     /* Init Endpoints and Device Status if configured */
 608:.\Generated_Source\PSoC5/USBUART_std.c ****     if (USBUART_configuration > 0u)
 609:.\Generated_Source\PSoC5/USBUART_std.c ****     {
 610:.\Generated_Source\PSoC5/USBUART_std.c ****         #if defined(USBUART_ENABLE_CDC_CLASS)
 611:.\Generated_Source\PSoC5/USBUART_std.c ****             uint8 cdcComNums = 0u;
 612:.\Generated_Source\PSoC5/USBUART_std.c ****         #endif  /* (USBUART_ENABLE_CDC_CLASS) */  
 613:.\Generated_Source\PSoC5/USBUART_std.c **** 
 614:.\Generated_Source\PSoC5/USBUART_std.c ****         pTmp = USBUART_GetConfigTablePtr(USBUART_configuration - 1u);
 615:.\Generated_Source\PSoC5/USBUART_std.c ****         
 616:.\Generated_Source\PSoC5/USBUART_std.c ****         /* Set Power status for current configuration */
 617:.\Generated_Source\PSoC5/USBUART_std.c ****         pDescr = (const uint8 *)pTmp->p_list;
 618:.\Generated_Source\PSoC5/USBUART_std.c ****         if ((pDescr[USBUART_CONFIG_DESCR_ATTRIB] & USBUART_CONFIG_DESCR_ATTRIB_SELF_POWERED) != 0u)
 619:.\Generated_Source\PSoC5/USBUART_std.c ****         {
 620:.\Generated_Source\PSoC5/USBUART_std.c ****             USBUART_deviceStatus |= (uint8)  USBUART_DEVICE_STATUS_SELF_POWERED;
 621:.\Generated_Source\PSoC5/USBUART_std.c ****         }
 622:.\Generated_Source\PSoC5/USBUART_std.c ****         else
 623:.\Generated_Source\PSoC5/USBUART_std.c ****         {
 624:.\Generated_Source\PSoC5/USBUART_std.c ****             USBUART_deviceStatus &= (uint8) ~USBUART_DEVICE_STATUS_SELF_POWERED;
 625:.\Generated_Source\PSoC5/USBUART_std.c ****         }
 626:.\Generated_Source\PSoC5/USBUART_std.c ****         
 627:.\Generated_Source\PSoC5/USBUART_std.c ****         /* Move to next element */
 628:.\Generated_Source\PSoC5/USBUART_std.c ****         pTmp = &pTmp[1u];
 629:.\Generated_Source\PSoC5/USBUART_std.c ****         ep = pTmp->c;  /* For this table, c is the number of endpoints configurations  */
 630:.\Generated_Source\PSoC5/USBUART_std.c **** 
 631:.\Generated_Source\PSoC5/USBUART_std.c ****         #if (USBUART_EP_MANAGEMENT_MANUAL && USBUART_EP_ALLOC_DYNAMIC)
 632:.\Generated_Source\PSoC5/USBUART_std.c ****             /* Configure for dynamic EP memory allocation */
 633:.\Generated_Source\PSoC5/USBUART_std.c ****             /* p_list points the endpoint setting table. */
 634:.\Generated_Source\PSoC5/USBUART_std.c ****             pEP = (T_USBUART_EP_SETTINGS_BLOCK *) pTmp->p_list;
 635:.\Generated_Source\PSoC5/USBUART_std.c ****             
 636:.\Generated_Source\PSoC5/USBUART_std.c ****             for (i = 0u; i < ep; i++)
 637:.\Generated_Source\PSoC5/USBUART_std.c ****             {     
 638:.\Generated_Source\PSoC5/USBUART_std.c ****                 /* Compare current Alternate setting with EP Alt */
 639:.\Generated_Source\PSoC5/USBUART_std.c ****                 if (USBUART_interfaceSetting[pEP->interface] == pEP->altSetting)
 640:.\Generated_Source\PSoC5/USBUART_std.c ****                 {                                                          
 641:.\Generated_Source\PSoC5/USBUART_std.c ****                     curEp  = pEP->addr & USBUART_DIR_UNUSED;
 642:.\Generated_Source\PSoC5/USBUART_std.c ****                     epType = pEP->attributes & USBUART_EP_TYPE_MASK;
 643:.\Generated_Source\PSoC5/USBUART_std.c ****                     
 644:.\Generated_Source\PSoC5/USBUART_std.c ****                     USBUART_EP[curEp].addr       = pEP->addr;
 645:.\Generated_Source\PSoC5/USBUART_std.c ****                     USBUART_EP[curEp].attrib     = pEP->attributes;
 646:.\Generated_Source\PSoC5/USBUART_std.c ****                     USBUART_EP[curEp].bufferSize = pEP->bufferSize;
 647:.\Generated_Source\PSoC5/USBUART_std.c **** 
 648:.\Generated_Source\PSoC5/USBUART_std.c ****                     if (0u != (pEP->addr & USBUART_DIR_IN))
 649:.\Generated_Source\PSoC5/USBUART_std.c ****                     {
 650:.\Generated_Source\PSoC5/USBUART_std.c ****                         /* IN Endpoint */
 651:.\Generated_Source\PSoC5/USBUART_std.c ****                         USBUART_EP[curEp].epMode     = USBUART_GET_ACTIVE_IN_EP_CR0_MODE(epType);
 652:.\Generated_Source\PSoC5/USBUART_std.c ****                         USBUART_EP[curEp].apiEpState = USBUART_EVENT_PENDING;
 653:.\Generated_Source\PSoC5/USBUART_std.c ****                     
 654:.\Generated_Source\PSoC5/USBUART_std.c ****                     #if (defined(USBUART_ENABLE_MIDI_STREAMING) && (USBUART_MIDI_IN_BUFF_SIZE > 0))
 655:.\Generated_Source\PSoC5/USBUART_std.c ****                         if ((pEP->bMisc == USBUART_CLASS_AUDIO) && (epType == USBUART_EP_TYPE_BULK)
 656:.\Generated_Source\PSoC5/USBUART_std.c ****                         {
ARM GAS  C:\Users\lenovo\AppData\Local\Temp\ccWMYq61.s 			page 18


 657:.\Generated_Source\PSoC5/USBUART_std.c ****                             USBUART_midi_in_ep = curEp;
 658:.\Generated_Source\PSoC5/USBUART_std.c ****                         }
 659:.\Generated_Source\PSoC5/USBUART_std.c ****                     #endif  /* (USBUART_ENABLE_MIDI_STREAMING) */
 660:.\Generated_Source\PSoC5/USBUART_std.c ****                     }
 661:.\Generated_Source\PSoC5/USBUART_std.c ****                     else
 662:.\Generated_Source\PSoC5/USBUART_std.c ****                     {
 663:.\Generated_Source\PSoC5/USBUART_std.c ****                         /* OUT Endpoint */
 664:.\Generated_Source\PSoC5/USBUART_std.c ****                         USBUART_EP[curEp].epMode     = USBUART_GET_ACTIVE_OUT_EP_CR0_MODE(epType);
 665:.\Generated_Source\PSoC5/USBUART_std.c ****                         USBUART_EP[curEp].apiEpState = USBUART_NO_EVENT_PENDING;
 666:.\Generated_Source\PSoC5/USBUART_std.c ****                         
 667:.\Generated_Source\PSoC5/USBUART_std.c ****                     #if (defined(USBUART_ENABLE_MIDI_STREAMING) && (USBUART_MIDI_OUT_BUFF_SIZE > 0)
 668:.\Generated_Source\PSoC5/USBUART_std.c ****                         if ((pEP->bMisc == USBUART_CLASS_AUDIO) && (epType == USBUART_EP_TYPE_BULK)
 669:.\Generated_Source\PSoC5/USBUART_std.c ****                         {
 670:.\Generated_Source\PSoC5/USBUART_std.c ****                             USBUART_midi_out_ep = curEp;
 671:.\Generated_Source\PSoC5/USBUART_std.c ****                         }
 672:.\Generated_Source\PSoC5/USBUART_std.c ****                     #endif  /* (USBUART_ENABLE_MIDI_STREAMING) */
 673:.\Generated_Source\PSoC5/USBUART_std.c ****                     }
 674:.\Generated_Source\PSoC5/USBUART_std.c **** 
 675:.\Generated_Source\PSoC5/USBUART_std.c ****                 #if(defined (USBUART_ENABLE_CDC_CLASS))
 676:.\Generated_Source\PSoC5/USBUART_std.c ****                     if((pEP->bMisc == USBUART_CLASS_CDC_DATA) ||(pEP->bMisc == USBUART_CLASS_CDC))
 677:.\Generated_Source\PSoC5/USBUART_std.c ****                     {
 678:.\Generated_Source\PSoC5/USBUART_std.c ****                         cdcComNums = USBUART_Cdc_EpInit(pEP, curEp, cdcComNums);
 679:.\Generated_Source\PSoC5/USBUART_std.c ****                     }
 680:.\Generated_Source\PSoC5/USBUART_std.c ****                 #endif  /* (USBUART_ENABLE_CDC_CLASS) */
 681:.\Generated_Source\PSoC5/USBUART_std.c ****                 }
 682:.\Generated_Source\PSoC5/USBUART_std.c ****                 
 683:.\Generated_Source\PSoC5/USBUART_std.c ****                 pEP = &pEP[1u];
 684:.\Generated_Source\PSoC5/USBUART_std.c ****             }
 685:.\Generated_Source\PSoC5/USBUART_std.c ****             
 686:.\Generated_Source\PSoC5/USBUART_std.c ****         #else
 687:.\Generated_Source\PSoC5/USBUART_std.c ****             for (i = USBUART_EP1; i < USBUART_MAX_EP; ++i)
 688:.\Generated_Source\PSoC5/USBUART_std.c ****             {
 689:.\Generated_Source\PSoC5/USBUART_std.c ****                 /* p_list points the endpoint setting table. */
 690:.\Generated_Source\PSoC5/USBUART_std.c ****                 pEP = (const T_USBUART_EP_SETTINGS_BLOCK CYCODE *) pTmp->p_list;
 691:.\Generated_Source\PSoC5/USBUART_std.c ****                 /* Find max length for each EP and select it (length could be different in differen
 692:.\Generated_Source\PSoC5/USBUART_std.c ****                 /* but other settings should be correct with regards to Interface alt Setting */
 693:.\Generated_Source\PSoC5/USBUART_std.c ****                 
 694:.\Generated_Source\PSoC5/USBUART_std.c ****                 for (curEp = 0u; curEp < ep; ++curEp)
 695:.\Generated_Source\PSoC5/USBUART_std.c ****                 {
 696:.\Generated_Source\PSoC5/USBUART_std.c ****                     if (i == (pEP->addr & USBUART_DIR_UNUSED))
 697:.\Generated_Source\PSoC5/USBUART_std.c ****                     {
 698:.\Generated_Source\PSoC5/USBUART_std.c ****                         /* Compare endpoint buffers size with current size to find greater. */
 699:.\Generated_Source\PSoC5/USBUART_std.c ****                         if (USBUART_EP[i].bufferSize < pEP->bufferSize)
 700:.\Generated_Source\PSoC5/USBUART_std.c ****                         {
 701:.\Generated_Source\PSoC5/USBUART_std.c ****                             USBUART_EP[i].bufferSize = pEP->bufferSize;
 702:.\Generated_Source\PSoC5/USBUART_std.c ****                         }
 703:.\Generated_Source\PSoC5/USBUART_std.c ****                         
 704:.\Generated_Source\PSoC5/USBUART_std.c ****                         /* Compare current Alternate setting with EP Alt */
 705:.\Generated_Source\PSoC5/USBUART_std.c ****                         if (USBUART_interfaceSetting[pEP->interface] == pEP->altSetting)
 706:.\Generated_Source\PSoC5/USBUART_std.c ****                         {                            
 707:.\Generated_Source\PSoC5/USBUART_std.c ****                             USBUART_EP[i].addr = pEP->addr;
 708:.\Generated_Source\PSoC5/USBUART_std.c ****                             USBUART_EP[i].attrib = pEP->attributes;
 709:.\Generated_Source\PSoC5/USBUART_std.c ****                             
 710:.\Generated_Source\PSoC5/USBUART_std.c ****                             epType = pEP->attributes & USBUART_EP_TYPE_MASK;
 711:.\Generated_Source\PSoC5/USBUART_std.c ****                             
 712:.\Generated_Source\PSoC5/USBUART_std.c ****                             if (0u != (pEP->addr & USBUART_DIR_IN))
 713:.\Generated_Source\PSoC5/USBUART_std.c ****                             {
ARM GAS  C:\Users\lenovo\AppData\Local\Temp\ccWMYq61.s 			page 19


 714:.\Generated_Source\PSoC5/USBUART_std.c ****                                 /* IN Endpoint */
 715:.\Generated_Source\PSoC5/USBUART_std.c ****                                 USBUART_EP[i].epMode     = USBUART_GET_ACTIVE_IN_EP_CR0_MODE(epType
 716:.\Generated_Source\PSoC5/USBUART_std.c ****                                 USBUART_EP[i].apiEpState = USBUART_EVENT_PENDING;
 717:.\Generated_Source\PSoC5/USBUART_std.c ****                                 
 718:.\Generated_Source\PSoC5/USBUART_std.c ****                             #if (defined(USBUART_ENABLE_MIDI_STREAMING) && (USBUART_MIDI_IN_BUFF_SI
 719:.\Generated_Source\PSoC5/USBUART_std.c ****                                 if ((pEP->bMisc == USBUART_CLASS_AUDIO) && (epType == USBUART_EP_TY
 720:.\Generated_Source\PSoC5/USBUART_std.c ****                                 {
 721:.\Generated_Source\PSoC5/USBUART_std.c ****                                     USBUART_midi_in_ep = i;
 722:.\Generated_Source\PSoC5/USBUART_std.c ****                                 }
 723:.\Generated_Source\PSoC5/USBUART_std.c ****                             #endif  /* (USBUART_ENABLE_MIDI_STREAMING) */
 724:.\Generated_Source\PSoC5/USBUART_std.c ****                             }
 725:.\Generated_Source\PSoC5/USBUART_std.c ****                             else
 726:.\Generated_Source\PSoC5/USBUART_std.c ****                             {
 727:.\Generated_Source\PSoC5/USBUART_std.c ****                                 /* OUT Endpoint */
 728:.\Generated_Source\PSoC5/USBUART_std.c ****                                 USBUART_EP[i].epMode     = USBUART_GET_ACTIVE_OUT_EP_CR0_MODE(epTyp
 729:.\Generated_Source\PSoC5/USBUART_std.c ****                                 USBUART_EP[i].apiEpState = USBUART_NO_EVENT_PENDING;
 730:.\Generated_Source\PSoC5/USBUART_std.c ****                                 
 731:.\Generated_Source\PSoC5/USBUART_std.c ****                             #if (defined(USBUART_ENABLE_MIDI_STREAMING) && (USBUART_MIDI_OUT_BUFF_S
 732:.\Generated_Source\PSoC5/USBUART_std.c ****                                 if ((pEP->bMisc == USBUART_CLASS_AUDIO) && (epType == USBUART_EP_TY
 733:.\Generated_Source\PSoC5/USBUART_std.c ****                                 {
 734:.\Generated_Source\PSoC5/USBUART_std.c ****                                     USBUART_midi_out_ep = i;
 735:.\Generated_Source\PSoC5/USBUART_std.c ****                                 }
 736:.\Generated_Source\PSoC5/USBUART_std.c ****                             #endif  /* (USBUART_ENABLE_MIDI_STREAMING) */
 737:.\Generated_Source\PSoC5/USBUART_std.c ****                             }
 738:.\Generated_Source\PSoC5/USBUART_std.c **** 
 739:.\Generated_Source\PSoC5/USBUART_std.c ****                         #if (defined(USBUART_ENABLE_CDC_CLASS))
 740:.\Generated_Source\PSoC5/USBUART_std.c ****                             if((pEP->bMisc == USBUART_CLASS_CDC_DATA) ||(pEP->bMisc == USBUART_CLAS
 741:.\Generated_Source\PSoC5/USBUART_std.c ****                             {
 742:.\Generated_Source\PSoC5/USBUART_std.c ****                                 cdcComNums = USBUART_Cdc_EpInit(pEP, i, cdcComNums);
 743:.\Generated_Source\PSoC5/USBUART_std.c ****                             }
 744:.\Generated_Source\PSoC5/USBUART_std.c ****                         #endif  /* (USBUART_ENABLE_CDC_CLASS) */
 745:.\Generated_Source\PSoC5/USBUART_std.c **** 
 746:.\Generated_Source\PSoC5/USBUART_std.c ****                             #if (USBUART_EP_MANAGEMENT_DMA_AUTO)
 747:.\Generated_Source\PSoC5/USBUART_std.c ****                                 break;  /* Use first EP setting in Auto memory management */
 748:.\Generated_Source\PSoC5/USBUART_std.c ****                             #endif /* (USBUART_EP_MANAGEMENT_DMA_AUTO) */
 749:.\Generated_Source\PSoC5/USBUART_std.c ****                         }
 750:.\Generated_Source\PSoC5/USBUART_std.c ****                     }
 751:.\Generated_Source\PSoC5/USBUART_std.c ****                     
 752:.\Generated_Source\PSoC5/USBUART_std.c ****                     pEP = &pEP[1u];
 753:.\Generated_Source\PSoC5/USBUART_std.c ****                 }
 754:.\Generated_Source\PSoC5/USBUART_std.c ****             }
 755:.\Generated_Source\PSoC5/USBUART_std.c ****         #endif /*  (USBUART_EP_MANAGEMENT_MANUAL && USBUART_EP_ALLOC_DYNAMIC) */
 756:.\Generated_Source\PSoC5/USBUART_std.c **** 
 757:.\Generated_Source\PSoC5/USBUART_std.c ****         /* Init class array for each interface and interface number for each EP.
 758:.\Generated_Source\PSoC5/USBUART_std.c ****         *  It is used for handling Class specific requests directed to either an
 759:.\Generated_Source\PSoC5/USBUART_std.c ****         *  interface or the endpoint.
 760:.\Generated_Source\PSoC5/USBUART_std.c ****         */
 761:.\Generated_Source\PSoC5/USBUART_std.c ****         /* p_list points the endpoint setting table. */
 762:.\Generated_Source\PSoC5/USBUART_std.c ****         pEP = (const T_USBUART_EP_SETTINGS_BLOCK CYCODE *) pTmp->p_list;
 763:.\Generated_Source\PSoC5/USBUART_std.c ****         for (i = 0u; i < ep; i++)
 764:.\Generated_Source\PSoC5/USBUART_std.c ****         {
 765:.\Generated_Source\PSoC5/USBUART_std.c ****             /* Configure interface number for each EP */
 766:.\Generated_Source\PSoC5/USBUART_std.c ****             USBUART_EP[pEP->addr & USBUART_DIR_UNUSED].interface = pEP->interface;
 767:.\Generated_Source\PSoC5/USBUART_std.c ****             pEP = &pEP[1u];
 768:.\Generated_Source\PSoC5/USBUART_std.c ****         }
 769:.\Generated_Source\PSoC5/USBUART_std.c ****         
 770:.\Generated_Source\PSoC5/USBUART_std.c ****         /* Init pointer on interface class table */
ARM GAS  C:\Users\lenovo\AppData\Local\Temp\ccWMYq61.s 			page 20


 771:.\Generated_Source\PSoC5/USBUART_std.c ****         USBUART_interfaceClass = USBUART_GetInterfaceClassTablePtr();
 772:.\Generated_Source\PSoC5/USBUART_std.c ****         
 773:.\Generated_Source\PSoC5/USBUART_std.c ****     /* Set the endpoint buffer addresses */
 774:.\Generated_Source\PSoC5/USBUART_std.c ****     #if (!USBUART_EP_MANAGEMENT_DMA_AUTO)
 775:.\Generated_Source\PSoC5/USBUART_std.c ****         buffCount = 0u;
 776:.\Generated_Source\PSoC5/USBUART_std.c ****         for (ep = USBUART_EP1; ep < USBUART_MAX_EP; ++ep)
 777:.\Generated_Source\PSoC5/USBUART_std.c ****         {
 778:.\Generated_Source\PSoC5/USBUART_std.c ****             USBUART_EP[ep].buffOffset = buffCount;        
 779:.\Generated_Source\PSoC5/USBUART_std.c ****             buffCount += USBUART_EP[ep].bufferSize;
 780:.\Generated_Source\PSoC5/USBUART_std.c ****             
 781:.\Generated_Source\PSoC5/USBUART_std.c ****         #if (USBUART_GEN_16BITS_EP_ACCESS)
 782:.\Generated_Source\PSoC5/USBUART_std.c ****             /* Align EP buffers to be event size to access 16-bits DR register. */
 783:.\Generated_Source\PSoC5/USBUART_std.c ****             buffCount += (0u != (buffCount & 0x01u)) ? 1u : 0u;
 784:.\Generated_Source\PSoC5/USBUART_std.c ****         #endif /* (USBUART_GEN_16BITS_EP_ACCESS) */            
 785:.\Generated_Source\PSoC5/USBUART_std.c ****         }
 786:.\Generated_Source\PSoC5/USBUART_std.c ****     #endif /* (!USBUART_EP_MANAGEMENT_DMA_AUTO) */
 787:.\Generated_Source\PSoC5/USBUART_std.c **** 
 788:.\Generated_Source\PSoC5/USBUART_std.c ****         /* Configure hardware registers */
 789:.\Generated_Source\PSoC5/USBUART_std.c ****         USBUART_ConfigReg();
 790:.\Generated_Source\PSoC5/USBUART_std.c ****     }
 791:.\Generated_Source\PSoC5/USBUART_std.c **** }
 792:.\Generated_Source\PSoC5/USBUART_std.c **** 
 793:.\Generated_Source\PSoC5/USBUART_std.c **** 
 794:.\Generated_Source\PSoC5/USBUART_std.c **** /*******************************************************************************
 795:.\Generated_Source\PSoC5/USBUART_std.c **** * Function Name: USBUART_ConfigAltChanged
 796:.\Generated_Source\PSoC5/USBUART_std.c **** ****************************************************************************//**
 797:.\Generated_Source\PSoC5/USBUART_std.c **** *
 798:.\Generated_Source\PSoC5/USBUART_std.c **** *  This routine update configuration for the required endpoints only.
 799:.\Generated_Source\PSoC5/USBUART_std.c **** *  It is called after SET_INTERFACE request when Static memory allocation used.
 800:.\Generated_Source\PSoC5/USBUART_std.c **** *
 801:.\Generated_Source\PSoC5/USBUART_std.c **** * \reentrant
 802:.\Generated_Source\PSoC5/USBUART_std.c **** *  No.
 803:.\Generated_Source\PSoC5/USBUART_std.c **** *
 804:.\Generated_Source\PSoC5/USBUART_std.c **** *******************************************************************************/
 805:.\Generated_Source\PSoC5/USBUART_std.c **** void USBUART_ConfigAltChanged(void) 
 806:.\Generated_Source\PSoC5/USBUART_std.c **** {
 807:.\Generated_Source\PSoC5/USBUART_std.c ****     uint8 ep;
 808:.\Generated_Source\PSoC5/USBUART_std.c ****     uint8 curEp;
 809:.\Generated_Source\PSoC5/USBUART_std.c ****     uint8 epType;
 810:.\Generated_Source\PSoC5/USBUART_std.c ****     uint8 i;
 811:.\Generated_Source\PSoC5/USBUART_std.c ****     uint8 interfaceNum;
 812:.\Generated_Source\PSoC5/USBUART_std.c **** 
 813:.\Generated_Source\PSoC5/USBUART_std.c ****     const T_USBUART_LUT CYCODE *pTmp;
 814:.\Generated_Source\PSoC5/USBUART_std.c ****     const T_USBUART_EP_SETTINGS_BLOCK CYCODE *pEP;
 815:.\Generated_Source\PSoC5/USBUART_std.c **** 
 816:.\Generated_Source\PSoC5/USBUART_std.c ****     /* Init Endpoints and Device Status if configured */
 817:.\Generated_Source\PSoC5/USBUART_std.c ****     if (USBUART_configuration > 0u)
 818:.\Generated_Source\PSoC5/USBUART_std.c ****     {
 819:.\Generated_Source\PSoC5/USBUART_std.c ****         /* Get number of endpoints configurations (ep). */
 820:.\Generated_Source\PSoC5/USBUART_std.c ****         pTmp = USBUART_GetConfigTablePtr(USBUART_configuration - 1u);
 821:.\Generated_Source\PSoC5/USBUART_std.c ****         pTmp = &pTmp[1u];
 822:.\Generated_Source\PSoC5/USBUART_std.c ****         ep = pTmp->c;
 823:.\Generated_Source\PSoC5/USBUART_std.c **** 
 824:.\Generated_Source\PSoC5/USBUART_std.c ****         /* Get pointer to endpoints setting table (pEP). */
 825:.\Generated_Source\PSoC5/USBUART_std.c ****         pEP = (const T_USBUART_EP_SETTINGS_BLOCK CYCODE *) pTmp->p_list;
 826:.\Generated_Source\PSoC5/USBUART_std.c ****         
 827:.\Generated_Source\PSoC5/USBUART_std.c ****         /* Look through all possible endpoint configurations. Find endpoints 
ARM GAS  C:\Users\lenovo\AppData\Local\Temp\ccWMYq61.s 			page 21


 828:.\Generated_Source\PSoC5/USBUART_std.c ****         * which belong to current interface and alternate settings for 
 829:.\Generated_Source\PSoC5/USBUART_std.c ****         * re-configuration.
 830:.\Generated_Source\PSoC5/USBUART_std.c ****         */
 831:.\Generated_Source\PSoC5/USBUART_std.c ****         interfaceNum = USBUART_interfaceNumber;
 832:.\Generated_Source\PSoC5/USBUART_std.c ****         for (i = 0u; i < ep; i++)
 833:.\Generated_Source\PSoC5/USBUART_std.c ****         {
 834:.\Generated_Source\PSoC5/USBUART_std.c ****             /* Find endpoints which belong to current interface and alternate settings. */
 835:.\Generated_Source\PSoC5/USBUART_std.c ****             if ((interfaceNum == pEP->interface) && 
 836:.\Generated_Source\PSoC5/USBUART_std.c ****                 (USBUART_interfaceSetting[interfaceNum] == pEP->altSetting))
 837:.\Generated_Source\PSoC5/USBUART_std.c ****             {
 838:.\Generated_Source\PSoC5/USBUART_std.c ****                 curEp  = ((uint8) pEP->addr & USBUART_DIR_UNUSED);
 839:.\Generated_Source\PSoC5/USBUART_std.c ****                 epType = ((uint8) pEP->attributes & USBUART_EP_TYPE_MASK);
 840:.\Generated_Source\PSoC5/USBUART_std.c ****                 
 841:.\Generated_Source\PSoC5/USBUART_std.c ****                 /* Change the SIE mode for the selected EP to NAK ALL */
 842:.\Generated_Source\PSoC5/USBUART_std.c ****                 USBUART_EP[curEp].epToggle   = 0u;
 843:.\Generated_Source\PSoC5/USBUART_std.c ****                 USBUART_EP[curEp].addr       = pEP->addr;
 844:.\Generated_Source\PSoC5/USBUART_std.c ****                 USBUART_EP[curEp].attrib     = pEP->attributes;
 845:.\Generated_Source\PSoC5/USBUART_std.c ****                 USBUART_EP[curEp].bufferSize = pEP->bufferSize;
 846:.\Generated_Source\PSoC5/USBUART_std.c **** 
 847:.\Generated_Source\PSoC5/USBUART_std.c ****                 if (0u != (pEP->addr & USBUART_DIR_IN))
 848:.\Generated_Source\PSoC5/USBUART_std.c ****                 {
 849:.\Generated_Source\PSoC5/USBUART_std.c ****                     /* IN Endpoint */
 850:.\Generated_Source\PSoC5/USBUART_std.c ****                     USBUART_EP[curEp].epMode     = USBUART_GET_ACTIVE_IN_EP_CR0_MODE(epType);
 851:.\Generated_Source\PSoC5/USBUART_std.c ****                     USBUART_EP[curEp].apiEpState = USBUART_EVENT_PENDING;
 852:.\Generated_Source\PSoC5/USBUART_std.c ****                 }
 853:.\Generated_Source\PSoC5/USBUART_std.c ****                 else
 854:.\Generated_Source\PSoC5/USBUART_std.c ****                 {
 855:.\Generated_Source\PSoC5/USBUART_std.c ****                     /* OUT Endpoint */
 856:.\Generated_Source\PSoC5/USBUART_std.c ****                     USBUART_EP[curEp].epMode     = USBUART_GET_ACTIVE_OUT_EP_CR0_MODE(epType);
 857:.\Generated_Source\PSoC5/USBUART_std.c ****                     USBUART_EP[curEp].apiEpState = USBUART_NO_EVENT_PENDING;
 858:.\Generated_Source\PSoC5/USBUART_std.c ****                 }
 859:.\Generated_Source\PSoC5/USBUART_std.c ****                 
 860:.\Generated_Source\PSoC5/USBUART_std.c ****                 /* Make SIE to NAK any endpoint requests */
 861:.\Generated_Source\PSoC5/USBUART_std.c ****                 USBUART_SIE_EP_BASE.sieEp[curEp].epCr0 = USBUART_MODE_NAK_IN_OUT;
 862:.\Generated_Source\PSoC5/USBUART_std.c **** 
 863:.\Generated_Source\PSoC5/USBUART_std.c ****             #if (USBUART_EP_MANAGEMENT_DMA_AUTO)
 864:.\Generated_Source\PSoC5/USBUART_std.c ****                 /* Clear IN data ready. */
 865:.\Generated_Source\PSoC5/USBUART_std.c ****                 USBUART_ARB_EP_BASE.arbEp[curEp].epCfg &= (uint8) ~USBUART_ARB_EPX_CFG_IN_DATA_RDY;
 866:.\Generated_Source\PSoC5/USBUART_std.c **** 
 867:.\Generated_Source\PSoC5/USBUART_std.c ****                 /* Select endpoint number of reconfiguration */
 868:.\Generated_Source\PSoC5/USBUART_std.c ****                 USBUART_DYN_RECONFIG_REG = (uint8) ((curEp - 1u) << USBUART_DYN_RECONFIG_EP_SHIFT);
 869:.\Generated_Source\PSoC5/USBUART_std.c ****                 
 870:.\Generated_Source\PSoC5/USBUART_std.c ****                 /* Request for dynamic re-configuration of endpoint. */
 871:.\Generated_Source\PSoC5/USBUART_std.c ****                 USBUART_DYN_RECONFIG_REG |= USBUART_DYN_RECONFIG_ENABLE;
 872:.\Generated_Source\PSoC5/USBUART_std.c ****                 
 873:.\Generated_Source\PSoC5/USBUART_std.c ****                 /* Wait until block is ready for re-configuration */
 874:.\Generated_Source\PSoC5/USBUART_std.c ****                 while (0u == (USBUART_DYN_RECONFIG_REG & USBUART_DYN_RECONFIG_RDY_STS))
 875:.\Generated_Source\PSoC5/USBUART_std.c ****                 {
 876:.\Generated_Source\PSoC5/USBUART_std.c ****                 }
 877:.\Generated_Source\PSoC5/USBUART_std.c ****                 
 878:.\Generated_Source\PSoC5/USBUART_std.c ****                 /* Once DYN_RECONFIG_RDY_STS bit is set, FW can change the EP configuration. */
 879:.\Generated_Source\PSoC5/USBUART_std.c ****                 /* Change EP Type with new direction */
 880:.\Generated_Source\PSoC5/USBUART_std.c ****                 if (0u != (pEP->addr & USBUART_DIR_IN))
 881:.\Generated_Source\PSoC5/USBUART_std.c ****                 {
 882:.\Generated_Source\PSoC5/USBUART_std.c ****                     /* Set endpoint type: 0 - IN and 1 - OUT. */
 883:.\Generated_Source\PSoC5/USBUART_std.c ****                     USBUART_EP_TYPE_REG &= (uint8) ~(uint8)((uint8) 0x01u << (curEp - 1u));
 884:.\Generated_Source\PSoC5/USBUART_std.c ****                     
ARM GAS  C:\Users\lenovo\AppData\Local\Temp\ccWMYq61.s 			page 22


 885:.\Generated_Source\PSoC5/USBUART_std.c ****                 #if (CY_PSOC4)
 886:.\Generated_Source\PSoC5/USBUART_std.c ****                     /* Clear DMA_TERMIN for IN endpoint */
 887:.\Generated_Source\PSoC5/USBUART_std.c ****                     USBUART_ARB_EP_BASE.arbEp[curEp].epIntEn &= (uint32) ~USBUART_ARB_EPX_INT_DMA_T
 888:.\Generated_Source\PSoC5/USBUART_std.c ****                 #endif /* (CY_PSOC4) */
 889:.\Generated_Source\PSoC5/USBUART_std.c ****                 }
 890:.\Generated_Source\PSoC5/USBUART_std.c ****                 else
 891:.\Generated_Source\PSoC5/USBUART_std.c ****                 {
 892:.\Generated_Source\PSoC5/USBUART_std.c ****                     /* Set endpoint type: 0 - IN and 1- OUT. */
 893:.\Generated_Source\PSoC5/USBUART_std.c ****                     USBUART_EP_TYPE_REG |= (uint8) ((uint8) 0x01u << (curEp - 1u));
 894:.\Generated_Source\PSoC5/USBUART_std.c ****                     
 895:.\Generated_Source\PSoC5/USBUART_std.c ****                 #if (CY_PSOC4)
 896:.\Generated_Source\PSoC5/USBUART_std.c ****                     /* Set DMA_TERMIN for OUT endpoint */
 897:.\Generated_Source\PSoC5/USBUART_std.c ****                     USBUART_ARB_EP_BASE.arbEp[curEp].epIntEn |= (uint32) USBUART_ARB_EPX_INT_DMA_TE
 898:.\Generated_Source\PSoC5/USBUART_std.c ****                 #endif /* (CY_PSOC4) */
 899:.\Generated_Source\PSoC5/USBUART_std.c ****                 }
 900:.\Generated_Source\PSoC5/USBUART_std.c ****                 
 901:.\Generated_Source\PSoC5/USBUART_std.c ****                 /* Complete dynamic re-configuration: all endpoint related status and signals 
 902:.\Generated_Source\PSoC5/USBUART_std.c ****                 * are set into the default state.
 903:.\Generated_Source\PSoC5/USBUART_std.c ****                 */
 904:.\Generated_Source\PSoC5/USBUART_std.c ****                 USBUART_DYN_RECONFIG_REG &= (uint8) ~USBUART_DYN_RECONFIG_ENABLE;
 905:.\Generated_Source\PSoC5/USBUART_std.c **** 
 906:.\Generated_Source\PSoC5/USBUART_std.c ****             #else
 907:.\Generated_Source\PSoC5/USBUART_std.c ****                 USBUART_SIE_EP_BASE.sieEp[curEp].epCnt0 = HI8(USBUART_EP[curEp].bufferSize);
 908:.\Generated_Source\PSoC5/USBUART_std.c ****                 USBUART_SIE_EP_BASE.sieEp[curEp].epCnt1 = LO8(USBUART_EP[curEp].bufferSize);
 909:.\Generated_Source\PSoC5/USBUART_std.c ****                 
 910:.\Generated_Source\PSoC5/USBUART_std.c ****                 #if (CY_PSOC4)
 911:.\Generated_Source\PSoC5/USBUART_std.c ****                     USBUART_ARB_EP16_BASE.arbEp[curEp].rwRa16  = (uint32) USBUART_EP[curEp].buffOff
 912:.\Generated_Source\PSoC5/USBUART_std.c ****                     USBUART_ARB_EP16_BASE.arbEp[curEp].rwWa16  = (uint32) USBUART_EP[curEp].buffOff
 913:.\Generated_Source\PSoC5/USBUART_std.c ****                 #else
 914:.\Generated_Source\PSoC5/USBUART_std.c ****                     USBUART_ARB_EP_BASE.arbEp[curEp].rwRa    = LO8(USBUART_EP[curEp].buffOffset);
 915:.\Generated_Source\PSoC5/USBUART_std.c ****                     USBUART_ARB_EP_BASE.arbEp[curEp].rwRaMsb = HI8(USBUART_EP[curEp].buffOffset);
 916:.\Generated_Source\PSoC5/USBUART_std.c ****                     USBUART_ARB_EP_BASE.arbEp[curEp].rwWa    = LO8(USBUART_EP[curEp].buffOffset);
 917:.\Generated_Source\PSoC5/USBUART_std.c ****                     USBUART_ARB_EP_BASE.arbEp[curEp].rwWaMsb = HI8(USBUART_EP[curEp].buffOffset);
 918:.\Generated_Source\PSoC5/USBUART_std.c ****                 #endif /* (CY_PSOC4) */                
 919:.\Generated_Source\PSoC5/USBUART_std.c ****             #endif /* (USBUART_EP_MANAGEMENT_DMA_AUTO) */
 920:.\Generated_Source\PSoC5/USBUART_std.c ****             }
 921:.\Generated_Source\PSoC5/USBUART_std.c ****             
 922:.\Generated_Source\PSoC5/USBUART_std.c ****             pEP = &pEP[1u]; /* Get next EP element */
 923:.\Generated_Source\PSoC5/USBUART_std.c ****         }
 924:.\Generated_Source\PSoC5/USBUART_std.c ****         
 925:.\Generated_Source\PSoC5/USBUART_std.c ****         /* The main loop has to re-enable DMA and OUT endpoint */
 926:.\Generated_Source\PSoC5/USBUART_std.c ****     }
 927:.\Generated_Source\PSoC5/USBUART_std.c **** }
 928:.\Generated_Source\PSoC5/USBUART_std.c **** 
 929:.\Generated_Source\PSoC5/USBUART_std.c **** 
 930:.\Generated_Source\PSoC5/USBUART_std.c **** /*******************************************************************************
 931:.\Generated_Source\PSoC5/USBUART_std.c **** * Function Name: USBUART_GetConfigTablePtr
 932:.\Generated_Source\PSoC5/USBUART_std.c **** ****************************************************************************//**
 933:.\Generated_Source\PSoC5/USBUART_std.c **** *
 934:.\Generated_Source\PSoC5/USBUART_std.c **** *  This routine returns a pointer a configuration table entry
 935:.\Generated_Source\PSoC5/USBUART_std.c **** *
 936:.\Generated_Source\PSoC5/USBUART_std.c **** *  \param confIndex:  Configuration Index
 937:.\Generated_Source\PSoC5/USBUART_std.c **** *
 938:.\Generated_Source\PSoC5/USBUART_std.c **** * \return
 939:.\Generated_Source\PSoC5/USBUART_std.c **** *  Device Descriptor pointer or NULL when descriptor does not exist.
 940:.\Generated_Source\PSoC5/USBUART_std.c **** *
 941:.\Generated_Source\PSoC5/USBUART_std.c **** *******************************************************************************/
ARM GAS  C:\Users\lenovo\AppData\Local\Temp\ccWMYq61.s 			page 23


 942:.\Generated_Source\PSoC5/USBUART_std.c **** const T_USBUART_LUT CYCODE *USBUART_GetConfigTablePtr(uint8 confIndex)
 943:.\Generated_Source\PSoC5/USBUART_std.c ****                                                         
 944:.\Generated_Source\PSoC5/USBUART_std.c **** {
 307              		.loc 1 944 0
 308              		.cfi_startproc
 309              		@ args = 0, pretend = 0, frame = 0
 310              		@ frame_needed = 0, uses_anonymous_args = 0
 311              		@ link register save eliminated.
 312              	.LVL20:
 945:.\Generated_Source\PSoC5/USBUART_std.c ****     /* Device Table */
 946:.\Generated_Source\PSoC5/USBUART_std.c ****     const T_USBUART_LUT CYCODE *pTmp;
 947:.\Generated_Source\PSoC5/USBUART_std.c **** 
 948:.\Generated_Source\PSoC5/USBUART_std.c ****     pTmp = (const T_USBUART_LUT CYCODE *) USBUART_TABLE[USBUART_device].p_list;
 313              		.loc 1 948 0
 314 0000 074B     		ldr	r3, .L27
 315 0002 1B78     		ldrb	r3, [r3]	@ zero_extendqisi2
 316 0004 074A     		ldr	r2, .L27+4
 317 0006 02EBC302 		add	r2, r2, r3, lsl #3
 318 000a 5368     		ldr	r3, [r2, #4]
 319              	.LVL21:
 949:.\Generated_Source\PSoC5/USBUART_std.c **** 
 950:.\Generated_Source\PSoC5/USBUART_std.c ****     /* The first entry points to the Device Descriptor,
 951:.\Generated_Source\PSoC5/USBUART_std.c ****     *  the second entry point to the BOS Descriptor
 952:.\Generated_Source\PSoC5/USBUART_std.c ****     *  the rest configuration entries.
 953:.\Generated_Source\PSoC5/USBUART_std.c ****     *  Set pointer to the first Configuration Descriptor
 954:.\Generated_Source\PSoC5/USBUART_std.c ****     */
 955:.\Generated_Source\PSoC5/USBUART_std.c ****     pTmp = &pTmp[2u];
 956:.\Generated_Source\PSoC5/USBUART_std.c ****     /* For this table, c is the number of configuration descriptors  */
 957:.\Generated_Source\PSoC5/USBUART_std.c ****     if(confIndex >= pTmp->c)   /* Verify that required configuration descriptor exists */
 320              		.loc 1 957 0
 321 000c 1A7C     		ldrb	r2, [r3, #16]	@ zero_extendqisi2
 322 000e 8242     		cmp	r2, r0
 323 0010 03D9     		bls	.L26
 324 0012 03EBC003 		add	r3, r3, r0, lsl #3
 325              	.LVL22:
 958:.\Generated_Source\PSoC5/USBUART_std.c ****     {
 959:.\Generated_Source\PSoC5/USBUART_std.c ****         pTmp = (const T_USBUART_LUT CYCODE *) NULL;
 960:.\Generated_Source\PSoC5/USBUART_std.c ****     }
 961:.\Generated_Source\PSoC5/USBUART_std.c ****     else
 962:.\Generated_Source\PSoC5/USBUART_std.c ****     {
 963:.\Generated_Source\PSoC5/USBUART_std.c ****         pTmp = (const T_USBUART_LUT CYCODE *) pTmp[confIndex].p_list;
 326              		.loc 1 963 0
 327 0016 5869     		ldr	r0, [r3, #20]
 328              	.LVL23:
 329 0018 7047     		bx	lr
 330              	.LVL24:
 331              	.L26:
 959:.\Generated_Source\PSoC5/USBUART_std.c ****     }
 332              		.loc 1 959 0
 333 001a 0020     		movs	r0, #0
 334              	.LVL25:
 964:.\Generated_Source\PSoC5/USBUART_std.c ****     }
 965:.\Generated_Source\PSoC5/USBUART_std.c **** 
 966:.\Generated_Source\PSoC5/USBUART_std.c ****     return (pTmp);
 967:.\Generated_Source\PSoC5/USBUART_std.c **** }
 335              		.loc 1 967 0
 336 001c 7047     		bx	lr
ARM GAS  C:\Users\lenovo\AppData\Local\Temp\ccWMYq61.s 			page 24


 337              	.L28:
 338 001e 00BF     		.align	2
 339              	.L27:
 340 0020 00000000 		.word	USBUART_device
 341 0024 00000000 		.word	USBUART_TABLE
 342              		.cfi_endproc
 343              	.LFE6:
 344              		.size	USBUART_GetConfigTablePtr, .-USBUART_GetConfigTablePtr
 345              		.section	.text.USBUART_ConfigAltChanged,"ax",%progbits
 346              		.align	2
 347              		.global	USBUART_ConfigAltChanged
 348              		.thumb
 349              		.thumb_func
 350              		.type	USBUART_ConfigAltChanged, %function
 351              	USBUART_ConfigAltChanged:
 352              	.LFB5:
 806:.\Generated_Source\PSoC5/USBUART_std.c ****     uint8 ep;
 353              		.loc 1 806 0
 354              		.cfi_startproc
 355              		@ args = 0, pretend = 0, frame = 0
 356              		@ frame_needed = 0, uses_anonymous_args = 0
 357 0000 F8B5     		push	{r3, r4, r5, r6, r7, lr}
 358              		.cfi_def_cfa_offset 24
 359              		.cfi_offset 3, -24
 360              		.cfi_offset 4, -20
 361              		.cfi_offset 5, -16
 362              		.cfi_offset 6, -12
 363              		.cfi_offset 7, -8
 364              		.cfi_offset 14, -4
 817:.\Generated_Source\PSoC5/USBUART_std.c ****     {
 365              		.loc 1 817 0
 366 0002 404B     		ldr	r3, .L41
 367 0004 1B78     		ldrb	r3, [r3]	@ zero_extendqisi2
 368 0006 13F0FF0F 		tst	r3, #255
 369 000a 79D0     		beq	.L29
 820:.\Generated_Source\PSoC5/USBUART_std.c ****         pTmp = &pTmp[1u];
 370              		.loc 1 820 0
 371 000c 3D4B     		ldr	r3, .L41
 372 000e 1878     		ldrb	r0, [r3]	@ zero_extendqisi2
 373 0010 0138     		subs	r0, r0, #1
 374 0012 C0B2     		uxtb	r0, r0
 375 0014 FFF7FEFF 		bl	USBUART_GetConfigTablePtr
 376              	.LVL26:
 822:.\Generated_Source\PSoC5/USBUART_std.c **** 
 377              		.loc 1 822 0
 378 0018 047A     		ldrb	r4, [r0, #8]	@ zero_extendqisi2
 379              	.LVL27:
 825:.\Generated_Source\PSoC5/USBUART_std.c ****         
 380              		.loc 1 825 0
 381 001a C268     		ldr	r2, [r0, #12]
 382              	.LVL28:
 831:.\Generated_Source\PSoC5/USBUART_std.c ****         for (i = 0u; i < ep; i++)
 383              		.loc 1 831 0
 384 001c 3A4B     		ldr	r3, .L41+4
 385 001e 1878     		ldrb	r0, [r3]	@ zero_extendqisi2
 386              	.LVL29:
 387 0020 C0B2     		uxtb	r0, r0
ARM GAS  C:\Users\lenovo\AppData\Local\Temp\ccWMYq61.s 			page 25


 388              	.LVL30:
 832:.\Generated_Source\PSoC5/USBUART_std.c ****         {
 389              		.loc 1 832 0
 390 0022 0023     		movs	r3, #0
 391 0024 6AE0     		b	.L31
 392              	.LVL31:
 393              	.L37:
 835:.\Generated_Source\PSoC5/USBUART_std.c ****                 (USBUART_interfaceSetting[interfaceNum] == pEP->altSetting))
 394              		.loc 1 835 0
 395 0026 1178     		ldrb	r1, [r2]	@ zero_extendqisi2
 396 0028 8142     		cmp	r1, r0
 397 002a 64D1     		bne	.L32
 836:.\Generated_Source\PSoC5/USBUART_std.c ****             {
 398              		.loc 1 836 0 discriminator 1
 399 002c 3749     		ldr	r1, .L41+8
 400 002e 095C     		ldrb	r1, [r1, r0]	@ zero_extendqisi2
 401 0030 C9B2     		uxtb	r1, r1
 402 0032 5578     		ldrb	r5, [r2, #1]	@ zero_extendqisi2
 835:.\Generated_Source\PSoC5/USBUART_std.c ****                 (USBUART_interfaceSetting[interfaceNum] == pEP->altSetting))
 403              		.loc 1 835 0 discriminator 1
 404 0034 A942     		cmp	r1, r5
 405 0036 5ED1     		bne	.L32
 838:.\Generated_Source\PSoC5/USBUART_std.c ****                 epType = ((uint8) pEP->attributes & USBUART_EP_TYPE_MASK);
 406              		.loc 1 838 0
 407 0038 9178     		ldrb	r1, [r2, #2]	@ zero_extendqisi2
 408 003a 01F07F01 		and	r1, r1, #127
 409              	.LVL32:
 839:.\Generated_Source\PSoC5/USBUART_std.c ****                 
 410              		.loc 1 839 0
 411 003e D678     		ldrb	r6, [r2, #3]	@ zero_extendqisi2
 412 0040 06F00306 		and	r6, r6, #3
 413              	.LVL33:
 842:.\Generated_Source\PSoC5/USBUART_std.c ****                 USBUART_EP[curEp].addr       = pEP->addr;
 414              		.loc 1 842 0
 415 0044 DFF8C8E0 		ldr	lr, .L41+12
 416 0048 4D00     		lsls	r5, r1, #1
 417 004a 0D44     		add	r5, r5, r1
 418 004c AD00     		lsls	r5, r5, #2
 419 004e 0EEB0507 		add	r7, lr, r5
 420 0052 4FF0000C 		mov	ip, #0
 421 0056 87F803C0 		strb	ip, [r7, #3]
 843:.\Generated_Source\PSoC5/USBUART_std.c ****                 USBUART_EP[curEp].attrib     = pEP->attributes;
 422              		.loc 1 843 0
 423 005a 92F802C0 		ldrb	ip, [r2, #2]	@ zero_extendqisi2
 424 005e 87F804C0 		strb	ip, [r7, #4]
 844:.\Generated_Source\PSoC5/USBUART_std.c ****                 USBUART_EP[curEp].bufferSize = pEP->bufferSize;
 425              		.loc 1 844 0
 426 0062 92F803C0 		ldrb	ip, [r2, #3]	@ zero_extendqisi2
 427 0066 0EF805C0 		strb	ip, [lr, r5]
 845:.\Generated_Source\PSoC5/USBUART_std.c **** 
 428              		.loc 1 845 0
 429 006a 9588     		ldrh	r5, [r2, #4]
 430 006c 3D81     		strh	r5, [r7, #8]	@ movhi
 847:.\Generated_Source\PSoC5/USBUART_std.c ****                 {
 431              		.loc 1 847 0
 432 006e 92F90250 		ldrsb	r5, [r2, #2]
 433 0072 002D     		cmp	r5, #0
ARM GAS  C:\Users\lenovo\AppData\Local\Temp\ccWMYq61.s 			page 26


 434 0074 0DDA     		bge	.L33
 850:.\Generated_Source\PSoC5/USBUART_std.c ****                     USBUART_EP[curEp].apiEpState = USBUART_EVENT_PENDING;
 435              		.loc 1 850 0
 436 0076 012E     		cmp	r6, #1
 437 0078 01D1     		bne	.L38
 438 007a 0727     		movs	r7, #7
 439 007c 00E0     		b	.L34
 440              	.L38:
 441 007e 0D27     		movs	r7, #13
 442              	.L34:
 850:.\Generated_Source\PSoC5/USBUART_std.c ****                     USBUART_EP[curEp].apiEpState = USBUART_EVENT_PENDING;
 443              		.loc 1 850 0 is_stmt 0 discriminator 4
 444 0080 4D00     		lsls	r5, r1, #1
 445 0082 0D44     		add	r5, r5, r1
 446 0084 AD00     		lsls	r5, r5, #2
 447 0086 224E     		ldr	r6, .L41+12
 448              	.LVL34:
 449 0088 3544     		add	r5, r5, r6
 450 008a 6F71     		strb	r7, [r5, #5]
 851:.\Generated_Source\PSoC5/USBUART_std.c ****                 }
 451              		.loc 1 851 0 is_stmt 1 discriminator 4
 452 008c 0126     		movs	r6, #1
 453 008e 6E70     		strb	r6, [r5, #1]
 454 0090 0CE0     		b	.L35
 455              	.LVL35:
 456              	.L33:
 856:.\Generated_Source\PSoC5/USBUART_std.c ****                     USBUART_EP[curEp].apiEpState = USBUART_NO_EVENT_PENDING;
 457              		.loc 1 856 0
 458 0092 012E     		cmp	r6, #1
 459 0094 01D1     		bne	.L39
 460 0096 0527     		movs	r7, #5
 461 0098 00E0     		b	.L36
 462              	.L39:
 463 009a 0927     		movs	r7, #9
 464              	.L36:
 856:.\Generated_Source\PSoC5/USBUART_std.c ****                     USBUART_EP[curEp].apiEpState = USBUART_NO_EVENT_PENDING;
 465              		.loc 1 856 0 is_stmt 0 discriminator 4
 466 009c 4D00     		lsls	r5, r1, #1
 467 009e 0D44     		add	r5, r5, r1
 468 00a0 AD00     		lsls	r5, r5, #2
 469 00a2 1B4E     		ldr	r6, .L41+12
 470              	.LVL36:
 471 00a4 3544     		add	r5, r5, r6
 472 00a6 6F71     		strb	r7, [r5, #5]
 857:.\Generated_Source\PSoC5/USBUART_std.c ****                 }
 473              		.loc 1 857 0 is_stmt 1 discriminator 4
 474 00a8 0026     		movs	r6, #0
 475 00aa 6E70     		strb	r6, [r5, #1]
 476              	.L35:
 861:.\Generated_Source\PSoC5/USBUART_std.c **** 
 477              		.loc 1 861 0
 478 00ac DFF868E0 		ldr	lr, .L41+20
 479 00b0 0F01     		lsls	r7, r1, #4
 480 00b2 0EEB0706 		add	r6, lr, r7
 481 00b6 0125     		movs	r5, #1
 482 00b8 B570     		strb	r5, [r6, #2]
 907:.\Generated_Source\PSoC5/USBUART_std.c ****                 USBUART_SIE_EP_BASE.sieEp[curEp].epCnt1 = LO8(USBUART_EP[curEp].bufferSize);
ARM GAS  C:\Users\lenovo\AppData\Local\Temp\ccWMYq61.s 			page 27


 483              		.loc 1 907 0
 484 00ba 01FA05F5 		lsl	r5, r1, r5
 485 00be 2944     		add	r1, r1, r5
 486              	.LVL37:
 487 00c0 8900     		lsls	r1, r1, #2
 488 00c2 134D     		ldr	r5, .L41+12
 489 00c4 2944     		add	r1, r1, r5
 490 00c6 0D89     		ldrh	r5, [r1, #8]
 491 00c8 C5F30725 		ubfx	r5, r5, #8, #8
 492 00cc 0EF80750 		strb	r5, [lr, r7]
 908:.\Generated_Source\PSoC5/USBUART_std.c ****                 
 493              		.loc 1 908 0
 494 00d0 0D89     		ldrh	r5, [r1, #8]
 495 00d2 EDB2     		uxtb	r5, r5
 496 00d4 7570     		strb	r5, [r6, #1]
 914:.\Generated_Source\PSoC5/USBUART_std.c ****                     USBUART_ARB_EP_BASE.arbEp[curEp].rwRaMsb = HI8(USBUART_EP[curEp].buffOffset);
 497              		.loc 1 914 0
 498 00d6 CE88     		ldrh	r6, [r1, #6]
 499 00d8 F6B2     		uxtb	r6, r6
 500 00da 0E4D     		ldr	r5, .L41+16
 501 00dc 3D44     		add	r5, r5, r7
 502 00de AE71     		strb	r6, [r5, #6]
 915:.\Generated_Source\PSoC5/USBUART_std.c ****                     USBUART_ARB_EP_BASE.arbEp[curEp].rwWa    = LO8(USBUART_EP[curEp].buffOffset);
 503              		.loc 1 915 0
 504 00e0 CE88     		ldrh	r6, [r1, #6]
 505 00e2 C6F30726 		ubfx	r6, r6, #8, #8
 506 00e6 EE71     		strb	r6, [r5, #7]
 916:.\Generated_Source\PSoC5/USBUART_std.c ****                     USBUART_ARB_EP_BASE.arbEp[curEp].rwWaMsb = HI8(USBUART_EP[curEp].buffOffset);
 507              		.loc 1 916 0
 508 00e8 CE88     		ldrh	r6, [r1, #6]
 509 00ea F6B2     		uxtb	r6, r6
 510 00ec 2E71     		strb	r6, [r5, #4]
 917:.\Generated_Source\PSoC5/USBUART_std.c ****                 #endif /* (CY_PSOC4) */                
 511              		.loc 1 917 0
 512 00ee C988     		ldrh	r1, [r1, #6]
 513 00f0 C1F30721 		ubfx	r1, r1, #8, #8
 514 00f4 6971     		strb	r1, [r5, #5]
 515              	.L32:
 922:.\Generated_Source\PSoC5/USBUART_std.c ****         }
 516              		.loc 1 922 0 discriminator 2
 517 00f6 0832     		adds	r2, r2, #8
 518              	.LVL38:
 832:.\Generated_Source\PSoC5/USBUART_std.c ****         {
 519              		.loc 1 832 0 discriminator 2
 520 00f8 0133     		adds	r3, r3, #1
 521              	.LVL39:
 522 00fa DBB2     		uxtb	r3, r3
 523              	.LVL40:
 524              	.L31:
 832:.\Generated_Source\PSoC5/USBUART_std.c ****         {
 525              		.loc 1 832 0 is_stmt 0 discriminator 1
 526 00fc A342     		cmp	r3, r4
 527 00fe 92D3     		bcc	.L37
 528              	.LVL41:
 529              	.L29:
 530 0100 F8BD     		pop	{r3, r4, r5, r6, r7, pc}
 531              	.L42:
ARM GAS  C:\Users\lenovo\AppData\Local\Temp\ccWMYq61.s 			page 28


 532 0102 00BF     		.align	2
 533              	.L41:
 534 0104 00000000 		.word	USBUART_configuration
 535 0108 00000000 		.word	USBUART_interfaceNumber
 536 010c 00000000 		.word	USBUART_interfaceSetting
 537 0110 00000000 		.word	USBUART_EP
 538 0114 70600040 		.word	1073766512
 539 0118 FC5F0040 		.word	1073766396
 540              		.cfi_endproc
 541              	.LFE5:
 542              		.size	USBUART_ConfigAltChanged, .-USBUART_ConfigAltChanged
 543              		.section	.text.USBUART_GetDeviceTablePtr,"ax",%progbits
 544              		.align	2
 545              		.global	USBUART_GetDeviceTablePtr
 546              		.thumb
 547              		.thumb_func
 548              		.type	USBUART_GetDeviceTablePtr, %function
 549              	USBUART_GetDeviceTablePtr:
 550              	.LFB7:
 968:.\Generated_Source\PSoC5/USBUART_std.c **** 
 969:.\Generated_Source\PSoC5/USBUART_std.c **** 
 970:.\Generated_Source\PSoC5/USBUART_std.c **** #if (USBUART_BOS_ENABLE)
 971:.\Generated_Source\PSoC5/USBUART_std.c ****     /*******************************************************************************
 972:.\Generated_Source\PSoC5/USBUART_std.c ****     * Function Name: USBUART_GetBOSPtr
 973:.\Generated_Source\PSoC5/USBUART_std.c ****     ****************************************************************************//**
 974:.\Generated_Source\PSoC5/USBUART_std.c ****     *
 975:.\Generated_Source\PSoC5/USBUART_std.c ****     *  This routine returns a pointer a BOS table entry
 976:.\Generated_Source\PSoC5/USBUART_std.c ****     *
 977:.\Generated_Source\PSoC5/USBUART_std.c ****     *  
 978:.\Generated_Source\PSoC5/USBUART_std.c ****     *
 979:.\Generated_Source\PSoC5/USBUART_std.c ****     * \return
 980:.\Generated_Source\PSoC5/USBUART_std.c ****     *  BOS Descriptor pointer or NULL when descriptor does not exist.
 981:.\Generated_Source\PSoC5/USBUART_std.c ****     *
 982:.\Generated_Source\PSoC5/USBUART_std.c ****     *******************************************************************************/
 983:.\Generated_Source\PSoC5/USBUART_std.c ****     const T_USBUART_LUT CYCODE *USBUART_GetBOSPtr(void)
 984:.\Generated_Source\PSoC5/USBUART_std.c ****                                                             
 985:.\Generated_Source\PSoC5/USBUART_std.c ****     {
 986:.\Generated_Source\PSoC5/USBUART_std.c ****         /* Device Table */
 987:.\Generated_Source\PSoC5/USBUART_std.c ****         const T_USBUART_LUT CYCODE *pTmp;
 988:.\Generated_Source\PSoC5/USBUART_std.c **** 
 989:.\Generated_Source\PSoC5/USBUART_std.c ****         pTmp = (const T_USBUART_LUT CYCODE *) USBUART_TABLE[USBUART_device].p_list;
 990:.\Generated_Source\PSoC5/USBUART_std.c **** 
 991:.\Generated_Source\PSoC5/USBUART_std.c ****         /* The first entry points to the Device Descriptor,
 992:.\Generated_Source\PSoC5/USBUART_std.c ****         *  the second entry points to the BOS Descriptor
 993:.\Generated_Source\PSoC5/USBUART_std.c ****         */
 994:.\Generated_Source\PSoC5/USBUART_std.c ****         pTmp = &pTmp[1u];
 995:.\Generated_Source\PSoC5/USBUART_std.c ****         pTmp = (const T_USBUART_LUT CYCODE *) pTmp->p_list;
 996:.\Generated_Source\PSoC5/USBUART_std.c ****         return (pTmp);
 997:.\Generated_Source\PSoC5/USBUART_std.c ****     }
 998:.\Generated_Source\PSoC5/USBUART_std.c **** #endif /* (USBUART_BOS_ENABLE) */
 999:.\Generated_Source\PSoC5/USBUART_std.c **** 
1000:.\Generated_Source\PSoC5/USBUART_std.c **** 
1001:.\Generated_Source\PSoC5/USBUART_std.c **** /*******************************************************************************
1002:.\Generated_Source\PSoC5/USBUART_std.c **** * Function Name: USBUART_GetDeviceTablePtr
1003:.\Generated_Source\PSoC5/USBUART_std.c **** ****************************************************************************//**
1004:.\Generated_Source\PSoC5/USBUART_std.c **** *
1005:.\Generated_Source\PSoC5/USBUART_std.c **** *  This routine returns a pointer to the Device table
ARM GAS  C:\Users\lenovo\AppData\Local\Temp\ccWMYq61.s 			page 29


1006:.\Generated_Source\PSoC5/USBUART_std.c **** *
1007:.\Generated_Source\PSoC5/USBUART_std.c **** * \return
1008:.\Generated_Source\PSoC5/USBUART_std.c **** *  Device Table pointer
1009:.\Generated_Source\PSoC5/USBUART_std.c **** *
1010:.\Generated_Source\PSoC5/USBUART_std.c **** *******************************************************************************/
1011:.\Generated_Source\PSoC5/USBUART_std.c **** const T_USBUART_LUT CYCODE *USBUART_GetDeviceTablePtr(void)
1012:.\Generated_Source\PSoC5/USBUART_std.c ****                                                             
1013:.\Generated_Source\PSoC5/USBUART_std.c **** {
 551              		.loc 1 1013 0 is_stmt 1
 552              		.cfi_startproc
 553              		@ args = 0, pretend = 0, frame = 0
 554              		@ frame_needed = 0, uses_anonymous_args = 0
 555              		@ link register save eliminated.
1014:.\Generated_Source\PSoC5/USBUART_std.c ****     /* Device Table */
1015:.\Generated_Source\PSoC5/USBUART_std.c ****     return( (const T_USBUART_LUT CYCODE *) USBUART_TABLE[USBUART_device].p_list );
 556              		.loc 1 1015 0
 557 0000 034B     		ldr	r3, .L44
 558 0002 1A78     		ldrb	r2, [r3]	@ zero_extendqisi2
 559 0004 034B     		ldr	r3, .L44+4
 560 0006 03EBC203 		add	r3, r3, r2, lsl #3
1016:.\Generated_Source\PSoC5/USBUART_std.c **** }
 561              		.loc 1 1016 0
 562 000a 5868     		ldr	r0, [r3, #4]
 563 000c 7047     		bx	lr
 564              	.L45:
 565 000e 00BF     		.align	2
 566              	.L44:
 567 0010 00000000 		.word	USBUART_device
 568 0014 00000000 		.word	USBUART_TABLE
 569              		.cfi_endproc
 570              	.LFE7:
 571              		.size	USBUART_GetDeviceTablePtr, .-USBUART_GetDeviceTablePtr
 572              		.section	.text.USBUART_GetInterfaceClassTablePtr,"ax",%progbits
 573              		.align	2
 574              		.global	USBUART_GetInterfaceClassTablePtr
 575              		.thumb
 576              		.thumb_func
 577              		.type	USBUART_GetInterfaceClassTablePtr, %function
 578              	USBUART_GetInterfaceClassTablePtr:
 579              	.LFB8:
1017:.\Generated_Source\PSoC5/USBUART_std.c **** 
1018:.\Generated_Source\PSoC5/USBUART_std.c **** 
1019:.\Generated_Source\PSoC5/USBUART_std.c **** /*******************************************************************************
1020:.\Generated_Source\PSoC5/USBUART_std.c **** * Function Name: USB_GetInterfaceClassTablePtr
1021:.\Generated_Source\PSoC5/USBUART_std.c **** ****************************************************************************//**
1022:.\Generated_Source\PSoC5/USBUART_std.c **** *
1023:.\Generated_Source\PSoC5/USBUART_std.c **** *  This routine returns Interface Class table pointer, which contains
1024:.\Generated_Source\PSoC5/USBUART_std.c **** *  the relation between interface number and interface class.
1025:.\Generated_Source\PSoC5/USBUART_std.c **** *
1026:.\Generated_Source\PSoC5/USBUART_std.c **** * \return
1027:.\Generated_Source\PSoC5/USBUART_std.c **** *  Interface Class table pointer.
1028:.\Generated_Source\PSoC5/USBUART_std.c **** *
1029:.\Generated_Source\PSoC5/USBUART_std.c **** *******************************************************************************/
1030:.\Generated_Source\PSoC5/USBUART_std.c **** const uint8 CYCODE *USBUART_GetInterfaceClassTablePtr(void)
1031:.\Generated_Source\PSoC5/USBUART_std.c ****                                                         
1032:.\Generated_Source\PSoC5/USBUART_std.c **** {
 580              		.loc 1 1032 0
ARM GAS  C:\Users\lenovo\AppData\Local\Temp\ccWMYq61.s 			page 30


 581              		.cfi_startproc
 582              		@ args = 0, pretend = 0, frame = 0
 583              		@ frame_needed = 0, uses_anonymous_args = 0
 584 0000 08B5     		push	{r3, lr}
 585              		.cfi_def_cfa_offset 8
 586              		.cfi_offset 3, -8
 587              		.cfi_offset 14, -4
1033:.\Generated_Source\PSoC5/USBUART_std.c ****     const T_USBUART_LUT CYCODE *pTmp;
1034:.\Generated_Source\PSoC5/USBUART_std.c ****     const uint8 CYCODE *pInterfaceClass;
1035:.\Generated_Source\PSoC5/USBUART_std.c ****     uint8 currentInterfacesNum;
1036:.\Generated_Source\PSoC5/USBUART_std.c **** 
1037:.\Generated_Source\PSoC5/USBUART_std.c ****     pTmp = USBUART_GetConfigTablePtr(USBUART_configuration - 1u);
 588              		.loc 1 1037 0
 589 0002 074B     		ldr	r3, .L50
 590 0004 1878     		ldrb	r0, [r3]	@ zero_extendqisi2
 591 0006 0138     		subs	r0, r0, #1
 592 0008 C0B2     		uxtb	r0, r0
 593 000a FFF7FEFF 		bl	USBUART_GetConfigTablePtr
 594              	.LVL42:
1038:.\Generated_Source\PSoC5/USBUART_std.c ****     if (pTmp != NULL)
 595              		.loc 1 1038 0
 596 000e 28B1     		cbz	r0, .L48
1039:.\Generated_Source\PSoC5/USBUART_std.c ****     {
1040:.\Generated_Source\PSoC5/USBUART_std.c ****         currentInterfacesNum  = ((const uint8 *) pTmp->p_list)[USBUART_CONFIG_DESCR_NUM_INTERFACES]
 597              		.loc 1 1040 0
 598 0010 4268     		ldr	r2, [r0, #4]
 599 0012 1279     		ldrb	r2, [r2, #4]	@ zero_extendqisi2
 600              	.LVL43:
1041:.\Generated_Source\PSoC5/USBUART_std.c ****         /* Third entry in the LUT starts the Interface Table pointers */
1042:.\Generated_Source\PSoC5/USBUART_std.c ****         /* The INTERFACE_CLASS table is located after all interfaces */
1043:.\Generated_Source\PSoC5/USBUART_std.c ****         pTmp = &pTmp[currentInterfacesNum + 2u];
 601              		.loc 1 1043 0
 602 0014 00EBC203 		add	r3, r0, r2, lsl #3
 603              	.LVL44:
1044:.\Generated_Source\PSoC5/USBUART_std.c ****         pInterfaceClass = (const uint8 CYCODE *) pTmp->p_list;
 604              		.loc 1 1044 0
 605 0018 5869     		ldr	r0, [r3, #20]
 606              	.LVL45:
 607 001a 08BD     		pop	{r3, pc}
 608              	.LVL46:
 609              	.L48:
1045:.\Generated_Source\PSoC5/USBUART_std.c ****     }
1046:.\Generated_Source\PSoC5/USBUART_std.c ****     else
1047:.\Generated_Source\PSoC5/USBUART_std.c ****     {
1048:.\Generated_Source\PSoC5/USBUART_std.c ****         pInterfaceClass = (const uint8 CYCODE *) NULL;
 610              		.loc 1 1048 0
 611 001c 0020     		movs	r0, #0
 612              	.LVL47:
1049:.\Generated_Source\PSoC5/USBUART_std.c ****     }
1050:.\Generated_Source\PSoC5/USBUART_std.c **** 
1051:.\Generated_Source\PSoC5/USBUART_std.c ****     return (pInterfaceClass);
1052:.\Generated_Source\PSoC5/USBUART_std.c **** }
 613              		.loc 1 1052 0
 614 001e 08BD     		pop	{r3, pc}
 615              	.L51:
 616              		.align	2
 617              	.L50:
ARM GAS  C:\Users\lenovo\AppData\Local\Temp\ccWMYq61.s 			page 31


 618 0020 00000000 		.word	USBUART_configuration
 619              		.cfi_endproc
 620              	.LFE8:
 621              		.size	USBUART_GetInterfaceClassTablePtr, .-USBUART_GetInterfaceClassTablePtr
 622              		.section	.text.USBUART_Config,"ax",%progbits
 623              		.align	2
 624              		.global	USBUART_Config
 625              		.thumb
 626              		.thumb_func
 627              		.type	USBUART_Config, %function
 628              	USBUART_Config:
 629              	.LFB4:
 571:.\Generated_Source\PSoC5/USBUART_std.c ****     uint8 ep;
 630              		.loc 1 571 0
 631              		.cfi_startproc
 632              		@ args = 0, pretend = 0, frame = 0
 633              		@ frame_needed = 0, uses_anonymous_args = 0
 634              	.LVL48:
 635 0000 2DE9F843 		push	{r3, r4, r5, r6, r7, r8, r9, lr}
 636              		.cfi_def_cfa_offset 32
 637              		.cfi_offset 3, -32
 638              		.cfi_offset 4, -28
 639              		.cfi_offset 5, -24
 640              		.cfi_offset 6, -20
 641              		.cfi_offset 7, -16
 642              		.cfi_offset 8, -12
 643              		.cfi_offset 9, -8
 644              		.cfi_offset 14, -4
 645              	.LVL49:
 586:.\Generated_Source\PSoC5/USBUART_std.c ****     {
 646              		.loc 1 586 0
 647 0004 0022     		movs	r2, #0
 648 0006 0EE0     		b	.L53
 649              	.LVL50:
 650              	.L54:
 588:.\Generated_Source\PSoC5/USBUART_std.c ****         USBUART_EP[ep].hwEpState  = 0u;
 651              		.loc 1 588 0 discriminator 3
 652 0008 6F4E     		ldr	r6, .L80
 653 000a 5300     		lsls	r3, r2, #1
 654 000c 9D18     		adds	r5, r3, r2
 655 000e AD00     		lsls	r5, r5, #2
 656 0010 7419     		adds	r4, r6, r5
 657 0012 0021     		movs	r1, #0
 658 0014 7155     		strb	r1, [r6, r5]
 589:.\Generated_Source\PSoC5/USBUART_std.c ****         USBUART_EP[ep].epToggle   = 0u;
 659              		.loc 1 589 0 discriminator 3
 660 0016 A170     		strb	r1, [r4, #2]
 590:.\Generated_Source\PSoC5/USBUART_std.c ****         USBUART_EP[ep].bufferSize = 0u;
 661              		.loc 1 590 0 discriminator 3
 662 0018 E170     		strb	r1, [r4, #3]
 591:.\Generated_Source\PSoC5/USBUART_std.c ****         USBUART_EP[ep].interface  = 0u;
 663              		.loc 1 591 0 discriminator 3
 664 001a 2181     		strh	r1, [r4, #8]	@ movhi
 592:.\Generated_Source\PSoC5/USBUART_std.c ****         USBUART_EP[ep].apiEpState = USBUART_NO_EVENT_PENDING;
 665              		.loc 1 592 0 discriminator 3
 666 001c A172     		strb	r1, [r4, #10]
 593:.\Generated_Source\PSoC5/USBUART_std.c ****         USBUART_EP[ep].epMode     = USBUART_MODE_DISABLE;   
ARM GAS  C:\Users\lenovo\AppData\Local\Temp\ccWMYq61.s 			page 32


 667              		.loc 1 593 0 discriminator 3
 668 001e 6170     		strb	r1, [r4, #1]
 594:.\Generated_Source\PSoC5/USBUART_std.c ****     }
 669              		.loc 1 594 0 discriminator 3
 670 0020 6171     		strb	r1, [r4, #5]
 586:.\Generated_Source\PSoC5/USBUART_std.c ****     {
 671              		.loc 1 586 0 discriminator 3
 672 0022 0132     		adds	r2, r2, #1
 673              	.LVL51:
 674 0024 D2B2     		uxtb	r2, r2
 675              	.LVL52:
 676              	.L53:
 586:.\Generated_Source\PSoC5/USBUART_std.c ****     {
 677              		.loc 1 586 0 is_stmt 0 discriminator 1
 678 0026 082A     		cmp	r2, #8
 679 0028 EED9     		bls	.L54
 598:.\Generated_Source\PSoC5/USBUART_std.c ****     {
 680              		.loc 1 598 0 is_stmt 1
 681 002a 40B9     		cbnz	r0, .L76
 682 002c 0AE0     		b	.L56
 683              	.LVL53:
 684              	.L57:
 602:.\Generated_Source\PSoC5/USBUART_std.c ****             USBUART_interfaceSettingLast[i] = 0u;
 685              		.loc 1 602 0 discriminator 3
 686 002e 0022     		movs	r2, #0
 687 0030 6649     		ldr	r1, .L80+4
 688 0032 CA54     		strb	r2, [r1, r3]
 603:.\Generated_Source\PSoC5/USBUART_std.c ****         }
 689              		.loc 1 603 0 discriminator 3
 690 0034 6649     		ldr	r1, .L80+8
 691 0036 CA54     		strb	r2, [r1, r3]
 600:.\Generated_Source\PSoC5/USBUART_std.c ****         {
 692              		.loc 1 600 0 discriminator 3
 693 0038 0133     		adds	r3, r3, #1
 694              	.LVL54:
 695 003a DBB2     		uxtb	r3, r3
 696              	.LVL55:
 697 003c 00E0     		b	.L55
 698              	.LVL56:
 699              	.L76:
 700 003e 0023     		movs	r3, #0
 701              	.LVL57:
 702              	.L55:
 600:.\Generated_Source\PSoC5/USBUART_std.c ****         {
 703              		.loc 1 600 0 is_stmt 0 discriminator 1
 704 0040 012B     		cmp	r3, #1
 705 0042 F4D9     		bls	.L57
 706              	.LVL58:
 707              	.L56:
 608:.\Generated_Source\PSoC5/USBUART_std.c ****     {
 708              		.loc 1 608 0 is_stmt 1
 709 0044 634B     		ldr	r3, .L80+12
 710 0046 1B78     		ldrb	r3, [r3]	@ zero_extendqisi2
 711 0048 13F0FF0F 		tst	r3, #255
 712 004c 00F0B980 		beq	.L52
 713              	.LVL59:
 714              	.LBB2:
ARM GAS  C:\Users\lenovo\AppData\Local\Temp\ccWMYq61.s 			page 33


 614:.\Generated_Source\PSoC5/USBUART_std.c ****         
 715              		.loc 1 614 0
 716 0050 604B     		ldr	r3, .L80+12
 717 0052 1878     		ldrb	r0, [r3]	@ zero_extendqisi2
 718              	.LVL60:
 719 0054 0138     		subs	r0, r0, #1
 720 0056 C0B2     		uxtb	r0, r0
 721 0058 FFF7FEFF 		bl	USBUART_GetConfigTablePtr
 722              	.LVL61:
 723 005c 8046     		mov	r8, r0
 724              	.LVL62:
 617:.\Generated_Source\PSoC5/USBUART_std.c ****         if ((pDescr[USBUART_CONFIG_DESCR_ATTRIB] & USBUART_CONFIG_DESCR_ATTRIB_SELF_POWERED) != 0u)
 725              		.loc 1 617 0
 726 005e 4368     		ldr	r3, [r0, #4]
 727              	.LVL63:
 618:.\Generated_Source\PSoC5/USBUART_std.c ****         {
 728              		.loc 1 618 0
 729 0060 DB79     		ldrb	r3, [r3, #7]	@ zero_extendqisi2
 730              	.LVL64:
 731 0062 13F0400F 		tst	r3, #64
 732 0066 05D0     		beq	.L59
 620:.\Generated_Source\PSoC5/USBUART_std.c ****         }
 733              		.loc 1 620 0
 734 0068 5B4A     		ldr	r2, .L80+16
 735 006a 1378     		ldrb	r3, [r2]	@ zero_extendqisi2
 736 006c 43F00103 		orr	r3, r3, #1
 737 0070 1370     		strb	r3, [r2]
 738 0072 04E0     		b	.L60
 739              	.L59:
 624:.\Generated_Source\PSoC5/USBUART_std.c ****         }
 740              		.loc 1 624 0
 741 0074 584A     		ldr	r2, .L80+16
 742 0076 1378     		ldrb	r3, [r2]	@ zero_extendqisi2
 743 0078 03F0FE03 		and	r3, r3, #254
 744 007c 1370     		strb	r3, [r2]
 745              	.L60:
 746              	.LVL65:
 629:.\Generated_Source\PSoC5/USBUART_std.c **** 
 747              		.loc 1 629 0
 748 007e 98F80870 		ldrb	r7, [r8, #8]	@ zero_extendqisi2
 749              	.LVL66:
 611:.\Generated_Source\PSoC5/USBUART_std.c ****         #endif  /* (USBUART_ENABLE_CDC_CLASS) */  
 750              		.loc 1 611 0
 751 0082 4FF00009 		mov	r9, #0
 687:.\Generated_Source\PSoC5/USBUART_std.c ****             {
 752              		.loc 1 687 0
 753 0086 0126     		movs	r6, #1
 754 0088 6CE0     		b	.L61
 755              	.LVL67:
 756              	.L71:
 690:.\Generated_Source\PSoC5/USBUART_std.c ****                 /* Find max length for each EP and select it (length could be different in differen
 757              		.loc 1 690 0
 758 008a D8F80C50 		ldr	r5, [r8, #12]
 759              	.LVL68:
 694:.\Generated_Source\PSoC5/USBUART_std.c ****                 {
 760              		.loc 1 694 0
 761 008e 0024     		movs	r4, #0
ARM GAS  C:\Users\lenovo\AppData\Local\Temp\ccWMYq61.s 			page 34


 762 0090 64E0     		b	.L62
 763              	.LVL69:
 764              	.L70:
 696:.\Generated_Source\PSoC5/USBUART_std.c ****                     {
 765              		.loc 1 696 0
 766 0092 AB78     		ldrb	r3, [r5, #2]	@ zero_extendqisi2
 767 0094 03F07F03 		and	r3, r3, #127
 768 0098 9E42     		cmp	r6, r3
 769 009a 5CD1     		bne	.L63
 699:.\Generated_Source\PSoC5/USBUART_std.c ****                         {
 770              		.loc 1 699 0
 771 009c 3146     		mov	r1, r6
 772 009e 06EB4603 		add	r3, r6, r6, lsl #1
 773 00a2 9B00     		lsls	r3, r3, #2
 774 00a4 4848     		ldr	r0, .L80
 775 00a6 0344     		add	r3, r3, r0
 776 00a8 1B89     		ldrh	r3, [r3, #8]
 777 00aa 9BB2     		uxth	r3, r3
 778 00ac A888     		ldrh	r0, [r5, #4]
 779 00ae 8342     		cmp	r3, r0
 780 00b0 05D2     		bcs	.L64
 701:.\Generated_Source\PSoC5/USBUART_std.c ****                         }
 781              		.loc 1 701 0
 782 00b2 06EB4603 		add	r3, r6, r6, lsl #1
 783 00b6 9B00     		lsls	r3, r3, #2
 784 00b8 434A     		ldr	r2, .L80
 785 00ba 1344     		add	r3, r3, r2
 786 00bc 1881     		strh	r0, [r3, #8]	@ movhi
 787              	.L64:
 705:.\Generated_Source\PSoC5/USBUART_std.c ****                         {                            
 788              		.loc 1 705 0
 789 00be 2B78     		ldrb	r3, [r5]	@ zero_extendqisi2
 790 00c0 4248     		ldr	r0, .L80+4
 791 00c2 C35C     		ldrb	r3, [r0, r3]	@ zero_extendqisi2
 792 00c4 DBB2     		uxtb	r3, r3
 793 00c6 6878     		ldrb	r0, [r5, #1]	@ zero_extendqisi2
 794 00c8 8342     		cmp	r3, r0
 795 00ca 44D1     		bne	.L63
 707:.\Generated_Source\PSoC5/USBUART_std.c ****                             USBUART_EP[i].attrib = pEP->attributes;
 796              		.loc 1 707 0
 797 00cc 95F802C0 		ldrb	ip, [r5, #2]	@ zero_extendqisi2
 798 00d0 3D48     		ldr	r0, .L80
 799 00d2 4B00     		lsls	r3, r1, #1
 800 00d4 0B44     		add	r3, r3, r1
 801 00d6 9B00     		lsls	r3, r3, #2
 802 00d8 00EB030E 		add	lr, r0, r3
 803 00dc 8EF804C0 		strb	ip, [lr, #4]
 708:.\Generated_Source\PSoC5/USBUART_std.c ****                             
 804              		.loc 1 708 0
 805 00e0 95F803E0 		ldrb	lr, [r5, #3]	@ zero_extendqisi2
 806 00e4 00F803E0 		strb	lr, [r0, r3]
 710:.\Generated_Source\PSoC5/USBUART_std.c ****                             
 807              		.loc 1 710 0
 808 00e8 EB78     		ldrb	r3, [r5, #3]	@ zero_extendqisi2
 809 00ea 03F00303 		and	r3, r3, #3
 810              	.LVL70:
 712:.\Generated_Source\PSoC5/USBUART_std.c ****                             {
ARM GAS  C:\Users\lenovo\AppData\Local\Temp\ccWMYq61.s 			page 35


 811              		.loc 1 712 0
 812 00ee 95F90200 		ldrsb	r0, [r5, #2]
 813 00f2 0028     		cmp	r0, #0
 814 00f4 11DA     		bge	.L65
 715:.\Generated_Source\PSoC5/USBUART_std.c ****                                 USBUART_EP[i].apiEpState = USBUART_EVENT_PENDING;
 815              		.loc 1 715 0
 816 00f6 012B     		cmp	r3, #1
 817 00f8 02D1     		bne	.L77
 818 00fa 4FF0070C 		mov	ip, #7
 819 00fe 01E0     		b	.L66
 820              	.L77:
 821 0100 4FF00D0C 		mov	ip, #13
 822              	.L66:
 715:.\Generated_Source\PSoC5/USBUART_std.c ****                                 USBUART_EP[i].apiEpState = USBUART_EVENT_PENDING;
 823              		.loc 1 715 0 is_stmt 0 discriminator 4
 824 0104 DFF8C0E0 		ldr	lr, .L80
 825 0108 4B00     		lsls	r3, r1, #1
 826              	.LVL71:
 827 010a 5818     		adds	r0, r3, r1
 828 010c 8000     		lsls	r0, r0, #2
 829 010e 7044     		add	r0, r0, lr
 830 0110 80F805C0 		strb	ip, [r0, #5]
 831              	.LVL72:
 716:.\Generated_Source\PSoC5/USBUART_std.c ****                                 
 832              		.loc 1 716 0 is_stmt 1 discriminator 4
 833 0114 0123     		movs	r3, #1
 834 0116 4370     		strb	r3, [r0, #1]
 835 0118 12E0     		b	.L67
 836              	.LVL73:
 837              	.L65:
 728:.\Generated_Source\PSoC5/USBUART_std.c ****                                 USBUART_EP[i].apiEpState = USBUART_NO_EVENT_PENDING;
 838              		.loc 1 728 0
 839 011a 012B     		cmp	r3, #1
 840 011c 02D1     		bne	.L78
 841 011e 4FF0050C 		mov	ip, #5
 842 0122 01E0     		b	.L68
 843              	.L78:
 844 0124 4FF0090C 		mov	ip, #9
 845              	.L68:
 728:.\Generated_Source\PSoC5/USBUART_std.c ****                                 USBUART_EP[i].apiEpState = USBUART_NO_EVENT_PENDING;
 846              		.loc 1 728 0 is_stmt 0 discriminator 4
 847 0128 2748     		ldr	r0, .L80
 848 012a 4FEA410E 		lsl	lr, r1, #1
 849 012e 0EEB0103 		add	r3, lr, r1
 850              	.LVL74:
 851 0132 9B00     		lsls	r3, r3, #2
 852 0134 0344     		add	r3, r3, r0
 853 0136 83F805C0 		strb	ip, [r3, #5]
 854              	.LVL75:
 729:.\Generated_Source\PSoC5/USBUART_std.c ****                                 
 855              		.loc 1 729 0 is_stmt 1 discriminator 4
 856 013a 1946     		mov	r1, r3
 857 013c 0023     		movs	r3, #0
 858 013e 4B70     		strb	r3, [r1, #1]
 859              	.L67:
 740:.\Generated_Source\PSoC5/USBUART_std.c ****                             {
 860              		.loc 1 740 0
ARM GAS  C:\Users\lenovo\AppData\Local\Temp\ccWMYq61.s 			page 36


 861 0140 AB79     		ldrb	r3, [r5, #6]	@ zero_extendqisi2
 862 0142 0A2B     		cmp	r3, #10
 863 0144 01D0     		beq	.L69
 740:.\Generated_Source\PSoC5/USBUART_std.c ****                             {
 864              		.loc 1 740 0 is_stmt 0 discriminator 1
 865 0146 022B     		cmp	r3, #2
 866 0148 05D1     		bne	.L63
 867              	.L69:
 742:.\Generated_Source\PSoC5/USBUART_std.c ****                             }
 868              		.loc 1 742 0 is_stmt 1
 869 014a 2846     		mov	r0, r5
 870 014c 3146     		mov	r1, r6
 871 014e 4A46     		mov	r2, r9
 872 0150 FFF7FEFF 		bl	USBUART_Cdc_EpInit
 873              	.LVL76:
 874 0154 8146     		mov	r9, r0
 875              	.LVL77:
 876              	.L63:
 752:.\Generated_Source\PSoC5/USBUART_std.c ****                 }
 877              		.loc 1 752 0 discriminator 2
 878 0156 0835     		adds	r5, r5, #8
 879              	.LVL78:
 694:.\Generated_Source\PSoC5/USBUART_std.c ****                 {
 880              		.loc 1 694 0 discriminator 2
 881 0158 0134     		adds	r4, r4, #1
 882              	.LVL79:
 883 015a E4B2     		uxtb	r4, r4
 884              	.LVL80:
 885              	.L62:
 694:.\Generated_Source\PSoC5/USBUART_std.c ****                 {
 886              		.loc 1 694 0 is_stmt 0 discriminator 1
 887 015c BC42     		cmp	r4, r7
 888 015e 98D3     		bcc	.L70
 687:.\Generated_Source\PSoC5/USBUART_std.c ****             {
 889              		.loc 1 687 0 is_stmt 1 discriminator 2
 890 0160 0136     		adds	r6, r6, #1
 891              	.LVL81:
 892 0162 F6B2     		uxtb	r6, r6
 893              	.LVL82:
 894              	.L61:
 687:.\Generated_Source\PSoC5/USBUART_std.c ****             {
 895              		.loc 1 687 0 is_stmt 0 discriminator 1
 896 0164 082E     		cmp	r6, #8
 897 0166 90D9     		bls	.L71
 762:.\Generated_Source\PSoC5/USBUART_std.c ****         for (i = 0u; i < ep; i++)
 898              		.loc 1 762 0 is_stmt 1
 899 0168 D8F80C00 		ldr	r0, [r8, #12]
 900              	.LVL83:
 763:.\Generated_Source\PSoC5/USBUART_std.c ****         {
 901              		.loc 1 763 0
 902 016c 0022     		movs	r2, #0
 903 016e 0CE0     		b	.L72
 904              	.LVL84:
 905              	.L73:
 766:.\Generated_Source\PSoC5/USBUART_std.c ****             pEP = &pEP[1u];
 906              		.loc 1 766 0 discriminator 3
 907 0170 8378     		ldrb	r3, [r0, #2]	@ zero_extendqisi2
ARM GAS  C:\Users\lenovo\AppData\Local\Temp\ccWMYq61.s 			page 37


 908 0172 03F07F03 		and	r3, r3, #127
 909 0176 10F8084B 		ldrb	r4, [r0], #8	@ zero_extendqisi2
 910              	.LVL85:
 911 017a 03EB4303 		add	r3, r3, r3, lsl #1
 912 017e 9B00     		lsls	r3, r3, #2
 913 0180 1649     		ldr	r1, .L80+20
 914 0182 0B44     		add	r3, r3, r1
 915 0184 9C70     		strb	r4, [r3, #2]
 916              	.LVL86:
 763:.\Generated_Source\PSoC5/USBUART_std.c ****         {
 917              		.loc 1 763 0 discriminator 3
 918 0186 0132     		adds	r2, r2, #1
 919              	.LVL87:
 920 0188 D2B2     		uxtb	r2, r2
 921              	.LVL88:
 922              	.L72:
 763:.\Generated_Source\PSoC5/USBUART_std.c ****         {
 923              		.loc 1 763 0 is_stmt 0 discriminator 1
 924 018a BA42     		cmp	r2, r7
 925 018c F0D3     		bcc	.L73
 771:.\Generated_Source\PSoC5/USBUART_std.c ****         
 926              		.loc 1 771 0 is_stmt 1
 927 018e FFF7FEFF 		bl	USBUART_GetInterfaceClassTablePtr
 928              	.LVL89:
 929 0192 134B     		ldr	r3, .L80+24
 930 0194 1860     		str	r0, [r3]
 931              	.LVL90:
 775:.\Generated_Source\PSoC5/USBUART_std.c ****         for (ep = USBUART_EP1; ep < USBUART_MAX_EP; ++ep)
 932              		.loc 1 775 0
 933 0196 0023     		movs	r3, #0
 776:.\Generated_Source\PSoC5/USBUART_std.c ****         {
 934              		.loc 1 776 0
 935 0198 0121     		movs	r1, #1
 936 019a 0EE0     		b	.L74
 937              	.LVL91:
 938              	.L75:
 778:.\Generated_Source\PSoC5/USBUART_std.c ****             buffCount += USBUART_EP[ep].bufferSize;
 939              		.loc 1 778 0 discriminator 3
 940 019c 0A4C     		ldr	r4, .L80
 941 019e 4A00     		lsls	r2, r1, #1
 942 01a0 5018     		adds	r0, r2, r1
 943 01a2 8000     		lsls	r0, r0, #2
 944 01a4 2044     		add	r0, r0, r4
 945 01a6 C380     		strh	r3, [r0, #6]	@ movhi
 779:.\Generated_Source\PSoC5/USBUART_std.c ****             
 946              		.loc 1 779 0 discriminator 3
 947 01a8 0289     		ldrh	r2, [r0, #8]
 948 01aa 1344     		add	r3, r3, r2
 949              	.LVL92:
 950 01ac 9BB2     		uxth	r3, r3
 951              	.LVL93:
 783:.\Generated_Source\PSoC5/USBUART_std.c ****         #endif /* (USBUART_GEN_16BITS_EP_ACCESS) */            
 952              		.loc 1 783 0 discriminator 3
 953 01ae 03F00102 		and	r2, r3, #1
 954 01b2 1344     		add	r3, r3, r2
 955              	.LVL94:
 956 01b4 9BB2     		uxth	r3, r3
ARM GAS  C:\Users\lenovo\AppData\Local\Temp\ccWMYq61.s 			page 38


 957              	.LVL95:
 776:.\Generated_Source\PSoC5/USBUART_std.c ****         {
 958              		.loc 1 776 0 discriminator 3
 959 01b6 0131     		adds	r1, r1, #1
 960              	.LVL96:
 961 01b8 C9B2     		uxtb	r1, r1
 962              	.LVL97:
 963              	.L74:
 776:.\Generated_Source\PSoC5/USBUART_std.c ****         {
 964              		.loc 1 776 0 is_stmt 0 discriminator 1
 965 01ba 0829     		cmp	r1, #8
 966 01bc EED9     		bls	.L75
 789:.\Generated_Source\PSoC5/USBUART_std.c ****     }
 967              		.loc 1 789 0 is_stmt 1
 968 01be FFF7FEFF 		bl	USBUART_ConfigReg
 969              	.LVL98:
 970              	.L52:
 971 01c2 BDE8F883 		pop	{r3, r4, r5, r6, r7, r8, r9, pc}
 972              	.L81:
 973 01c6 00BF     		.align	2
 974              	.L80:
 975 01c8 00000000 		.word	USBUART_EP
 976 01cc 00000000 		.word	USBUART_interfaceSetting
 977 01d0 00000000 		.word	USBUART_interfaceSettingLast
 978 01d4 00000000 		.word	USBUART_configuration
 979 01d8 00000000 		.word	USBUART_deviceStatus
 980 01dc 08000000 		.word	USBUART_EP+8
 981 01e0 00000000 		.word	USBUART_interfaceClass
 982              	.LBE2:
 983              		.cfi_endproc
 984              	.LFE4:
 985              		.size	USBUART_Config, .-USBUART_Config
 986              		.section	.text.USBUART_TerminateEP,"ax",%progbits
 987              		.align	2
 988              		.global	USBUART_TerminateEP
 989              		.thumb
 990              		.thumb_func
 991              		.type	USBUART_TerminateEP, %function
 992              	USBUART_TerminateEP:
 993              	.LFB9:
1053:.\Generated_Source\PSoC5/USBUART_std.c **** 
1054:.\Generated_Source\PSoC5/USBUART_std.c **** 
1055:.\Generated_Source\PSoC5/USBUART_std.c **** /*******************************************************************************
1056:.\Generated_Source\PSoC5/USBUART_std.c **** * Function Name: USBUART_TerminateEP
1057:.\Generated_Source\PSoC5/USBUART_std.c **** ****************************************************************************//**
1058:.\Generated_Source\PSoC5/USBUART_std.c **** *
1059:.\Generated_Source\PSoC5/USBUART_std.c **** *  This function terminates the specified USBFS endpoint.
1060:.\Generated_Source\PSoC5/USBUART_std.c **** *  This function should be used before endpoint reconfiguration.
1061:.\Generated_Source\PSoC5/USBUART_std.c **** *
1062:.\Generated_Source\PSoC5/USBUART_std.c **** *  \param ep Contains the data endpoint number.
1063:.\Generated_Source\PSoC5/USBUART_std.c **** *
1064:.\Generated_Source\PSoC5/USBUART_std.c **** *  \reentrant
1065:.\Generated_Source\PSoC5/USBUART_std.c **** *  No.
1066:.\Generated_Source\PSoC5/USBUART_std.c **** *
1067:.\Generated_Source\PSoC5/USBUART_std.c **** * \sideeffect
1068:.\Generated_Source\PSoC5/USBUART_std.c **** * 
1069:.\Generated_Source\PSoC5/USBUART_std.c **** * The device responds with a NAK for any transactions on the selected endpoint.
ARM GAS  C:\Users\lenovo\AppData\Local\Temp\ccWMYq61.s 			page 39


1070:.\Generated_Source\PSoC5/USBUART_std.c **** *   
1071:.\Generated_Source\PSoC5/USBUART_std.c **** *******************************************************************************/
1072:.\Generated_Source\PSoC5/USBUART_std.c **** void USBUART_TerminateEP(uint8 epNumber) 
1073:.\Generated_Source\PSoC5/USBUART_std.c **** {
 994              		.loc 1 1073 0
 995              		.cfi_startproc
 996              		@ args = 0, pretend = 0, frame = 0
 997              		@ frame_needed = 0, uses_anonymous_args = 0
 998              		@ link register save eliminated.
 999              	.LVL99:
1074:.\Generated_Source\PSoC5/USBUART_std.c ****     /* Get endpoint number */
1075:.\Generated_Source\PSoC5/USBUART_std.c ****     epNumber &= USBUART_DIR_UNUSED;
 1000              		.loc 1 1075 0
 1001 0000 00F07F00 		and	r0, r0, #127
 1002              	.LVL100:
1076:.\Generated_Source\PSoC5/USBUART_std.c **** 
1077:.\Generated_Source\PSoC5/USBUART_std.c ****     if ((epNumber > USBUART_EP0) && (epNumber < USBUART_MAX_EP))
 1003              		.loc 1 1077 0
 1004 0004 431E     		subs	r3, r0, #1
 1005 0006 DBB2     		uxtb	r3, r3
 1006 0008 072B     		cmp	r3, #7
 1007 000a 19D8     		bhi	.L82
1078:.\Generated_Source\PSoC5/USBUART_std.c ****     {
1079:.\Generated_Source\PSoC5/USBUART_std.c ****         /* Set the endpoint Halt */
1080:.\Generated_Source\PSoC5/USBUART_std.c ****         USBUART_EP[epNumber].hwEpState |= USBUART_ENDPOINT_STATUS_HALT;
 1008              		.loc 1 1080 0
 1009 000c 4300     		lsls	r3, r0, #1
 1010 000e 0344     		add	r3, r3, r0
 1011 0010 9B00     		lsls	r3, r3, #2
 1012 0012 0C4A     		ldr	r2, .L85
 1013 0014 1344     		add	r3, r3, r2
 1014 0016 9A78     		ldrb	r2, [r3, #2]	@ zero_extendqisi2
 1015 0018 42F00102 		orr	r2, r2, #1
 1016 001c 9A70     		strb	r2, [r3, #2]
1081:.\Generated_Source\PSoC5/USBUART_std.c **** 
1082:.\Generated_Source\PSoC5/USBUART_std.c ****         /* Clear the data toggle */
1083:.\Generated_Source\PSoC5/USBUART_std.c ****         USBUART_EP[epNumber].epToggle = 0u;
 1017              		.loc 1 1083 0
 1018 001e 0022     		movs	r2, #0
 1019 0020 DA70     		strb	r2, [r3, #3]
1084:.\Generated_Source\PSoC5/USBUART_std.c ****         USBUART_EP[epNumber].apiEpState = USBUART_NO_EVENT_ALLOWED;
 1020              		.loc 1 1084 0
 1021 0022 0222     		movs	r2, #2
 1022 0024 5A70     		strb	r2, [r3, #1]
1085:.\Generated_Source\PSoC5/USBUART_std.c **** 
1086:.\Generated_Source\PSoC5/USBUART_std.c ****         if ((USBUART_EP[epNumber].addr & USBUART_DIR_IN) != 0u)
 1023              		.loc 1 1086 0
 1024 0026 1B79     		ldrb	r3, [r3, #4]	@ zero_extendqisi2
 1025 0028 13F0800F 		tst	r3, #128
 1026 002c 04D0     		beq	.L84
1087:.\Generated_Source\PSoC5/USBUART_std.c ****         {   
1088:.\Generated_Source\PSoC5/USBUART_std.c ****             /* IN Endpoint */
1089:.\Generated_Source\PSoC5/USBUART_std.c ****             USBUART_SIE_EP_BASE.sieEp[epNumber].epCr0 = USBUART_MODE_NAK_IN;
 1027              		.loc 1 1089 0
 1028 002e 0001     		lsls	r0, r0, #4
 1029              	.LVL101:
 1030 0030 054B     		ldr	r3, .L85+4
ARM GAS  C:\Users\lenovo\AppData\Local\Temp\ccWMYq61.s 			page 40


 1031 0032 0C22     		movs	r2, #12
 1032 0034 1A54     		strb	r2, [r3, r0]
 1033 0036 7047     		bx	lr
 1034              	.LVL102:
 1035              	.L84:
1090:.\Generated_Source\PSoC5/USBUART_std.c ****         }
1091:.\Generated_Source\PSoC5/USBUART_std.c ****         else
1092:.\Generated_Source\PSoC5/USBUART_std.c ****         {
1093:.\Generated_Source\PSoC5/USBUART_std.c ****             /* OUT Endpoint */
1094:.\Generated_Source\PSoC5/USBUART_std.c ****             USBUART_SIE_EP_BASE.sieEp[epNumber].epCr0 = USBUART_MODE_NAK_OUT;
 1036              		.loc 1 1094 0
 1037 0038 0001     		lsls	r0, r0, #4
 1038              	.LVL103:
 1039 003a 034B     		ldr	r3, .L85+4
 1040 003c 0822     		movs	r2, #8
 1041 003e 1A54     		strb	r2, [r3, r0]
 1042              	.L82:
 1043 0040 7047     		bx	lr
 1044              	.L86:
 1045 0042 00BF     		.align	2
 1046              	.L85:
 1047 0044 00000000 		.word	USBUART_EP
 1048 0048 FE5F0040 		.word	1073766398
 1049              		.cfi_endproc
 1050              	.LFE9:
 1051              		.size	USBUART_TerminateEP, .-USBUART_TerminateEP
 1052              		.section	.text.USBUART_SetEndpointHalt,"ax",%progbits
 1053              		.align	2
 1054              		.global	USBUART_SetEndpointHalt
 1055              		.thumb
 1056              		.thumb_func
 1057              		.type	USBUART_SetEndpointHalt, %function
 1058              	USBUART_SetEndpointHalt:
 1059              	.LFB10:
1095:.\Generated_Source\PSoC5/USBUART_std.c ****         }
1096:.\Generated_Source\PSoC5/USBUART_std.c ****     }
1097:.\Generated_Source\PSoC5/USBUART_std.c **** }
1098:.\Generated_Source\PSoC5/USBUART_std.c **** 
1099:.\Generated_Source\PSoC5/USBUART_std.c **** 
1100:.\Generated_Source\PSoC5/USBUART_std.c **** /*******************************************************************************
1101:.\Generated_Source\PSoC5/USBUART_std.c **** * Function Name: USBUART_SetEndpointHalt
1102:.\Generated_Source\PSoC5/USBUART_std.c **** ****************************************************************************//**
1103:.\Generated_Source\PSoC5/USBUART_std.c **** *
1104:.\Generated_Source\PSoC5/USBUART_std.c **** *  This routine handles set endpoint halt.
1105:.\Generated_Source\PSoC5/USBUART_std.c **** *
1106:.\Generated_Source\PSoC5/USBUART_std.c **** * \return
1107:.\Generated_Source\PSoC5/USBUART_std.c **** *  requestHandled.
1108:.\Generated_Source\PSoC5/USBUART_std.c **** *
1109:.\Generated_Source\PSoC5/USBUART_std.c **** * \reentrant
1110:.\Generated_Source\PSoC5/USBUART_std.c **** *  No.
1111:.\Generated_Source\PSoC5/USBUART_std.c **** *
1112:.\Generated_Source\PSoC5/USBUART_std.c **** *******************************************************************************/
1113:.\Generated_Source\PSoC5/USBUART_std.c **** uint8 USBUART_SetEndpointHalt(void) 
1114:.\Generated_Source\PSoC5/USBUART_std.c **** {
 1060              		.loc 1 1114 0
 1061              		.cfi_startproc
 1062              		@ args = 0, pretend = 0, frame = 0
ARM GAS  C:\Users\lenovo\AppData\Local\Temp\ccWMYq61.s 			page 41


 1063              		@ frame_needed = 0, uses_anonymous_args = 0
 1064 0000 08B5     		push	{r3, lr}
 1065              		.cfi_def_cfa_offset 8
 1066              		.cfi_offset 3, -8
 1067              		.cfi_offset 14, -4
 1068              	.LVL104:
1115:.\Generated_Source\PSoC5/USBUART_std.c ****     uint8 requestHandled = USBUART_FALSE;
1116:.\Generated_Source\PSoC5/USBUART_std.c ****     uint8 ep;
1117:.\Generated_Source\PSoC5/USBUART_std.c ****     
1118:.\Generated_Source\PSoC5/USBUART_std.c ****     /* Set endpoint halt */
1119:.\Generated_Source\PSoC5/USBUART_std.c ****     ep = USBUART_wIndexLoReg & USBUART_DIR_UNUSED;
 1069              		.loc 1 1119 0
 1070 0002 154B     		ldr	r3, .L93
 1071 0004 1A79     		ldrb	r2, [r3, #4]	@ zero_extendqisi2
 1072 0006 02F07F02 		and	r2, r2, #127
 1073              	.LVL105:
1120:.\Generated_Source\PSoC5/USBUART_std.c **** 
1121:.\Generated_Source\PSoC5/USBUART_std.c ****     if ((ep > USBUART_EP0) && (ep < USBUART_MAX_EP))
 1074              		.loc 1 1121 0
 1075 000a 531E     		subs	r3, r2, #1
 1076 000c DBB2     		uxtb	r3, r3
 1077 000e 072B     		cmp	r3, #7
 1078 0010 20D8     		bhi	.L91
1122:.\Generated_Source\PSoC5/USBUART_std.c ****     {
1123:.\Generated_Source\PSoC5/USBUART_std.c ****         /* Set the endpoint Halt */
1124:.\Generated_Source\PSoC5/USBUART_std.c ****         USBUART_EP[ep].hwEpState |= (USBUART_ENDPOINT_STATUS_HALT);
 1079              		.loc 1 1124 0
 1080 0012 5300     		lsls	r3, r2, #1
 1081 0014 1344     		add	r3, r3, r2
 1082 0016 9B00     		lsls	r3, r3, #2
 1083 0018 1049     		ldr	r1, .L93+4
 1084 001a 0B44     		add	r3, r3, r1
 1085 001c 9978     		ldrb	r1, [r3, #2]	@ zero_extendqisi2
 1086 001e 41F00101 		orr	r1, r1, #1
 1087 0022 9970     		strb	r1, [r3, #2]
1125:.\Generated_Source\PSoC5/USBUART_std.c **** 
1126:.\Generated_Source\PSoC5/USBUART_std.c ****         /* Clear the data toggle */
1127:.\Generated_Source\PSoC5/USBUART_std.c ****         USBUART_EP[ep].epToggle = 0u;
 1088              		.loc 1 1127 0
 1089 0024 0021     		movs	r1, #0
 1090 0026 D970     		strb	r1, [r3, #3]
1128:.\Generated_Source\PSoC5/USBUART_std.c ****         USBUART_EP[ep].apiEpState |= USBUART_NO_EVENT_ALLOWED;
 1091              		.loc 1 1128 0
 1092 0028 5978     		ldrb	r1, [r3, #1]	@ zero_extendqisi2
 1093 002a 41F00201 		orr	r1, r1, #2
 1094 002e 5970     		strb	r1, [r3, #1]
1129:.\Generated_Source\PSoC5/USBUART_std.c **** 
1130:.\Generated_Source\PSoC5/USBUART_std.c ****         if ((USBUART_EP[ep].addr & USBUART_DIR_IN) != 0u)
 1095              		.loc 1 1130 0
 1096 0030 1B79     		ldrb	r3, [r3, #4]	@ zero_extendqisi2
 1097 0032 13F0800F 		tst	r3, #128
 1098 0036 05D0     		beq	.L89
1131:.\Generated_Source\PSoC5/USBUART_std.c ****         {
1132:.\Generated_Source\PSoC5/USBUART_std.c ****             /* IN Endpoint */
1133:.\Generated_Source\PSoC5/USBUART_std.c ****             USBUART_SIE_EP_BASE.sieEp[ep].epCr0 = (USBUART_MODE_STALL_DATA_EP | 
 1099              		.loc 1 1133 0
 1100 0038 1201     		lsls	r2, r2, #4
ARM GAS  C:\Users\lenovo\AppData\Local\Temp\ccWMYq61.s 			page 42


 1101              	.LVL106:
 1102 003a 094B     		ldr	r3, .L93+8
 1103 003c 1344     		add	r3, r3, r2
 1104 003e 8D22     		movs	r2, #141
 1105 0040 9A70     		strb	r2, [r3, #2]
 1106 0042 04E0     		b	.L90
 1107              	.LVL107:
 1108              	.L89:
1134:.\Generated_Source\PSoC5/USBUART_std.c ****                                                             USBUART_MODE_ACK_IN);
1135:.\Generated_Source\PSoC5/USBUART_std.c ****         }
1136:.\Generated_Source\PSoC5/USBUART_std.c ****         else
1137:.\Generated_Source\PSoC5/USBUART_std.c ****         {
1138:.\Generated_Source\PSoC5/USBUART_std.c ****             /* OUT Endpoint */
1139:.\Generated_Source\PSoC5/USBUART_std.c ****             USBUART_SIE_EP_BASE.sieEp[ep].epCr0 = (USBUART_MODE_STALL_DATA_EP | 
 1109              		.loc 1 1139 0
 1110 0044 1201     		lsls	r2, r2, #4
 1111              	.LVL108:
 1112 0046 064B     		ldr	r3, .L93+8
 1113 0048 1344     		add	r3, r3, r2
 1114 004a 8922     		movs	r2, #137
 1115 004c 9A70     		strb	r2, [r3, #2]
 1116              	.L90:
1140:.\Generated_Source\PSoC5/USBUART_std.c ****                                                             USBUART_MODE_ACK_OUT);
1141:.\Generated_Source\PSoC5/USBUART_std.c ****         }
1142:.\Generated_Source\PSoC5/USBUART_std.c ****         requestHandled = USBUART_InitNoDataControlTransfer();
 1117              		.loc 1 1142 0
 1118 004e FFF7FEFF 		bl	USBUART_InitNoDataControlTransfer
 1119              	.LVL109:
 1120 0052 08BD     		pop	{r3, pc}
 1121              	.LVL110:
 1122              	.L91:
1115:.\Generated_Source\PSoC5/USBUART_std.c ****     uint8 ep;
 1123              		.loc 1 1115 0
 1124 0054 0020     		movs	r0, #0
 1125              	.LVL111:
1143:.\Generated_Source\PSoC5/USBUART_std.c ****     }
1144:.\Generated_Source\PSoC5/USBUART_std.c **** 
1145:.\Generated_Source\PSoC5/USBUART_std.c ****     return (requestHandled);
1146:.\Generated_Source\PSoC5/USBUART_std.c **** }
 1126              		.loc 1 1146 0
 1127 0056 08BD     		pop	{r3, pc}
 1128              	.L94:
 1129              		.align	2
 1130              	.L93:
 1131 0058 00600040 		.word	1073766400
 1132 005c 00000000 		.word	USBUART_EP
 1133 0060 FC5F0040 		.word	1073766396
 1134              		.cfi_endproc
 1135              	.LFE10:
 1136              		.size	USBUART_SetEndpointHalt, .-USBUART_SetEndpointHalt
 1137              		.section	.text.USBUART_ClearEndpointHalt,"ax",%progbits
 1138              		.align	2
 1139              		.global	USBUART_ClearEndpointHalt
 1140              		.thumb
 1141              		.thumb_func
 1142              		.type	USBUART_ClearEndpointHalt, %function
 1143              	USBUART_ClearEndpointHalt:
ARM GAS  C:\Users\lenovo\AppData\Local\Temp\ccWMYq61.s 			page 43


 1144              	.LFB11:
1147:.\Generated_Source\PSoC5/USBUART_std.c **** 
1148:.\Generated_Source\PSoC5/USBUART_std.c **** 
1149:.\Generated_Source\PSoC5/USBUART_std.c **** /*******************************************************************************
1150:.\Generated_Source\PSoC5/USBUART_std.c **** * Function Name: USBUART_ClearEndpointHalt
1151:.\Generated_Source\PSoC5/USBUART_std.c **** ****************************************************************************//**
1152:.\Generated_Source\PSoC5/USBUART_std.c **** *
1153:.\Generated_Source\PSoC5/USBUART_std.c **** *  This routine handles clear endpoint halt.
1154:.\Generated_Source\PSoC5/USBUART_std.c **** *
1155:.\Generated_Source\PSoC5/USBUART_std.c **** * \return
1156:.\Generated_Source\PSoC5/USBUART_std.c **** *  requestHandled.
1157:.\Generated_Source\PSoC5/USBUART_std.c **** *
1158:.\Generated_Source\PSoC5/USBUART_std.c **** * \reentrant
1159:.\Generated_Source\PSoC5/USBUART_std.c **** *  No.
1160:.\Generated_Source\PSoC5/USBUART_std.c **** *
1161:.\Generated_Source\PSoC5/USBUART_std.c **** *******************************************************************************/
1162:.\Generated_Source\PSoC5/USBUART_std.c **** uint8 USBUART_ClearEndpointHalt(void) 
1163:.\Generated_Source\PSoC5/USBUART_std.c **** {
 1145              		.loc 1 1163 0
 1146              		.cfi_startproc
 1147              		@ args = 0, pretend = 0, frame = 0
 1148              		@ frame_needed = 0, uses_anonymous_args = 0
 1149              	.LVL112:
1164:.\Generated_Source\PSoC5/USBUART_std.c ****     uint8 requestHandled = USBUART_FALSE;
1165:.\Generated_Source\PSoC5/USBUART_std.c ****     uint8 ep;
1166:.\Generated_Source\PSoC5/USBUART_std.c **** 
1167:.\Generated_Source\PSoC5/USBUART_std.c ****     /* Clear endpoint halt */
1168:.\Generated_Source\PSoC5/USBUART_std.c ****     ep = USBUART_wIndexLoReg & USBUART_DIR_UNUSED;
 1150              		.loc 1 1168 0
 1151 0000 264B     		ldr	r3, .L104
 1152 0002 1B79     		ldrb	r3, [r3, #4]	@ zero_extendqisi2
 1153 0004 03F07F03 		and	r3, r3, #127
 1154              	.LVL113:
1169:.\Generated_Source\PSoC5/USBUART_std.c **** 
1170:.\Generated_Source\PSoC5/USBUART_std.c ****     if ((ep > USBUART_EP0) && (ep < USBUART_MAX_EP))
 1155              		.loc 1 1170 0
 1156 0008 5A1E     		subs	r2, r3, #1
 1157 000a D2B2     		uxtb	r2, r2
 1158 000c 072A     		cmp	r2, #7
 1159 000e 43D8     		bhi	.L101
1163:.\Generated_Source\PSoC5/USBUART_std.c ****     uint8 requestHandled = USBUART_FALSE;
 1160              		.loc 1 1163 0
 1161 0010 10B5     		push	{r4, lr}
 1162              		.cfi_def_cfa_offset 8
 1163              		.cfi_offset 4, -8
 1164              		.cfi_offset 14, -4
1171:.\Generated_Source\PSoC5/USBUART_std.c ****     {
1172:.\Generated_Source\PSoC5/USBUART_std.c ****         /* Clear the endpoint Halt */
1173:.\Generated_Source\PSoC5/USBUART_std.c ****         USBUART_EP[ep].hwEpState &= (uint8) ~USBUART_ENDPOINT_STATUS_HALT;
 1165              		.loc 1 1173 0
 1166 0012 5A00     		lsls	r2, r3, #1
 1167 0014 1A44     		add	r2, r2, r3
 1168 0016 9200     		lsls	r2, r2, #2
 1169 0018 2149     		ldr	r1, .L104+4
 1170 001a 0A44     		add	r2, r2, r1
 1171 001c 9178     		ldrb	r1, [r2, #2]	@ zero_extendqisi2
 1172 001e 01F0FE01 		and	r1, r1, #254
ARM GAS  C:\Users\lenovo\AppData\Local\Temp\ccWMYq61.s 			page 44


 1173 0022 9170     		strb	r1, [r2, #2]
1174:.\Generated_Source\PSoC5/USBUART_std.c **** 
1175:.\Generated_Source\PSoC5/USBUART_std.c ****         /* Clear the data toggle */
1176:.\Generated_Source\PSoC5/USBUART_std.c ****         USBUART_EP[ep].epToggle = 0u;
 1174              		.loc 1 1176 0
 1175 0024 0021     		movs	r1, #0
 1176 0026 D170     		strb	r1, [r2, #3]
1177:.\Generated_Source\PSoC5/USBUART_std.c ****         
1178:.\Generated_Source\PSoC5/USBUART_std.c ****         /* Clear toggle bit for already armed packet */
1179:.\Generated_Source\PSoC5/USBUART_std.c ****         USBUART_SIE_EP_BASE.sieEp[ep].epCnt0 = (uint8) ~(uint8)USBUART_EPX_CNT_DATA_TOGGLE;
 1177              		.loc 1 1179 0
 1178 0028 1901     		lsls	r1, r3, #4
 1179 002a 7F24     		movs	r4, #127
 1180 002c 1D48     		ldr	r0, .L104+8
 1181 002e 4454     		strb	r4, [r0, r1]
1180:.\Generated_Source\PSoC5/USBUART_std.c ****         
1181:.\Generated_Source\PSoC5/USBUART_std.c ****         /* Return API State as it was defined before */
1182:.\Generated_Source\PSoC5/USBUART_std.c ****         USBUART_EP[ep].apiEpState &= (uint8) ~USBUART_NO_EVENT_ALLOWED;
 1182              		.loc 1 1182 0
 1183 0030 5178     		ldrb	r1, [r2, #1]	@ zero_extendqisi2
 1184 0032 01F0FD01 		and	r1, r1, #253
 1185 0036 5170     		strb	r1, [r2, #1]
1183:.\Generated_Source\PSoC5/USBUART_std.c **** 
1184:.\Generated_Source\PSoC5/USBUART_std.c ****         if ((USBUART_EP[ep].addr & USBUART_DIR_IN) != 0u)
 1186              		.loc 1 1184 0
 1187 0038 1279     		ldrb	r2, [r2, #4]	@ zero_extendqisi2
 1188 003a 12F0800F 		tst	r2, #128
 1189 003e 14D0     		beq	.L97
1185:.\Generated_Source\PSoC5/USBUART_std.c ****         {
1186:.\Generated_Source\PSoC5/USBUART_std.c ****             /* IN Endpoint */
1187:.\Generated_Source\PSoC5/USBUART_std.c ****             if(USBUART_EP[ep].apiEpState == USBUART_IN_BUFFER_EMPTY)
 1190              		.loc 1 1187 0
 1191 0040 03EB4302 		add	r2, r3, r3, lsl #1
 1192 0044 9200     		lsls	r2, r2, #2
 1193 0046 1649     		ldr	r1, .L104+4
 1194 0048 0A44     		add	r2, r2, r1
 1195 004a 5278     		ldrb	r2, [r2, #1]	@ zero_extendqisi2
 1196 004c D2B2     		uxtb	r2, r2
 1197 004e 012A     		cmp	r2, #1
 1198 0050 05D1     		bne	.L98
1188:.\Generated_Source\PSoC5/USBUART_std.c ****             {       
1189:.\Generated_Source\PSoC5/USBUART_std.c ****                 /* Wait for next packet from application */
1190:.\Generated_Source\PSoC5/USBUART_std.c ****                 USBUART_SIE_EP_BASE.sieEp[ep].epCr0 = USBUART_MODE_NAK_IN;
 1199              		.loc 1 1190 0
 1200 0052 1B01     		lsls	r3, r3, #4
 1201              	.LVL114:
 1202 0054 0246     		mov	r2, r0
 1203 0056 1A44     		add	r2, r2, r3
 1204 0058 0C23     		movs	r3, #12
 1205 005a 9370     		strb	r3, [r2, #2]
 1206 005c 19E0     		b	.L99
 1207              	.LVL115:
 1208              	.L98:
1191:.\Generated_Source\PSoC5/USBUART_std.c ****             }
1192:.\Generated_Source\PSoC5/USBUART_std.c ****             else    /* Continue armed transfer */
1193:.\Generated_Source\PSoC5/USBUART_std.c ****             {
1194:.\Generated_Source\PSoC5/USBUART_std.c ****                 USBUART_SIE_EP_BASE.sieEp[ep].epCr0 = USBUART_MODE_ACK_IN;
ARM GAS  C:\Users\lenovo\AppData\Local\Temp\ccWMYq61.s 			page 45


 1209              		.loc 1 1194 0
 1210 005e 1B01     		lsls	r3, r3, #4
 1211              	.LVL116:
 1212 0060 104A     		ldr	r2, .L104+8
 1213 0062 1A44     		add	r2, r2, r3
 1214 0064 0D23     		movs	r3, #13
 1215 0066 9370     		strb	r3, [r2, #2]
 1216 0068 13E0     		b	.L99
 1217              	.LVL117:
 1218              	.L97:
1195:.\Generated_Source\PSoC5/USBUART_std.c ****             }
1196:.\Generated_Source\PSoC5/USBUART_std.c ****         }
1197:.\Generated_Source\PSoC5/USBUART_std.c ****         else
1198:.\Generated_Source\PSoC5/USBUART_std.c ****         {
1199:.\Generated_Source\PSoC5/USBUART_std.c ****             /* OUT Endpoint */
1200:.\Generated_Source\PSoC5/USBUART_std.c ****             if (USBUART_EP[ep].apiEpState == USBUART_OUT_BUFFER_FULL)
 1219              		.loc 1 1200 0
 1220 006a 03EB4302 		add	r2, r3, r3, lsl #1
 1221 006e 9200     		lsls	r2, r2, #2
 1222 0070 0B49     		ldr	r1, .L104+4
 1223 0072 0A44     		add	r2, r2, r1
 1224 0074 5278     		ldrb	r2, [r2, #1]	@ zero_extendqisi2
 1225 0076 D2B2     		uxtb	r2, r2
 1226 0078 012A     		cmp	r2, #1
 1227 007a 05D1     		bne	.L100
1201:.\Generated_Source\PSoC5/USBUART_std.c ****             {       
1202:.\Generated_Source\PSoC5/USBUART_std.c ****                 /* Allow application to read full buffer */
1203:.\Generated_Source\PSoC5/USBUART_std.c ****                 USBUART_SIE_EP_BASE.sieEp[ep].epCr0 = USBUART_MODE_NAK_OUT;
 1228              		.loc 1 1203 0
 1229 007c 1B01     		lsls	r3, r3, #4
 1230              	.LVL118:
 1231 007e 094A     		ldr	r2, .L104+8
 1232 0080 1A44     		add	r2, r2, r3
 1233 0082 0823     		movs	r3, #8
 1234 0084 9370     		strb	r3, [r2, #2]
 1235 0086 04E0     		b	.L99
 1236              	.LVL119:
 1237              	.L100:
1204:.\Generated_Source\PSoC5/USBUART_std.c ****             }
1205:.\Generated_Source\PSoC5/USBUART_std.c ****             else    /* Mark endpoint as empty, so it will be reloaded */
1206:.\Generated_Source\PSoC5/USBUART_std.c ****             {
1207:.\Generated_Source\PSoC5/USBUART_std.c ****                 USBUART_SIE_EP_BASE.sieEp[ep].epCr0 = USBUART_MODE_ACK_OUT;
 1238              		.loc 1 1207 0
 1239 0088 1B01     		lsls	r3, r3, #4
 1240              	.LVL120:
 1241 008a 064A     		ldr	r2, .L104+8
 1242 008c 1A44     		add	r2, r2, r3
 1243 008e 0923     		movs	r3, #9
 1244 0090 9370     		strb	r3, [r2, #2]
 1245              	.L99:
1208:.\Generated_Source\PSoC5/USBUART_std.c ****             }
1209:.\Generated_Source\PSoC5/USBUART_std.c ****         }
1210:.\Generated_Source\PSoC5/USBUART_std.c ****         
1211:.\Generated_Source\PSoC5/USBUART_std.c ****         requestHandled = USBUART_InitNoDataControlTransfer();
 1246              		.loc 1 1211 0
 1247 0092 FFF7FEFF 		bl	USBUART_InitNoDataControlTransfer
 1248              	.LVL121:
ARM GAS  C:\Users\lenovo\AppData\Local\Temp\ccWMYq61.s 			page 46


 1249 0096 10BD     		pop	{r4, pc}
 1250              	.LVL122:
 1251              	.L101:
 1252              		.cfi_def_cfa_offset 0
 1253              		.cfi_restore 4
 1254              		.cfi_restore 14
1164:.\Generated_Source\PSoC5/USBUART_std.c ****     uint8 ep;
 1255              		.loc 1 1164 0
 1256 0098 0020     		movs	r0, #0
 1257 009a 7047     		bx	lr
 1258              	.L105:
 1259              		.align	2
 1260              	.L104:
 1261 009c 00600040 		.word	1073766400
 1262 00a0 00000000 		.word	USBUART_EP
 1263 00a4 FC5F0040 		.word	1073766396
 1264              		.cfi_endproc
 1265              	.LFE11:
 1266              		.size	USBUART_ClearEndpointHalt, .-USBUART_ClearEndpointHalt
 1267              		.section	.text.USBUART_ValidateAlternateSetting,"ax",%progbits
 1268              		.align	2
 1269              		.global	USBUART_ValidateAlternateSetting
 1270              		.thumb
 1271              		.thumb_func
 1272              		.type	USBUART_ValidateAlternateSetting, %function
 1273              	USBUART_ValidateAlternateSetting:
 1274              	.LFB12:
1212:.\Generated_Source\PSoC5/USBUART_std.c ****     }
1213:.\Generated_Source\PSoC5/USBUART_std.c **** 
1214:.\Generated_Source\PSoC5/USBUART_std.c ****     return(requestHandled);
1215:.\Generated_Source\PSoC5/USBUART_std.c **** }
1216:.\Generated_Source\PSoC5/USBUART_std.c **** 
1217:.\Generated_Source\PSoC5/USBUART_std.c **** 
1218:.\Generated_Source\PSoC5/USBUART_std.c **** /*******************************************************************************
1219:.\Generated_Source\PSoC5/USBUART_std.c **** * Function Name: USBUART_ValidateAlternateSetting
1220:.\Generated_Source\PSoC5/USBUART_std.c **** ****************************************************************************//**
1221:.\Generated_Source\PSoC5/USBUART_std.c **** *
1222:.\Generated_Source\PSoC5/USBUART_std.c **** *  Validates (and records) a SET INTERFACE request.
1223:.\Generated_Source\PSoC5/USBUART_std.c **** *
1224:.\Generated_Source\PSoC5/USBUART_std.c **** * \return
1225:.\Generated_Source\PSoC5/USBUART_std.c **** *  requestHandled.
1226:.\Generated_Source\PSoC5/USBUART_std.c **** *
1227:.\Generated_Source\PSoC5/USBUART_std.c **** * \reentrant
1228:.\Generated_Source\PSoC5/USBUART_std.c **** *  No.
1229:.\Generated_Source\PSoC5/USBUART_std.c **** *
1230:.\Generated_Source\PSoC5/USBUART_std.c **** *******************************************************************************/
1231:.\Generated_Source\PSoC5/USBUART_std.c **** uint8 USBUART_ValidateAlternateSetting(void) 
1232:.\Generated_Source\PSoC5/USBUART_std.c **** {
 1275              		.loc 1 1232 0
 1276              		.cfi_startproc
 1277              		@ args = 0, pretend = 0, frame = 0
 1278              		@ frame_needed = 0, uses_anonymous_args = 0
 1279 0000 10B5     		push	{r4, lr}
 1280              		.cfi_def_cfa_offset 8
 1281              		.cfi_offset 4, -8
 1282              		.cfi_offset 14, -4
 1283              	.LVL123:
ARM GAS  C:\Users\lenovo\AppData\Local\Temp\ccWMYq61.s 			page 47


1233:.\Generated_Source\PSoC5/USBUART_std.c ****     uint8 requestHandled = USBUART_FALSE;
1234:.\Generated_Source\PSoC5/USBUART_std.c ****     
1235:.\Generated_Source\PSoC5/USBUART_std.c ****     uint8 interfaceNum;
1236:.\Generated_Source\PSoC5/USBUART_std.c ****     uint8 curInterfacesNum;
1237:.\Generated_Source\PSoC5/USBUART_std.c ****     const T_USBUART_LUT CYCODE *pTmp;
1238:.\Generated_Source\PSoC5/USBUART_std.c ****     
1239:.\Generated_Source\PSoC5/USBUART_std.c ****     /* Get interface number from the request. */
1240:.\Generated_Source\PSoC5/USBUART_std.c ****     interfaceNum = (uint8) USBUART_wIndexLoReg;
 1284              		.loc 1 1240 0
 1285 0002 0E4B     		ldr	r3, .L111
 1286 0004 1C79     		ldrb	r4, [r3, #4]	@ zero_extendqisi2
 1287 0006 E4B2     		uxtb	r4, r4
 1288              	.LVL124:
1241:.\Generated_Source\PSoC5/USBUART_std.c ****     
1242:.\Generated_Source\PSoC5/USBUART_std.c ****     /* Get number of interfaces for current configuration. */
1243:.\Generated_Source\PSoC5/USBUART_std.c ****     pTmp = USBUART_GetConfigTablePtr(USBUART_configuration - 1u);
 1289              		.loc 1 1243 0
 1290 0008 0D4B     		ldr	r3, .L111+4
 1291 000a 1878     		ldrb	r0, [r3]	@ zero_extendqisi2
 1292 000c 0138     		subs	r0, r0, #1
 1293 000e C0B2     		uxtb	r0, r0
 1294 0010 FFF7FEFF 		bl	USBUART_GetConfigTablePtr
 1295              	.LVL125:
1244:.\Generated_Source\PSoC5/USBUART_std.c ****     curInterfacesNum  = ((const uint8 *) pTmp->p_list)[USBUART_CONFIG_DESCR_NUM_INTERFACES];
 1296              		.loc 1 1244 0
 1297 0014 4368     		ldr	r3, [r0, #4]
 1298 0016 1B79     		ldrb	r3, [r3, #4]	@ zero_extendqisi2
 1299              	.LVL126:
1245:.\Generated_Source\PSoC5/USBUART_std.c **** 
1246:.\Generated_Source\PSoC5/USBUART_std.c ****     /* Validate that interface number is within range. */
1247:.\Generated_Source\PSoC5/USBUART_std.c ****     if ((interfaceNum <= curInterfacesNum) || (interfaceNum <= USBUART_MAX_INTERFACES_NUMBER))
 1300              		.loc 1 1247 0
 1301 0018 9C42     		cmp	r4, r3
 1302 001a 01D9     		bls	.L107
 1303              		.loc 1 1247 0 is_stmt 0 discriminator 1
 1304 001c 022C     		cmp	r4, #2
 1305 001e 0AD8     		bhi	.L109
 1306              	.L107:
1248:.\Generated_Source\PSoC5/USBUART_std.c ****     {
1249:.\Generated_Source\PSoC5/USBUART_std.c ****         /* Save current and new alternate settings (come with request) to make 
1250:.\Generated_Source\PSoC5/USBUART_std.c ****         * desicion about following endpoint re-configuration.
1251:.\Generated_Source\PSoC5/USBUART_std.c ****         */
1252:.\Generated_Source\PSoC5/USBUART_std.c ****         USBUART_interfaceSettingLast[interfaceNum] = USBUART_interfaceSetting[interfaceNum];
 1307              		.loc 1 1252 0 is_stmt 1
 1308 0020 084A     		ldr	r2, .L111+8
 1309 0022 135D     		ldrb	r3, [r2, r4]	@ zero_extendqisi2
 1310              	.LVL127:
 1311 0024 DBB2     		uxtb	r3, r3
 1312 0026 0849     		ldr	r1, .L111+12
 1313 0028 0B55     		strb	r3, [r1, r4]
1253:.\Generated_Source\PSoC5/USBUART_std.c ****         USBUART_interfaceSetting[interfaceNum]     = (uint8) USBUART_wValueLoReg;
 1314              		.loc 1 1253 0
 1315 002a 044B     		ldr	r3, .L111
 1316 002c 9B78     		ldrb	r3, [r3, #2]	@ zero_extendqisi2
 1317 002e DBB2     		uxtb	r3, r3
 1318 0030 1355     		strb	r3, [r2, r4]
 1319              	.LVL128:
ARM GAS  C:\Users\lenovo\AppData\Local\Temp\ccWMYq61.s 			page 48


1254:.\Generated_Source\PSoC5/USBUART_std.c ****         
1255:.\Generated_Source\PSoC5/USBUART_std.c ****         requestHandled = USBUART_TRUE;
 1320              		.loc 1 1255 0
 1321 0032 0120     		movs	r0, #1
 1322              	.LVL129:
 1323 0034 10BD     		pop	{r4, pc}
 1324              	.LVL130:
 1325              	.L109:
1233:.\Generated_Source\PSoC5/USBUART_std.c ****     
 1326              		.loc 1 1233 0
 1327 0036 0020     		movs	r0, #0
 1328              	.LVL131:
1256:.\Generated_Source\PSoC5/USBUART_std.c ****     }
1257:.\Generated_Source\PSoC5/USBUART_std.c **** 
1258:.\Generated_Source\PSoC5/USBUART_std.c ****     return (requestHandled);
1259:.\Generated_Source\PSoC5/USBUART_std.c **** }
 1329              		.loc 1 1259 0
 1330 0038 10BD     		pop	{r4, pc}
 1331              	.LVL132:
 1332              	.L112:
 1333 003a 00BF     		.align	2
 1334              	.L111:
 1335 003c 00600040 		.word	1073766400
 1336 0040 00000000 		.word	USBUART_configuration
 1337 0044 00000000 		.word	USBUART_interfaceSetting
 1338 0048 00000000 		.word	USBUART_interfaceSettingLast
 1339              		.cfi_endproc
 1340              	.LFE12:
 1341              		.size	USBUART_ValidateAlternateSetting, .-USBUART_ValidateAlternateSetting
 1342              		.section	.text.USBUART_HandleStandardRqst,"ax",%progbits
 1343              		.align	2
 1344              		.global	USBUART_HandleStandardRqst
 1345              		.thumb
 1346              		.thumb_func
 1347              		.type	USBUART_HandleStandardRqst, %function
 1348              	USBUART_HandleStandardRqst:
 1349              	.LFB0:
  85:.\Generated_Source\PSoC5/USBUART_std.c ****     uint8 requestHandled = USBUART_FALSE;
 1350              		.loc 1 85 0
 1351              		.cfi_startproc
 1352              		@ args = 0, pretend = 0, frame = 0
 1353              		@ frame_needed = 0, uses_anonymous_args = 0
 1354 0000 10B5     		push	{r4, lr}
 1355              		.cfi_def_cfa_offset 8
 1356              		.cfi_offset 4, -8
 1357              		.cfi_offset 14, -4
 1358              	.LVL133:
  89:.\Generated_Source\PSoC5/USBUART_std.c **** 
 1359              		.loc 1 89 0
 1360 0002 964B     		ldr	r3, .L170
 1361 0004 1B78     		ldrb	r3, [r3]	@ zero_extendqisi2
 1362 0006 DBB2     		uxtb	r3, r3
 1363              	.LVL134:
 102:.\Generated_Source\PSoC5/USBUART_std.c **** 
 1364              		.loc 1 102 0
 1365 0008 0021     		movs	r1, #0
 1366 000a 954A     		ldr	r2, .L170+4
ARM GAS  C:\Users\lenovo\AppData\Local\Temp\ccWMYq61.s 			page 49


 1367 000c 1180     		strh	r1, [r2]	@ movhi
 104:.\Generated_Source\PSoC5/USBUART_std.c ****     {
 1368              		.loc 1 104 0
 1369 000e 13F0800F 		tst	r3, #128
 1370 0012 00F0B380 		beq	.L114
 107:.\Generated_Source\PSoC5/USBUART_std.c ****         {
 1371              		.loc 1 107 0
 1372 0016 914A     		ldr	r2, .L170
 1373 0018 5278     		ldrb	r2, [r2, #1]	@ zero_extendqisi2
 1374 001a D2B2     		uxtb	r2, r2
 1375 001c 0A2A     		cmp	r2, #10
 1376 001e 00F27981 		bhi	.L148
 1377 0022 DFE812F0 		tbh	[pc, r2, lsl #1]
 1378              	.L117:
 1379 0026 6F00     		.2byte	(.L116-.L117)/2
 1380 0028 7701     		.2byte	(.L148-.L117)/2
 1381 002a 7701     		.2byte	(.L148-.L117)/2
 1382 002c 7701     		.2byte	(.L148-.L117)/2
 1383 002e 7701     		.2byte	(.L148-.L117)/2
 1384 0030 7701     		.2byte	(.L148-.L117)/2
 1385 0032 0B00     		.2byte	(.L118-.L117)/2
 1386 0034 7701     		.2byte	(.L148-.L117)/2
 1387 0036 9800     		.2byte	(.L119-.L117)/2
 1388 0038 7701     		.2byte	(.L148-.L117)/2
 1389 003a A000     		.2byte	(.L120-.L117)/2
 1390              		.p2align 1
 1391              	.L118:
 110:.\Generated_Source\PSoC5/USBUART_std.c ****                 {
 1392              		.loc 1 110 0
 1393 003c 874B     		ldr	r3, .L170
 1394              	.LVL135:
 1395 003e DB78     		ldrb	r3, [r3, #3]	@ zero_extendqisi2
 1396 0040 DBB2     		uxtb	r3, r3
 1397 0042 012B     		cmp	r3, #1
 1398 0044 09D1     		bne	.L121
 112:.\Generated_Source\PSoC5/USBUART_std.c ****                     USBUART_currentTD.pData = (volatile uint8 *)pTmp->p_list;
 1399              		.loc 1 112 0
 1400 0046 FFF7FEFF 		bl	USBUART_GetDeviceTablePtr
 1401              	.LVL136:
 113:.\Generated_Source\PSoC5/USBUART_std.c ****                     USBUART_currentTD.count = USBUART_DEVICE_DESCR_LENGTH;
 1402              		.loc 1 113 0
 1403 004a 4268     		ldr	r2, [r0, #4]
 1404 004c 844B     		ldr	r3, .L170+4
 1405 004e 5A60     		str	r2, [r3, #4]
 114:.\Generated_Source\PSoC5/USBUART_std.c ****                     
 1406              		.loc 1 114 0
 1407 0050 1222     		movs	r2, #18
 1408 0052 1A80     		strh	r2, [r3]	@ movhi
 116:.\Generated_Source\PSoC5/USBUART_std.c ****                 }
 1409              		.loc 1 116 0
 1410 0054 FFF7FEFF 		bl	USBUART_InitControlRead
 1411              	.LVL137:
 1412 0058 10BD     		pop	{r4, pc}
 1413              	.LVL138:
 1414              	.L121:
 118:.\Generated_Source\PSoC5/USBUART_std.c ****                 {
 1415              		.loc 1 118 0
ARM GAS  C:\Users\lenovo\AppData\Local\Temp\ccWMYq61.s 			page 50


 1416 005a 804B     		ldr	r3, .L170
 1417 005c DB78     		ldrb	r3, [r3, #3]	@ zero_extendqisi2
 1418 005e DBB2     		uxtb	r3, r3
 1419 0060 022B     		cmp	r3, #2
 1420 0062 13D1     		bne	.L122
 120:.\Generated_Source\PSoC5/USBUART_std.c ****                     
 1421              		.loc 1 120 0
 1422 0064 7D4B     		ldr	r3, .L170
 1423 0066 9878     		ldrb	r0, [r3, #2]	@ zero_extendqisi2
 1424 0068 FFF7FEFF 		bl	USBUART_GetConfigTablePtr
 1425              	.LVL139:
 123:.\Generated_Source\PSoC5/USBUART_std.c ****                     {
 1426              		.loc 1 123 0
 1427 006c 0028     		cmp	r0, #0
 1428 006e 00F05381 		beq	.L149
 125:.\Generated_Source\PSoC5/USBUART_std.c ****                         USBUART_currentTD.count = (uint16)((uint16)(USBUART_currentTD.pData)[USBUAR
 1429              		.loc 1 125 0
 1430 0072 4268     		ldr	r2, [r0, #4]
 1431 0074 7A4B     		ldr	r3, .L170+4
 1432 0076 5A60     		str	r2, [r3, #4]
 126:.\Generated_Source\PSoC5/USBUART_std.c ****                                                                             (USBUART_currentTD.pDat
 1433              		.loc 1 126 0
 1434 0078 5A68     		ldr	r2, [r3, #4]
 1435 007a D178     		ldrb	r1, [r2, #3]	@ zero_extendqisi2
 127:.\Generated_Source\PSoC5/USBUART_std.c ****                         requestHandled  = USBUART_InitControlRead();
 1436              		.loc 1 127 0
 1437 007c 5A68     		ldr	r2, [r3, #4]
 1438 007e 9278     		ldrb	r2, [r2, #2]	@ zero_extendqisi2
 126:.\Generated_Source\PSoC5/USBUART_std.c ****                                                                             (USBUART_currentTD.pDat
 1439              		.loc 1 126 0
 1440 0080 42EA0122 		orr	r2, r2, r1, lsl #8
 1441 0084 1A80     		strh	r2, [r3]	@ movhi
 128:.\Generated_Source\PSoC5/USBUART_std.c ****                     }
 1442              		.loc 1 128 0
 1443 0086 FFF7FEFF 		bl	USBUART_InitControlRead
 1444              	.LVL140:
 1445 008a 10BD     		pop	{r4, pc}
 1446              	.LVL141:
 1447              	.L122:
 149:.\Generated_Source\PSoC5/USBUART_std.c ****                 {
 1448              		.loc 1 149 0
 1449 008c 734B     		ldr	r3, .L170
 1450 008e DB78     		ldrb	r3, [r3, #3]	@ zero_extendqisi2
 1451 0090 DBB2     		uxtb	r3, r3
 1452 0092 032B     		cmp	r3, #3
 1453 0094 05D0     		beq	.L150
 1454 0096 32E0     		b	.L165
 1455              	.LVL142:
 1456              	.L126:
 159:.\Generated_Source\PSoC5/USBUART_std.c ****                         /* Move to next string descriptor */
 1457              		.loc 1 159 0
 1458 0098 0A78     		ldrb	r2, [r1]	@ zero_extendqisi2
 1459              	.LVL143:
 161:.\Generated_Source\PSoC5/USBUART_std.c ****                         nStr++;
 1460              		.loc 1 161 0
 1461 009a 1144     		add	r1, r1, r2
 1462              	.LVL144:
ARM GAS  C:\Users\lenovo\AppData\Local\Temp\ccWMYq61.s 			page 51


 162:.\Generated_Source\PSoC5/USBUART_std.c ****                     }
 1463              		.loc 1 162 0
 1464 009c 0133     		adds	r3, r3, #1
 1465              	.LVL145:
 1466 009e DBB2     		uxtb	r3, r3
 1467              	.LVL146:
 1468 00a0 01E0     		b	.L123
 1469              	.LVL147:
 1470              	.L150:
 1471 00a2 0023     		movs	r3, #0
 1472 00a4 6F49     		ldr	r1, .L170+8
 1473              	.LVL148:
 1474              	.L123:
 156:.\Generated_Source\PSoC5/USBUART_std.c ****                     {
 1475              		.loc 1 156 0
 1476 00a6 6D4A     		ldr	r2, .L170
 1477 00a8 9278     		ldrb	r2, [r2, #2]	@ zero_extendqisi2
 1478 00aa D2B2     		uxtb	r2, r2
 1479 00ac 9A42     		cmp	r2, r3
 1480 00ae 03D9     		bls	.L125
 156:.\Generated_Source\PSoC5/USBUART_std.c ****                     {
 1481              		.loc 1 156 0 is_stmt 0 discriminator 1
 1482 00b0 0A78     		ldrb	r2, [r1]	@ zero_extendqisi2
 1483 00b2 12F0FF0F 		tst	r2, #255
 1484 00b6 EFD1     		bne	.L126
 1485              	.L125:
 168:.\Generated_Source\PSoC5/USBUART_std.c ****                     {
 1486              		.loc 1 168 0 is_stmt 1
 1487 00b8 684B     		ldr	r3, .L170
 1488              	.LVL149:
 1489 00ba 9B78     		ldrb	r3, [r3, #2]	@ zero_extendqisi2
 1490 00bc DBB2     		uxtb	r3, r3
 1491 00be EE2B     		cmp	r3, #238
 1492 00c0 00D1     		bne	.L127
 170:.\Generated_Source\PSoC5/USBUART_std.c ****                     }
 1493              		.loc 1 170 0
 1494 00c2 6949     		ldr	r1, .L170+12
 1495              	.LVL150:
 1496              	.L127:
 176:.\Generated_Source\PSoC5/USBUART_std.c ****                         (USBUART_wValueLoReg == USBUART_DEVICE0_DESCR[USBUART_DEVICE_DESCR_SN_SHIFT
 1497              		.loc 1 176 0
 1498 00c4 654B     		ldr	r3, .L170
 1499 00c6 9B78     		ldrb	r3, [r3, #2]	@ zero_extendqisi2
 1500 00c8 13F0FF0F 		tst	r3, #255
 1501 00cc 0BD0     		beq	.L128
 177:.\Generated_Source\PSoC5/USBUART_std.c ****                     {
 1502              		.loc 1 177 0 discriminator 1
 1503 00ce 634B     		ldr	r3, .L170
 1504 00d0 9B78     		ldrb	r3, [r3, #2]	@ zero_extendqisi2
 1505 00d2 DBB2     		uxtb	r3, r3
 1506 00d4 654A     		ldr	r2, .L170+16
 1507 00d6 127C     		ldrb	r2, [r2, #16]	@ zero_extendqisi2
 176:.\Generated_Source\PSoC5/USBUART_std.c ****                         (USBUART_wValueLoReg == USBUART_DEVICE0_DESCR[USBUART_DEVICE_DESCR_SN_SHIFT
 1508              		.loc 1 176 0 discriminator 1
 1509 00d8 9342     		cmp	r3, r2
 1510 00da 04D1     		bne	.L128
 181:.\Generated_Source\PSoC5/USBUART_std.c ****                         pStr = USBUART_idSerialNumberStringDescriptor;
ARM GAS  C:\Users\lenovo\AppData\Local\Temp\ccWMYq61.s 			page 52


 1511              		.loc 1 181 0
 1512 00dc 644C     		ldr	r4, .L170+20
 1513 00de 2046     		mov	r0, r4
 1514 00e0 FFF7FEFF 		bl	USBUART_ReadDieID
 1515              	.LVL151:
 182:.\Generated_Source\PSoC5/USBUART_std.c ****                     #elif defined(USBUART_ENABLE_FWSN_STRING)
 1516              		.loc 1 182 0
 1517 00e4 2146     		mov	r1, r4
 1518              	.LVL152:
 1519              	.L128:
 199:.\Generated_Source\PSoC5/USBUART_std.c ****                     {
 1520              		.loc 1 199 0
 1521 00e6 0B78     		ldrb	r3, [r1]	@ zero_extendqisi2
 1522 00e8 13F0FF0F 		tst	r3, #255
 1523 00ec 00F01681 		beq	.L152
 201:.\Generated_Source\PSoC5/USBUART_std.c ****                         USBUART_currentTD.pData = pStr;
 1524              		.loc 1 201 0
 1525 00f0 0B78     		ldrb	r3, [r1]	@ zero_extendqisi2
 1526 00f2 5B4A     		ldr	r2, .L170+4
 1527 00f4 1380     		strh	r3, [r2]	@ movhi
 202:.\Generated_Source\PSoC5/USBUART_std.c ****                         requestHandled  = USBUART_InitControlRead();
 1528              		.loc 1 202 0
 1529 00f6 5160     		str	r1, [r2, #4]
 203:.\Generated_Source\PSoC5/USBUART_std.c ****                     }
 1530              		.loc 1 203 0
 1531 00f8 FFF7FEFF 		bl	USBUART_InitControlRead
 1532              	.LVL153:
 1533 00fc 10BD     		pop	{r4, pc}
 1534              	.LVL154:
 1535              	.L165:
 209:.\Generated_Source\PSoC5/USBUART_std.c ****                 }
 1536              		.loc 1 209 0
 1537 00fe FFF7FEFF 		bl	USBUART_DispatchClassRqst
 1538              	.LVL155:
 1539 0102 10BD     		pop	{r4, pc}
 1540              	.LVL156:
 1541              	.L116:
 214:.\Generated_Source\PSoC5/USBUART_std.c ****                 {
 1542              		.loc 1 214 0
 1543 0104 13F00303 		ands	r3, r3, #3
 1544              	.LVL157:
 1545 0108 17D0     		beq	.L129
 1546 010a 022B     		cmp	r3, #2
 1547 010c 40F00881 		bne	.L166
 217:.\Generated_Source\PSoC5/USBUART_std.c ****                         USBUART_tBuffer[0u]     = USBUART_EP[USBUART_wIndexLoReg & USBUART_DIR_UNUS
 1548              		.loc 1 217 0
 1549 0110 5349     		ldr	r1, .L170+4
 1550 0112 0B80     		strh	r3, [r1]	@ movhi
 218:.\Generated_Source\PSoC5/USBUART_std.c ****                         USBUART_tBuffer[1u]     = 0u;
 1551              		.loc 1 218 0
 1552 0114 514B     		ldr	r3, .L170
 1553 0116 1B79     		ldrb	r3, [r3, #4]	@ zero_extendqisi2
 1554 0118 03F07F03 		and	r3, r3, #127
 1555 011c 03EB4303 		add	r3, r3, r3, lsl #1
 1556 0120 9B00     		lsls	r3, r3, #2
 1557 0122 544A     		ldr	r2, .L170+24
 1558 0124 1344     		add	r3, r3, r2
ARM GAS  C:\Users\lenovo\AppData\Local\Temp\ccWMYq61.s 			page 53


 1559 0126 9A78     		ldrb	r2, [r3, #2]	@ zero_extendqisi2
 1560 0128 D2B2     		uxtb	r2, r2
 1561 012a 534B     		ldr	r3, .L170+28
 1562 012c 1A70     		strb	r2, [r3]
 219:.\Generated_Source\PSoC5/USBUART_std.c ****                         USBUART_currentTD.pData = &USBUART_tBuffer[0u];
 1563              		.loc 1 219 0
 1564 012e 0022     		movs	r2, #0
 1565 0130 5A70     		strb	r2, [r3, #1]
 220:.\Generated_Source\PSoC5/USBUART_std.c ****                         
 1566              		.loc 1 220 0
 1567 0132 4B60     		str	r3, [r1, #4]
 222:.\Generated_Source\PSoC5/USBUART_std.c ****                         break;
 1568              		.loc 1 222 0
 1569 0134 FFF7FEFF 		bl	USBUART_InitControlRead
 1570              	.LVL158:
 223:.\Generated_Source\PSoC5/USBUART_std.c ****                     case USBUART_RQST_RCPT_DEV:
 1571              		.loc 1 223 0
 1572 0138 10BD     		pop	{r4, pc}
 1573              	.LVL159:
 1574              	.L129:
 225:.\Generated_Source\PSoC5/USBUART_std.c ****                         USBUART_tBuffer[0u]     = USBUART_deviceStatus;
 1575              		.loc 1 225 0
 1576 013a 4949     		ldr	r1, .L170+4
 1577 013c 0223     		movs	r3, #2
 1578 013e 0B80     		strh	r3, [r1]	@ movhi
 226:.\Generated_Source\PSoC5/USBUART_std.c ****                         USBUART_tBuffer[1u]     = 0u;
 1579              		.loc 1 226 0
 1580 0140 4E4B     		ldr	r3, .L170+32
 1581 0142 1A78     		ldrb	r2, [r3]	@ zero_extendqisi2
 1582 0144 D2B2     		uxtb	r2, r2
 1583 0146 4C4B     		ldr	r3, .L170+28
 1584 0148 1A70     		strb	r2, [r3]
 227:.\Generated_Source\PSoC5/USBUART_std.c ****                         USBUART_currentTD.pData = &USBUART_tBuffer[0u];
 1585              		.loc 1 227 0
 1586 014a 0022     		movs	r2, #0
 1587 014c 5A70     		strb	r2, [r3, #1]
 228:.\Generated_Source\PSoC5/USBUART_std.c ****                         
 1588              		.loc 1 228 0
 1589 014e 4B60     		str	r3, [r1, #4]
 230:.\Generated_Source\PSoC5/USBUART_std.c ****                         break;
 1590              		.loc 1 230 0
 1591 0150 FFF7FEFF 		bl	USBUART_InitControlRead
 1592              	.LVL160:
 231:.\Generated_Source\PSoC5/USBUART_std.c ****                     default:    /* requestHandled is initialized as FALSE by default */
 1593              		.loc 1 231 0
 1594 0154 10BD     		pop	{r4, pc}
 1595              	.LVL161:
 1596              	.L119:
 238:.\Generated_Source\PSoC5/USBUART_std.c ****                 USBUART_currentTD.pData = (volatile uint8 *) &USBUART_configuration;
 1597              		.loc 1 238 0
 1598 0156 424B     		ldr	r3, .L170+4
 1599              	.LVL162:
 1600 0158 0122     		movs	r2, #1
 1601 015a 1A80     		strh	r2, [r3]	@ movhi
 239:.\Generated_Source\PSoC5/USBUART_std.c ****                 requestHandled  = USBUART_InitControlRead();
 1602              		.loc 1 239 0
 1603 015c 484A     		ldr	r2, .L170+36
ARM GAS  C:\Users\lenovo\AppData\Local\Temp\ccWMYq61.s 			page 54


 1604 015e 5A60     		str	r2, [r3, #4]
 240:.\Generated_Source\PSoC5/USBUART_std.c ****                 break;
 1605              		.loc 1 240 0
 1606 0160 FFF7FEFF 		bl	USBUART_InitControlRead
 1607              	.LVL163:
 241:.\Generated_Source\PSoC5/USBUART_std.c ****                 
 1608              		.loc 1 241 0
 1609 0164 10BD     		pop	{r4, pc}
 1610              	.LVL164:
 1611              	.L120:
 244:.\Generated_Source\PSoC5/USBUART_std.c ****                 USBUART_currentTD.pData = (volatile uint8 *) &USBUART_interfaceSetting[USBUART_wInd
 1612              		.loc 1 244 0
 1613 0166 3E4A     		ldr	r2, .L170+4
 1614 0168 0123     		movs	r3, #1
 1615              	.LVL165:
 1616 016a 1380     		strh	r3, [r2]	@ movhi
 245:.\Generated_Source\PSoC5/USBUART_std.c ****                 requestHandled  = USBUART_InitControlRead();
 1617              		.loc 1 245 0
 1618 016c 3B4B     		ldr	r3, .L170
 1619 016e 1B79     		ldrb	r3, [r3, #4]	@ zero_extendqisi2
 1620 0170 4449     		ldr	r1, .L170+40
 1621 0172 0B44     		add	r3, r3, r1
 1622 0174 5360     		str	r3, [r2, #4]
 246:.\Generated_Source\PSoC5/USBUART_std.c ****                 break;
 1623              		.loc 1 246 0
 1624 0176 FFF7FEFF 		bl	USBUART_InitControlRead
 1625              	.LVL166:
 247:.\Generated_Source\PSoC5/USBUART_std.c ****                 
 1626              		.loc 1 247 0
 1627 017a 10BD     		pop	{r4, pc}
 1628              	.LVL167:
 1629              	.L114:
 256:.\Generated_Source\PSoC5/USBUART_std.c ****         {
 1630              		.loc 1 256 0
 1631 017c 374A     		ldr	r2, .L170
 1632 017e 5278     		ldrb	r2, [r2, #1]	@ zero_extendqisi2
 1633 0180 013A     		subs	r2, r2, #1
 1634 0182 0A2A     		cmp	r2, #10
 1635 0184 00F2CE80 		bhi	.L154
 1636 0188 DFE812F0 		tbh	[pc, r2, lsl #1]
 1637              	.L132:
 1638 018c 4B00     		.2byte	(.L131-.L132)/2
 1639 018e CC00     		.2byte	(.L154-.L132)/2
 1640 0190 9700     		.2byte	(.L133-.L132)/2
 1641 0192 CC00     		.2byte	(.L154-.L132)/2
 1642 0194 0B00     		.2byte	(.L134-.L132)/2
 1643 0196 CC00     		.2byte	(.L154-.L132)/2
 1644 0198 CC00     		.2byte	(.L154-.L132)/2
 1645 019a CC00     		.2byte	(.L154-.L132)/2
 1646 019c 1300     		.2byte	(.L135-.L132)/2
 1647 019e CC00     		.2byte	(.L154-.L132)/2
 1648 01a0 3000     		.2byte	(.L136-.L132)/2
 1649              		.p2align 1
 1650              	.L134:
 260:.\Generated_Source\PSoC5/USBUART_std.c ****                 requestHandled = USBUART_InitNoDataControlTransfer();
 1651              		.loc 1 260 0
 1652 01a2 2E4B     		ldr	r3, .L170
ARM GAS  C:\Users\lenovo\AppData\Local\Temp\ccWMYq61.s 			page 55


 1653              	.LVL168:
 1654 01a4 9B78     		ldrb	r3, [r3, #2]	@ zero_extendqisi2
 1655 01a6 DBB2     		uxtb	r3, r3
 1656 01a8 374A     		ldr	r2, .L170+44
 1657 01aa 1370     		strb	r3, [r2]
 261:.\Generated_Source\PSoC5/USBUART_std.c ****                 break;
 1658              		.loc 1 261 0
 1659 01ac FFF7FEFF 		bl	USBUART_InitNoDataControlTransfer
 1660              	.LVL169:
 262:.\Generated_Source\PSoC5/USBUART_std.c ****                 
 1661              		.loc 1 262 0
 1662 01b0 10BD     		pop	{r4, pc}
 1663              	.LVL170:
 1664              	.L135:
 265:.\Generated_Source\PSoC5/USBUART_std.c ****                 
 1665              		.loc 1 265 0
 1666 01b2 2A4B     		ldr	r3, .L170
 1667              	.LVL171:
 1668 01b4 9B78     		ldrb	r3, [r3, #2]	@ zero_extendqisi2
 1669              	.LVL172:
 268:.\Generated_Source\PSoC5/USBUART_std.c ****                 {
 1670              		.loc 1 268 0
 1671 01b6 03F0FF04 		and	r4, r3, #255
 1672 01ba 1BB1     		cbz	r3, .L137
 270:.\Generated_Source\PSoC5/USBUART_std.c ****                 }
 1673              		.loc 1 270 0
 1674 01bc 601E     		subs	r0, r4, #1
 1675 01be C0B2     		uxtb	r0, r0
 1676 01c0 FFF7FEFF 		bl	USBUART_GetConfigTablePtr
 1677              	.LVL173:
 1678              	.L137:
 274:.\Generated_Source\PSoC5/USBUART_std.c ****                 {
 1679              		.loc 1 274 0
 1680 01c4 04B1     		cbz	r4, .L138
 274:.\Generated_Source\PSoC5/USBUART_std.c ****                 {
 1681              		.loc 1 274 0 is_stmt 0 discriminator 1
 1682 01c6 10B9     		cbnz	r0, .L139
 1683              	.L138:
 274:.\Generated_Source\PSoC5/USBUART_std.c ****                 {
 1684              		.loc 1 274 0 discriminator 3
 1685 01c8 002C     		cmp	r4, #0
 1686 01ca 40F0AD80 		bne	.L155
 1687              	.L139:
 277:.\Generated_Source\PSoC5/USBUART_std.c ****                     {
 1688              		.loc 1 277 0 is_stmt 1
 1689 01ce 2C4B     		ldr	r3, .L170+36
 1690 01d0 1B78     		ldrb	r3, [r3]	@ zero_extendqisi2
 1691 01d2 DBB2     		uxtb	r3, r3
 1692 01d4 9C42     		cmp	r4, r3
 1693 01d6 06D0     		beq	.L140
 279:.\Generated_Source\PSoC5/USBUART_std.c ****                         USBUART_configurationChanged = USBUART_TRUE;
 1694              		.loc 1 279 0
 1695 01d8 294B     		ldr	r3, .L170+36
 1696 01da 1C70     		strb	r4, [r3]
 280:.\Generated_Source\PSoC5/USBUART_std.c ****                         USBUART_Config(USBUART_TRUE);
 1697              		.loc 1 280 0
 1698 01dc 0120     		movs	r0, #1
ARM GAS  C:\Users\lenovo\AppData\Local\Temp\ccWMYq61.s 			page 56


 1699              	.LVL174:
 1700 01de 2B4B     		ldr	r3, .L170+48
 1701 01e0 1870     		strb	r0, [r3]
 281:.\Generated_Source\PSoC5/USBUART_std.c ****                     }
 1702              		.loc 1 281 0
 1703 01e2 FFF7FEFF 		bl	USBUART_Config
 1704              	.LVL175:
 1705              	.L140:
 283:.\Generated_Source\PSoC5/USBUART_std.c ****                 }
 1706              		.loc 1 283 0
 1707 01e6 FFF7FEFF 		bl	USBUART_InitNoDataControlTransfer
 1708              	.LVL176:
 1709 01ea 10BD     		pop	{r4, pc}
 1710              	.LVL177:
 1711              	.L136:
 288:.\Generated_Source\PSoC5/USBUART_std.c ****                 {
 1712              		.loc 1 288 0
 1713 01ec FFF7FEFF 		bl	USBUART_ValidateAlternateSetting
 1714              	.LVL178:
 1715 01f0 0028     		cmp	r0, #0
 1716 01f2 00F09B80 		beq	.L156
 291:.\Generated_Source\PSoC5/USBUART_std.c ****                     USBUART_interfaceNumber = (uint8) USBUART_wIndexLoReg;
 1717              		.loc 1 291 0
 1718 01f6 194A     		ldr	r2, .L170
 1719 01f8 1379     		ldrb	r3, [r2, #4]	@ zero_extendqisi2
 1720 01fa DBB2     		uxtb	r3, r3
 1721              	.LVL179:
 292:.\Generated_Source\PSoC5/USBUART_std.c ****                      
 1722              		.loc 1 292 0
 1723 01fc 1279     		ldrb	r2, [r2, #4]	@ zero_extendqisi2
 1724 01fe D2B2     		uxtb	r2, r2
 1725 0200 2349     		ldr	r1, .L170+52
 1726 0202 0A70     		strb	r2, [r1]
 295:.\Generated_Source\PSoC5/USBUART_std.c ****                     {
 1727              		.loc 1 295 0
 1728 0204 234A     		ldr	r2, .L170+56
 1729 0206 D25C     		ldrb	r2, [r2, r3]	@ zero_extendqisi2
 1730 0208 1E49     		ldr	r1, .L170+40
 1731 020a C95C     		ldrb	r1, [r1, r3]	@ zero_extendqisi2
 1732 020c D3B2     		uxtb	r3, r2
 1733              	.LVL180:
 1734 020e 8B42     		cmp	r3, r1
 1735 0210 04D0     		beq	.L141
 297:.\Generated_Source\PSoC5/USBUART_std.c ****                     
 1736              		.loc 1 297 0
 1737 0212 0122     		movs	r2, #1
 1738 0214 1D4B     		ldr	r3, .L170+48
 1739 0216 1A70     		strb	r2, [r3]
 303:.\Generated_Source\PSoC5/USBUART_std.c ****                     #endif /* (USBUART_EP_MANAGEMENT_MANUAL && USBUART_EP_ALLOC_DYNAMIC) */
 1740              		.loc 1 303 0
 1741 0218 FFF7FEFF 		bl	USBUART_ConfigAltChanged
 1742              	.LVL181:
 1743              	.L141:
 307:.\Generated_Source\PSoC5/USBUART_std.c ****                 }
 1744              		.loc 1 307 0
 1745 021c FFF7FEFF 		bl	USBUART_InitNoDataControlTransfer
 1746              	.LVL182:
ARM GAS  C:\Users\lenovo\AppData\Local\Temp\ccWMYq61.s 			page 57


 1747 0220 10BD     		pop	{r4, pc}
 1748              	.LVL183:
 1749              	.L131:
 312:.\Generated_Source\PSoC5/USBUART_std.c ****                 {
 1750              		.loc 1 312 0
 1751 0222 03F00303 		and	r3, r3, #3
 1752              	.LVL184:
 1753 0226 012B     		cmp	r3, #1
 1754 0228 36D0     		beq	.L142
 1755 022a 4BB1     		cbz	r3, .L143
 1756 022c 022B     		cmp	r3, #2
 1757 022e 7FD1     		bne	.L167
 315:.\Generated_Source\PSoC5/USBUART_std.c ****                         {
 1758              		.loc 1 315 0
 1759 0230 0A4B     		ldr	r3, .L170
 1760 0232 9B78     		ldrb	r3, [r3, #2]	@ zero_extendqisi2
 1761 0234 13F0FF0F 		tst	r3, #255
 1762 0238 7CD1     		bne	.L158
 317:.\Generated_Source\PSoC5/USBUART_std.c ****                         }
 1763              		.loc 1 317 0
 1764 023a FFF7FEFF 		bl	USBUART_ClearEndpointHalt
 1765              	.LVL185:
 1766 023e 10BD     		pop	{r4, pc}
 1767              	.LVL186:
 1768              	.L143:
 322:.\Generated_Source\PSoC5/USBUART_std.c ****                         {
 1769              		.loc 1 322 0
 1770 0240 064B     		ldr	r3, .L170
 1771 0242 9B78     		ldrb	r3, [r3, #2]	@ zero_extendqisi2
 1772 0244 DBB2     		uxtb	r3, r3
 1773 0246 012B     		cmp	r3, #1
 1774 0248 76D1     		bne	.L159
 324:.\Generated_Source\PSoC5/USBUART_std.c ****                             requestHandled = USBUART_InitNoDataControlTransfer();
 1775              		.loc 1 324 0
 1776 024a 0C4A     		ldr	r2, .L170+32
 1777 024c 1378     		ldrb	r3, [r2]	@ zero_extendqisi2
 1778 024e 03F0FD03 		and	r3, r3, #253
 1779 0252 1370     		strb	r3, [r2]
 325:.\Generated_Source\PSoC5/USBUART_std.c ****                         }
 1780              		.loc 1 325 0
 1781 0254 FFF7FEFF 		bl	USBUART_InitNoDataControlTransfer
 1782              	.LVL187:
 1783 0258 10BD     		pop	{r4, pc}
 1784              	.L171:
 1785 025a 00BF     		.align	2
 1786              	.L170:
 1787 025c 00600040 		.word	1073766400
 1788 0260 00000000 		.word	USBUART_currentTD
 1789 0264 00000000 		.word	USBUART_STRING_DESCRIPTORS
 1790 0268 00000000 		.word	USBUART_MSOS_DESCRIPTOR
 1791 026c 00000000 		.word	USBUART_DEVICE0_DESCR
 1792 0270 00000000 		.word	USBUART_idSerialNumberStringDescriptor
 1793 0274 00000000 		.word	USBUART_EP
 1794 0278 00000000 		.word	.LANCHOR0
 1795 027c 00000000 		.word	USBUART_deviceStatus
 1796 0280 00000000 		.word	USBUART_configuration
 1797 0284 00000000 		.word	USBUART_interfaceSetting
ARM GAS  C:\Users\lenovo\AppData\Local\Temp\ccWMYq61.s 			page 58


 1798 0288 00000000 		.word	USBUART_deviceAddress
 1799 028c 00000000 		.word	USBUART_configurationChanged
 1800 0290 00000000 		.word	USBUART_interfaceNumber
 1801 0294 00000000 		.word	USBUART_interfaceSettingLast
 1802              	.LVL188:
 1803              	.L142:
 330:.\Generated_Source\PSoC5/USBUART_std.c ****                         {
 1804              		.loc 1 330 0
 1805 0298 2D4B     		ldr	r3, .L172
 1806 029a 1B79     		ldrb	r3, [r3, #4]	@ zero_extendqisi2
 1807 029c DBB2     		uxtb	r3, r3
 1808 029e 012B     		cmp	r3, #1
 1809 02a0 4CD8     		bhi	.L160
 332:.\Generated_Source\PSoC5/USBUART_std.c ****                             requestHandled = USBUART_InitNoDataControlTransfer();
 1810              		.loc 1 332 0
 1811 02a2 2B4B     		ldr	r3, .L172
 1812 02a4 9878     		ldrb	r0, [r3, #2]	@ zero_extendqisi2
 1813 02a6 1B79     		ldrb	r3, [r3, #4]	@ zero_extendqisi2
 1814 02a8 DBB2     		uxtb	r3, r3
 1815 02aa 2A49     		ldr	r1, .L172+4
 1816 02ac CA5C     		ldrb	r2, [r1, r3]	@ zero_extendqisi2
 1817 02ae 22EA0002 		bic	r2, r2, r0
 1818 02b2 CA54     		strb	r2, [r1, r3]
 333:.\Generated_Source\PSoC5/USBUART_std.c ****                         }
 1819              		.loc 1 333 0
 1820 02b4 FFF7FEFF 		bl	USBUART_InitNoDataControlTransfer
 1821              	.LVL189:
 1822 02b8 10BD     		pop	{r4, pc}
 1823              	.LVL190:
 1824              	.L133:
 342:.\Generated_Source\PSoC5/USBUART_std.c ****                 {
 1825              		.loc 1 342 0
 1826 02ba 03F00303 		and	r3, r3, #3
 1827              	.LVL191:
 1828 02be 012B     		cmp	r3, #1
 1829 02c0 17D0     		beq	.L145
 1830 02c2 4BB1     		cbz	r3, .L146
 1831 02c4 022B     		cmp	r3, #2
 1832 02c6 3BD1     		bne	.L168
 345:.\Generated_Source\PSoC5/USBUART_std.c ****                         {
 1833              		.loc 1 345 0
 1834 02c8 214B     		ldr	r3, .L172
 1835 02ca 9B78     		ldrb	r3, [r3, #2]	@ zero_extendqisi2
 1836 02cc 13F0FF0F 		tst	r3, #255
 1837 02d0 38D1     		bne	.L162
 347:.\Generated_Source\PSoC5/USBUART_std.c ****                         }
 1838              		.loc 1 347 0
 1839 02d2 FFF7FEFF 		bl	USBUART_SetEndpointHalt
 1840              	.LVL192:
 1841 02d6 10BD     		pop	{r4, pc}
 1842              	.LVL193:
 1843              	.L146:
 353:.\Generated_Source\PSoC5/USBUART_std.c ****                         {
 1844              		.loc 1 353 0
 1845 02d8 1D4B     		ldr	r3, .L172
 1846 02da 9B78     		ldrb	r3, [r3, #2]	@ zero_extendqisi2
 1847 02dc DBB2     		uxtb	r3, r3
ARM GAS  C:\Users\lenovo\AppData\Local\Temp\ccWMYq61.s 			page 59


 1848 02de 012B     		cmp	r3, #1
 1849 02e0 32D1     		bne	.L163
 355:.\Generated_Source\PSoC5/USBUART_std.c ****                             requestHandled = USBUART_InitNoDataControlTransfer();
 1850              		.loc 1 355 0
 1851 02e2 1D4A     		ldr	r2, .L172+8
 1852 02e4 1378     		ldrb	r3, [r2]	@ zero_extendqisi2
 1853 02e6 43F00203 		orr	r3, r3, #2
 1854 02ea 1370     		strb	r3, [r2]
 356:.\Generated_Source\PSoC5/USBUART_std.c ****                         }
 1855              		.loc 1 356 0
 1856 02ec FFF7FEFF 		bl	USBUART_InitNoDataControlTransfer
 1857              	.LVL194:
 1858 02f0 10BD     		pop	{r4, pc}
 1859              	.LVL195:
 1860              	.L145:
 362:.\Generated_Source\PSoC5/USBUART_std.c ****                         {
 1861              		.loc 1 362 0
 1862 02f2 174B     		ldr	r3, .L172
 1863 02f4 1B79     		ldrb	r3, [r3, #4]	@ zero_extendqisi2
 1864 02f6 DBB2     		uxtb	r3, r3
 1865 02f8 012B     		cmp	r3, #1
 1866 02fa 27D8     		bhi	.L164
 364:.\Generated_Source\PSoC5/USBUART_std.c ****                             requestHandled = USBUART_InitNoDataControlTransfer();
 1867              		.loc 1 364 0
 1868 02fc 144B     		ldr	r3, .L172
 1869 02fe 9878     		ldrb	r0, [r3, #2]	@ zero_extendqisi2
 1870 0300 1B79     		ldrb	r3, [r3, #4]	@ zero_extendqisi2
 1871 0302 DBB2     		uxtb	r3, r3
 1872 0304 1349     		ldr	r1, .L172+4
 1873 0306 CA5C     		ldrb	r2, [r1, r3]	@ zero_extendqisi2
 1874 0308 22EA0002 		bic	r2, r2, r0
 1875 030c CA54     		strb	r2, [r1, r3]
 365:.\Generated_Source\PSoC5/USBUART_std.c ****                         }
 1876              		.loc 1 365 0
 1877 030e FFF7FEFF 		bl	USBUART_InitNoDataControlTransfer
 1878              	.LVL196:
 1879 0312 10BD     		pop	{r4, pc}
 1880              	.LVL197:
 1881              	.L148:
  86:.\Generated_Source\PSoC5/USBUART_std.c ****     uint8 interfaceNumber;
 1882              		.loc 1 86 0
 1883 0314 0020     		movs	r0, #0
 1884 0316 10BD     		pop	{r4, pc}
 1885              	.LVL198:
 1886              	.L149:
 1887 0318 0020     		movs	r0, #0
 1888              	.LVL199:
 1889 031a 10BD     		pop	{r4, pc}
 1890              	.LVL200:
 1891              	.L152:
 1892 031c 0020     		movs	r0, #0
 1893 031e 10BD     		pop	{r4, pc}
 1894              	.LVL201:
 1895              	.L166:
 1896 0320 0020     		movs	r0, #0
 1897 0322 10BD     		pop	{r4, pc}
 1898              	.LVL202:
ARM GAS  C:\Users\lenovo\AppData\Local\Temp\ccWMYq61.s 			page 60


 1899              	.L154:
 1900 0324 0020     		movs	r0, #0
 1901 0326 10BD     		pop	{r4, pc}
 1902              	.LVL203:
 1903              	.L155:
 1904 0328 0020     		movs	r0, #0
 1905              	.LVL204:
 1906 032a 10BD     		pop	{r4, pc}
 1907              	.L156:
 1908 032c 0020     		movs	r0, #0
 1909 032e 10BD     		pop	{r4, pc}
 1910              	.L167:
 1911 0330 0020     		movs	r0, #0
 1912 0332 10BD     		pop	{r4, pc}
 1913              	.L158:
 1914 0334 0020     		movs	r0, #0
 1915 0336 10BD     		pop	{r4, pc}
 1916              	.L159:
 1917 0338 0020     		movs	r0, #0
 1918 033a 10BD     		pop	{r4, pc}
 1919              	.L160:
 1920 033c 0020     		movs	r0, #0
 1921 033e 10BD     		pop	{r4, pc}
 1922              	.L168:
 1923 0340 0020     		movs	r0, #0
 1924 0342 10BD     		pop	{r4, pc}
 1925              	.L162:
 1926 0344 0020     		movs	r0, #0
 1927 0346 10BD     		pop	{r4, pc}
 1928              	.L163:
 1929 0348 0020     		movs	r0, #0
 1930 034a 10BD     		pop	{r4, pc}
 1931              	.L164:
 1932 034c 0020     		movs	r0, #0
 1933              	.LVL205:
 380:.\Generated_Source\PSoC5/USBUART_std.c **** 
 1934              		.loc 1 380 0
 1935 034e 10BD     		pop	{r4, pc}
 1936              	.L173:
 1937              		.align	2
 1938              	.L172:
 1939 0350 00600040 		.word	1073766400
 1940 0354 00000000 		.word	USBUART_interfaceStatus
 1941 0358 00000000 		.word	USBUART_deviceStatus
 1942              		.cfi_endproc
 1943              	.LFE0:
 1944              		.size	USBUART_HandleStandardRqst, .-USBUART_HandleStandardRqst
 1945              		.section	.rodata.str1.4,"aMS",%progbits,1
 1946              		.align	2
 1947              	.LC0:
 1948 0000 30313233 		.ascii	"0123456789ABCDEF\000"
 1948      34353637 
 1948      38394142 
 1948      43444546 
 1948      00
 1949 0011 000000   		.bss
 1950              		.align	2
ARM GAS  C:\Users\lenovo\AppData\Local\Temp\ccWMYq61.s 			page 61


 1951              		.set	.LANCHOR0,. + 0
 1952              		.type	USBUART_tBuffer.5129, %object
 1953              		.size	USBUART_tBuffer.5129, 2
 1954              	USBUART_tBuffer.5129:
 1955 0000 0000     		.space	2
 1956 0002 0000     		.text
 1957              	.Letext0:
 1958              		.file 2 ".\\Generated_Source\\PSoC5\\cytypes.h"
 1959              		.file 3 ".\\Generated_Source\\PSoC5\\USBUART.h"
 1960              		.file 4 ".\\Generated_Source\\PSoC5\\USBUART_pvt.h"
 1961              		.file 5 ".\\Generated_Source\\PSoC5\\CyLib.h"
 1962              		.section	.debug_info,"",%progbits
 1963              	.Ldebug_info0:
 1964 0000 410B0000 		.4byte	0xb41
 1965 0004 0400     		.2byte	0x4
 1966 0006 00000000 		.4byte	.Ldebug_abbrev0
 1967 000a 04       		.byte	0x4
 1968 000b 01       		.uleb128 0x1
 1969 000c BB060000 		.4byte	.LASF116
 1970 0010 01       		.byte	0x1
 1971 0011 00030000 		.4byte	.LASF117
 1972 0015 57050000 		.4byte	.LASF118
 1973 0019 00000000 		.4byte	.Ldebug_ranges0+0
 1974 001d 00000000 		.4byte	0
 1975 0021 00000000 		.4byte	.Ldebug_line0
 1976 0025 02       		.uleb128 0x2
 1977 0026 01       		.byte	0x1
 1978 0027 06       		.byte	0x6
 1979 0028 B7000000 		.4byte	.LASF0
 1980 002c 02       		.uleb128 0x2
 1981 002d 01       		.byte	0x1
 1982 002e 08       		.byte	0x8
 1983 002f 49050000 		.4byte	.LASF1
 1984 0033 02       		.uleb128 0x2
 1985 0034 02       		.byte	0x2
 1986 0035 05       		.byte	0x5
 1987 0036 99030000 		.4byte	.LASF2
 1988 003a 02       		.uleb128 0x2
 1989 003b 02       		.byte	0x2
 1990 003c 07       		.byte	0x7
 1991 003d 5C030000 		.4byte	.LASF3
 1992 0041 02       		.uleb128 0x2
 1993 0042 04       		.byte	0x4
 1994 0043 05       		.byte	0x5
 1995 0044 8B010000 		.4byte	.LASF4
 1996 0048 02       		.uleb128 0x2
 1997 0049 04       		.byte	0x4
 1998 004a 07       		.byte	0x7
 1999 004b EE020000 		.4byte	.LASF5
 2000 004f 02       		.uleb128 0x2
 2001 0050 08       		.byte	0x8
 2002 0051 05       		.byte	0x5
 2003 0052 A9000000 		.4byte	.LASF6
 2004 0056 02       		.uleb128 0x2
 2005 0057 08       		.byte	0x8
 2006 0058 07       		.byte	0x7
 2007 0059 43000000 		.4byte	.LASF7
ARM GAS  C:\Users\lenovo\AppData\Local\Temp\ccWMYq61.s 			page 62


 2008 005d 03       		.uleb128 0x3
 2009 005e 04       		.byte	0x4
 2010 005f 05       		.byte	0x5
 2011 0060 696E7400 		.ascii	"int\000"
 2012 0064 02       		.uleb128 0x2
 2013 0065 04       		.byte	0x4
 2014 0066 07       		.byte	0x7
 2015 0067 BF020000 		.4byte	.LASF8
 2016 006b 04       		.uleb128 0x4
 2017 006c C7010000 		.4byte	.LASF9
 2018 0070 02       		.byte	0x2
 2019 0071 9201     		.2byte	0x192
 2020 0073 2C000000 		.4byte	0x2c
 2021 0077 04       		.uleb128 0x4
 2022 0078 13000000 		.4byte	.LASF10
 2023 007c 02       		.byte	0x2
 2024 007d 9301     		.2byte	0x193
 2025 007f 3A000000 		.4byte	0x3a
 2026 0083 04       		.uleb128 0x4
 2027 0084 2F020000 		.4byte	.LASF11
 2028 0088 02       		.byte	0x2
 2029 0089 9401     		.2byte	0x194
 2030 008b 48000000 		.4byte	0x48
 2031 008f 02       		.uleb128 0x2
 2032 0090 04       		.byte	0x4
 2033 0091 04       		.byte	0x4
 2034 0092 EC040000 		.4byte	.LASF12
 2035 0096 02       		.uleb128 0x2
 2036 0097 08       		.byte	0x8
 2037 0098 04       		.byte	0x4
 2038 0099 02020000 		.4byte	.LASF13
 2039 009d 04       		.uleb128 0x4
 2040 009e 61060000 		.4byte	.LASF14
 2041 00a2 02       		.byte	0x2
 2042 00a3 A301     		.2byte	0x1a3
 2043 00a5 A9000000 		.4byte	0xa9
 2044 00a9 02       		.uleb128 0x2
 2045 00aa 01       		.byte	0x1
 2046 00ab 08       		.byte	0x8
 2047 00ac 0B060000 		.4byte	.LASF15
 2048 00b0 04       		.uleb128 0x4
 2049 00b1 25050000 		.4byte	.LASF16
 2050 00b5 02       		.byte	0x2
 2051 00b6 3C02     		.2byte	0x23c
 2052 00b8 BC000000 		.4byte	0xbc
 2053 00bc 05       		.uleb128 0x5
 2054 00bd 6B000000 		.4byte	0x6b
 2055 00c1 02       		.uleb128 0x2
 2056 00c2 04       		.byte	0x4
 2057 00c3 07       		.byte	0x7
 2058 00c4 20040000 		.4byte	.LASF17
 2059 00c8 06       		.uleb128 0x6
 2060 00c9 0C       		.byte	0xc
 2061 00ca 03       		.byte	0x3
 2062 00cb 91       		.byte	0x91
 2063 00cc 3D010000 		.4byte	0x13d
 2064 00d0 07       		.uleb128 0x7
ARM GAS  C:\Users\lenovo\AppData\Local\Temp\ccWMYq61.s 			page 63


 2065 00d1 5E040000 		.4byte	.LASF18
 2066 00d5 03       		.byte	0x3
 2067 00d6 93       		.byte	0x93
 2068 00d7 6B000000 		.4byte	0x6b
 2069 00db 00       		.byte	0
 2070 00dc 07       		.uleb128 0x7
 2071 00dd F2040000 		.4byte	.LASF19
 2072 00e1 03       		.byte	0x3
 2073 00e2 94       		.byte	0x94
 2074 00e3 6B000000 		.4byte	0x6b
 2075 00e7 01       		.byte	0x1
 2076 00e8 07       		.uleb128 0x7
 2077 00e9 FF030000 		.4byte	.LASF20
 2078 00ed 03       		.byte	0x3
 2079 00ee 95       		.byte	0x95
 2080 00ef 6B000000 		.4byte	0x6b
 2081 00f3 02       		.byte	0x2
 2082 00f4 07       		.uleb128 0x7
 2083 00f5 CD010000 		.4byte	.LASF21
 2084 00f9 03       		.byte	0x3
 2085 00fa 96       		.byte	0x96
 2086 00fb 6B000000 		.4byte	0x6b
 2087 00ff 03       		.byte	0x3
 2088 0100 07       		.uleb128 0x7
 2089 0101 5A000000 		.4byte	.LASF22
 2090 0105 03       		.byte	0x3
 2091 0106 97       		.byte	0x97
 2092 0107 6B000000 		.4byte	0x6b
 2093 010b 04       		.byte	0x4
 2094 010c 07       		.uleb128 0x7
 2095 010d 56020000 		.4byte	.LASF23
 2096 0111 03       		.byte	0x3
 2097 0112 98       		.byte	0x98
 2098 0113 6B000000 		.4byte	0x6b
 2099 0117 05       		.byte	0x5
 2100 0118 07       		.uleb128 0x7
 2101 0119 56060000 		.4byte	.LASF24
 2102 011d 03       		.byte	0x3
 2103 011e 99       		.byte	0x99
 2104 011f 77000000 		.4byte	0x77
 2105 0123 06       		.byte	0x6
 2106 0124 07       		.uleb128 0x7
 2107 0125 10060000 		.4byte	.LASF25
 2108 0129 03       		.byte	0x3
 2109 012a 9A       		.byte	0x9a
 2110 012b 77000000 		.4byte	0x77
 2111 012f 08       		.byte	0x8
 2112 0130 07       		.uleb128 0x7
 2113 0131 A3030000 		.4byte	.LASF26
 2114 0135 03       		.byte	0x3
 2115 0136 9B       		.byte	0x9b
 2116 0137 6B000000 		.4byte	0x6b
 2117 013b 0A       		.byte	0xa
 2118 013c 00       		.byte	0
 2119 013d 08       		.uleb128 0x8
 2120 013e 3F060000 		.4byte	.LASF27
 2121 0142 03       		.byte	0x3
ARM GAS  C:\Users\lenovo\AppData\Local\Temp\ccWMYq61.s 			page 64


 2122 0143 9C       		.byte	0x9c
 2123 0144 C8000000 		.4byte	0xc8
 2124 0148 06       		.uleb128 0x6
 2125 0149 08       		.byte	0x8
 2126 014a 03       		.byte	0x3
 2127 014b 9E       		.byte	0x9e
 2128 014c 99010000 		.4byte	0x199
 2129 0150 07       		.uleb128 0x7
 2130 0151 A3030000 		.4byte	.LASF26
 2131 0155 03       		.byte	0x3
 2132 0156 A0       		.byte	0xa0
 2133 0157 6B000000 		.4byte	0x6b
 2134 015b 00       		.byte	0
 2135 015c 07       		.uleb128 0x7
 2136 015d 00060000 		.4byte	.LASF28
 2137 0161 03       		.byte	0x3
 2138 0162 A1       		.byte	0xa1
 2139 0163 6B000000 		.4byte	0x6b
 2140 0167 01       		.byte	0x1
 2141 0168 07       		.uleb128 0x7
 2142 0169 5A000000 		.4byte	.LASF22
 2143 016d 03       		.byte	0x3
 2144 016e A2       		.byte	0xa2
 2145 016f 6B000000 		.4byte	0x6b
 2146 0173 02       		.byte	0x2
 2147 0174 07       		.uleb128 0x7
 2148 0175 DB050000 		.4byte	.LASF29
 2149 0179 03       		.byte	0x3
 2150 017a A3       		.byte	0xa3
 2151 017b 6B000000 		.4byte	0x6b
 2152 017f 03       		.byte	0x3
 2153 0180 07       		.uleb128 0x7
 2154 0181 10060000 		.4byte	.LASF25
 2155 0185 03       		.byte	0x3
 2156 0186 A4       		.byte	0xa4
 2157 0187 77000000 		.4byte	0x77
 2158 018b 04       		.byte	0x4
 2159 018c 07       		.uleb128 0x7
 2160 018d 7C070000 		.4byte	.LASF30
 2161 0191 03       		.byte	0x3
 2162 0192 A5       		.byte	0xa5
 2163 0193 6B000000 		.4byte	0x6b
 2164 0197 06       		.byte	0x6
 2165 0198 00       		.byte	0
 2166 0199 08       		.uleb128 0x8
 2167 019a 67060000 		.4byte	.LASF31
 2168 019e 03       		.byte	0x3
 2169 019f A6       		.byte	0xa6
 2170 01a0 48010000 		.4byte	0x148
 2171 01a4 06       		.uleb128 0x6
 2172 01a5 04       		.byte	0x4
 2173 01a6 03       		.byte	0x3
 2174 01a7 A8       		.byte	0xa8
 2175 01a8 C5010000 		.4byte	0x1c5
 2176 01ac 07       		.uleb128 0x7
 2177 01ad B4060000 		.4byte	.LASF32
 2178 01b1 03       		.byte	0x3
ARM GAS  C:\Users\lenovo\AppData\Local\Temp\ccWMYq61.s 			page 65


 2179 01b2 AA       		.byte	0xaa
 2180 01b3 6B000000 		.4byte	0x6b
 2181 01b7 00       		.byte	0
 2182 01b8 07       		.uleb128 0x7
 2183 01b9 9C060000 		.4byte	.LASF33
 2184 01bd 03       		.byte	0x3
 2185 01be AB       		.byte	0xab
 2186 01bf 77000000 		.4byte	0x77
 2187 01c3 02       		.byte	0x2
 2188 01c4 00       		.byte	0
 2189 01c5 08       		.uleb128 0x8
 2190 01c6 6B000000 		.4byte	.LASF34
 2191 01ca 03       		.byte	0x3
 2192 01cb AC       		.byte	0xac
 2193 01cc A4010000 		.4byte	0x1a4
 2194 01d0 06       		.uleb128 0x6
 2195 01d1 0C       		.byte	0xc
 2196 01d2 03       		.byte	0x3
 2197 01d3 AE       		.byte	0xae
 2198 01d4 FD010000 		.4byte	0x1fd
 2199 01d8 07       		.uleb128 0x7
 2200 01d9 0D000000 		.4byte	.LASF35
 2201 01dd 03       		.byte	0x3
 2202 01de B0       		.byte	0xb0
 2203 01df 77000000 		.4byte	0x77
 2204 01e3 00       		.byte	0
 2205 01e4 07       		.uleb128 0x7
 2206 01e5 50020000 		.4byte	.LASF36
 2207 01e9 03       		.byte	0x3
 2208 01ea B1       		.byte	0xb1
 2209 01eb FD010000 		.4byte	0x1fd
 2210 01ef 04       		.byte	0x4
 2211 01f0 07       		.uleb128 0x7
 2212 01f1 00000000 		.4byte	.LASF37
 2213 01f5 03       		.byte	0x3
 2214 01f6 B2       		.byte	0xb2
 2215 01f7 03020000 		.4byte	0x203
 2216 01fb 08       		.byte	0x8
 2217 01fc 00       		.byte	0
 2218 01fd 09       		.uleb128 0x9
 2219 01fe 04       		.byte	0x4
 2220 01ff BC000000 		.4byte	0xbc
 2221 0203 09       		.uleb128 0x9
 2222 0204 04       		.byte	0x4
 2223 0205 C5010000 		.4byte	0x1c5
 2224 0209 08       		.uleb128 0x8
 2225 020a A0050000 		.4byte	.LASF38
 2226 020e 03       		.byte	0x3
 2227 020f B3       		.byte	0xb3
 2228 0210 D0010000 		.4byte	0x1d0
 2229 0214 06       		.uleb128 0x6
 2230 0215 08       		.byte	0x8
 2231 0216 03       		.byte	0x3
 2232 0217 B5       		.byte	0xb5
 2233 0218 33020000 		.4byte	0x233
 2234 021c 0A       		.uleb128 0xa
 2235 021d 6300     		.ascii	"c\000"
ARM GAS  C:\Users\lenovo\AppData\Local\Temp\ccWMYq61.s 			page 66


 2236 021f 03       		.byte	0x3
 2237 0220 B7       		.byte	0xb7
 2238 0221 6B000000 		.4byte	0x6b
 2239 0225 00       		.byte	0
 2240 0226 07       		.uleb128 0x7
 2241 0227 4D040000 		.4byte	.LASF39
 2242 022b 03       		.byte	0x3
 2243 022c B8       		.byte	0xb8
 2244 022d 33020000 		.4byte	0x233
 2245 0231 04       		.byte	0x4
 2246 0232 00       		.byte	0
 2247 0233 09       		.uleb128 0x9
 2248 0234 04       		.byte	0x4
 2249 0235 39020000 		.4byte	0x239
 2250 0239 0B       		.uleb128 0xb
 2251 023a 08       		.uleb128 0x8
 2252 023b BF030000 		.4byte	.LASF40
 2253 023f 03       		.byte	0x3
 2254 0240 B9       		.byte	0xb9
 2255 0241 14020000 		.4byte	0x214
 2256 0245 06       		.uleb128 0x6
 2257 0246 08       		.byte	0x8
 2258 0247 03       		.byte	0x3
 2259 0248 C9       		.byte	0xc9
 2260 0249 5A020000 		.4byte	0x25a
 2261 024d 07       		.uleb128 0x7
 2262 024e 75070000 		.4byte	.LASF41
 2263 0252 03       		.byte	0x3
 2264 0253 CB       		.byte	0xcb
 2265 0254 5A020000 		.4byte	0x25a
 2266 0258 00       		.byte	0
 2267 0259 00       		.byte	0
 2268 025a 0C       		.uleb128 0xc
 2269 025b 6B000000 		.4byte	0x6b
 2270 025f 6A020000 		.4byte	0x26a
 2271 0263 0D       		.uleb128 0xd
 2272 0264 C1000000 		.4byte	0xc1
 2273 0268 07       		.byte	0x7
 2274 0269 00       		.byte	0
 2275 026a 08       		.uleb128 0x8
 2276 026b 73010000 		.4byte	.LASF42
 2277 026f 03       		.byte	0x3
 2278 0270 CC       		.byte	0xcc
 2279 0271 45020000 		.4byte	0x245
 2280 0275 06       		.uleb128 0x6
 2281 0276 10       		.byte	0x10
 2282 0277 03       		.byte	0x3
 2283 0278 D8       		.byte	0xd8
 2284 0279 AE020000 		.4byte	0x2ae
 2285 027d 07       		.uleb128 0x7
 2286 027e B0040000 		.4byte	.LASF43
 2287 0282 03       		.byte	0x3
 2288 0283 DA       		.byte	0xda
 2289 0284 6B000000 		.4byte	0x6b
 2290 0288 00       		.byte	0
 2291 0289 07       		.uleb128 0x7
 2292 028a B7040000 		.4byte	.LASF44
ARM GAS  C:\Users\lenovo\AppData\Local\Temp\ccWMYq61.s 			page 67


 2293 028e 03       		.byte	0x3
 2294 028f DB       		.byte	0xdb
 2295 0290 6B000000 		.4byte	0x6b
 2296 0294 01       		.byte	0x1
 2297 0295 07       		.uleb128 0x7
 2298 0296 D9040000 		.4byte	.LASF45
 2299 029a 03       		.byte	0x3
 2300 029b DC       		.byte	0xdc
 2301 029c 6B000000 		.4byte	0x6b
 2302 02a0 02       		.byte	0x2
 2303 02a1 0A       		.uleb128 0xa
 2304 02a2 67617000 		.ascii	"gap\000"
 2305 02a6 03       		.byte	0x3
 2306 02a7 DD       		.byte	0xdd
 2307 02a8 AE020000 		.4byte	0x2ae
 2308 02ac 03       		.byte	0x3
 2309 02ad 00       		.byte	0
 2310 02ae 0C       		.uleb128 0xc
 2311 02af 6B000000 		.4byte	0x6b
 2312 02b3 BE020000 		.4byte	0x2be
 2313 02b7 0D       		.uleb128 0xd
 2314 02b8 C1000000 		.4byte	0xc1
 2315 02bc 0C       		.byte	0xc
 2316 02bd 00       		.byte	0
 2317 02be 08       		.uleb128 0x8
 2318 02bf C5050000 		.4byte	.LASF46
 2319 02c3 03       		.byte	0x3
 2320 02c4 DE       		.byte	0xde
 2321 02c5 75020000 		.4byte	0x275
 2322 02c9 06       		.uleb128 0x6
 2323 02ca 10       		.byte	0x10
 2324 02cb 03       		.byte	0x3
 2325 02cc EA       		.byte	0xea
 2326 02cd 4A030000 		.4byte	0x34a
 2327 02d1 07       		.uleb128 0x7
 2328 02d2 5F000000 		.4byte	.LASF47
 2329 02d6 03       		.byte	0x3
 2330 02d7 EC       		.byte	0xec
 2331 02d8 6B000000 		.4byte	0x6b
 2332 02dc 00       		.byte	0
 2333 02dd 07       		.uleb128 0x7
 2334 02de 9A070000 		.4byte	.LASF48
 2335 02e2 03       		.byte	0x3
 2336 02e3 ED       		.byte	0xed
 2337 02e4 6B000000 		.4byte	0x6b
 2338 02e8 01       		.byte	0x1
 2339 02e9 07       		.uleb128 0x7
 2340 02ea 12020000 		.4byte	.LASF49
 2341 02ee 03       		.byte	0x3
 2342 02ef EE       		.byte	0xee
 2343 02f0 6B000000 		.4byte	0x6b
 2344 02f4 02       		.byte	0x2
 2345 02f5 07       		.uleb128 0x7
 2346 02f6 72020000 		.4byte	.LASF50
 2347 02fa 03       		.byte	0x3
 2348 02fb EF       		.byte	0xef
 2349 02fc 6B000000 		.4byte	0x6b
ARM GAS  C:\Users\lenovo\AppData\Local\Temp\ccWMYq61.s 			page 68


 2350 0300 03       		.byte	0x3
 2351 0301 07       		.uleb128 0x7
 2352 0302 D6010000 		.4byte	.LASF51
 2353 0306 03       		.byte	0x3
 2354 0307 F0       		.byte	0xf0
 2355 0308 6B000000 		.4byte	0x6b
 2356 030c 04       		.byte	0x4
 2357 030d 07       		.uleb128 0x7
 2358 030e 98050000 		.4byte	.LASF52
 2359 0312 03       		.byte	0x3
 2360 0313 F1       		.byte	0xf1
 2361 0314 6B000000 		.4byte	0x6b
 2362 0318 05       		.byte	0x5
 2363 0319 07       		.uleb128 0x7
 2364 031a 93050000 		.4byte	.LASF53
 2365 031e 03       		.byte	0x3
 2366 031f F2       		.byte	0xf2
 2367 0320 6B000000 		.4byte	0x6b
 2368 0324 06       		.byte	0x6
 2369 0325 07       		.uleb128 0x7
 2370 0326 A8040000 		.4byte	.LASF54
 2371 032a 03       		.byte	0x3
 2372 032b F3       		.byte	0xf3
 2373 032c 6B000000 		.4byte	0x6b
 2374 0330 07       		.byte	0x7
 2375 0331 07       		.uleb128 0x7
 2376 0332 49070000 		.4byte	.LASF55
 2377 0336 03       		.byte	0x3
 2378 0337 F4       		.byte	0xf4
 2379 0338 6B000000 		.4byte	0x6b
 2380 033c 08       		.byte	0x8
 2381 033d 0A       		.uleb128 0xa
 2382 033e 67617000 		.ascii	"gap\000"
 2383 0342 03       		.byte	0x3
 2384 0343 F5       		.byte	0xf5
 2385 0344 4A030000 		.4byte	0x34a
 2386 0348 09       		.byte	0x9
 2387 0349 00       		.byte	0
 2388 034a 0C       		.uleb128 0xc
 2389 034b 6B000000 		.4byte	0x6b
 2390 034f 5A030000 		.4byte	0x35a
 2391 0353 0D       		.uleb128 0xd
 2392 0354 C1000000 		.4byte	0xc1
 2393 0358 06       		.byte	0x6
 2394 0359 00       		.byte	0
 2395 035a 08       		.uleb128 0x8
 2396 035b E9030000 		.4byte	.LASF56
 2397 035f 03       		.byte	0x3
 2398 0360 F6       		.byte	0xf6
 2399 0361 C9020000 		.4byte	0x2c9
 2400 0365 0E       		.uleb128 0xe
 2401 0366 90       		.byte	0x90
 2402 0367 03       		.byte	0x3
 2403 0368 1201     		.2byte	0x112
 2404 036a 7C030000 		.4byte	0x37c
 2405 036e 0F       		.uleb128 0xf
 2406 036f 29040000 		.4byte	.LASF57
ARM GAS  C:\Users\lenovo\AppData\Local\Temp\ccWMYq61.s 			page 69


 2407 0373 03       		.byte	0x3
 2408 0374 1401     		.2byte	0x114
 2409 0376 7C030000 		.4byte	0x37c
 2410 037a 00       		.byte	0
 2411 037b 00       		.byte	0
 2412 037c 0C       		.uleb128 0xc
 2413 037d BE020000 		.4byte	0x2be
 2414 0381 8C030000 		.4byte	0x38c
 2415 0385 0D       		.uleb128 0xd
 2416 0386 C1000000 		.4byte	0xc1
 2417 038a 08       		.byte	0x8
 2418 038b 00       		.byte	0
 2419 038c 04       		.uleb128 0x4
 2420 038d 44010000 		.4byte	.LASF58
 2421 0391 03       		.byte	0x3
 2422 0392 1501     		.2byte	0x115
 2423 0394 65030000 		.4byte	0x365
 2424 0398 0E       		.uleb128 0xe
 2425 0399 90       		.byte	0x90
 2426 039a 03       		.byte	0x3
 2427 039b 1801     		.2byte	0x118
 2428 039d AF030000 		.4byte	0x3af
 2429 03a1 0F       		.uleb128 0xf
 2430 03a2 65000000 		.4byte	.LASF59
 2431 03a6 03       		.byte	0x3
 2432 03a7 1A01     		.2byte	0x11a
 2433 03a9 AF030000 		.4byte	0x3af
 2434 03ad 00       		.byte	0
 2435 03ae 00       		.byte	0
 2436 03af 0C       		.uleb128 0xc
 2437 03b0 5A030000 		.4byte	0x35a
 2438 03b4 BF030000 		.4byte	0x3bf
 2439 03b8 0D       		.uleb128 0xd
 2440 03b9 C1000000 		.4byte	0xc1
 2441 03bd 08       		.byte	0x8
 2442 03be 00       		.byte	0
 2443 03bf 04       		.uleb128 0x4
 2444 03c0 09040000 		.4byte	.LASF60
 2445 03c4 03       		.byte	0x3
 2446 03c5 1B01     		.2byte	0x11b
 2447 03c7 98030000 		.4byte	0x398
 2448 03cb 10       		.uleb128 0x10
 2449 03cc B5010000 		.4byte	.LASF62
 2450 03d0 01       		.byte	0x1
 2451 03d1 8E01     		.2byte	0x18e
 2452 03d3 00000000 		.4byte	.LFB1
 2453 03d7 6C000000 		.4byte	.LFE1-.LFB1
 2454 03db 01       		.uleb128 0x1
 2455 03dc 9C       		.byte	0x9c
 2456 03dd 3C040000 		.4byte	0x43c
 2457 03e1 11       		.uleb128 0x11
 2458 03e2 43050000 		.4byte	.LASF65
 2459 03e6 01       		.byte	0x1
 2460 03e7 8E01     		.2byte	0x18e
 2461 03e9 3C040000 		.4byte	0x43c
 2462 03ed 00000000 		.4byte	.LLST0
 2463 03f1 12       		.uleb128 0x12
ARM GAS  C:\Users\lenovo\AppData\Local\Temp\ccWMYq61.s 			page 70


 2464 03f2 68657800 		.ascii	"hex\000"
 2465 03f6 01       		.byte	0x1
 2466 03f7 9001     		.2byte	0x190
 2467 03f9 52040000 		.4byte	0x452
 2468 03fd 02       		.uleb128 0x2
 2469 03fe 91       		.byte	0x91
 2470 03ff 5C       		.sleb128 -36
 2471 0400 13       		.uleb128 0x13
 2472 0401 6900     		.ascii	"i\000"
 2473 0403 01       		.byte	0x1
 2474 0404 9101     		.2byte	0x191
 2475 0406 6B000000 		.4byte	0x6b
 2476 040a 2C000000 		.4byte	.LLST1
 2477 040e 13       		.uleb128 0x13
 2478 040f 6A00     		.ascii	"j\000"
 2479 0411 01       		.byte	0x1
 2480 0412 9201     		.2byte	0x192
 2481 0414 6B000000 		.4byte	0x6b
 2482 0418 56000000 		.4byte	.LLST2
 2483 041c 14       		.uleb128 0x14
 2484 041d 83060000 		.4byte	.LASF61
 2485 0421 01       		.byte	0x1
 2486 0422 9301     		.2byte	0x193
 2487 0424 5A020000 		.4byte	0x25a
 2488 0428 02       		.uleb128 0x2
 2489 0429 91       		.byte	0x91
 2490 042a 54       		.sleb128 -44
 2491 042b 15       		.uleb128 0x15
 2492 042c 22000000 		.4byte	.LVL3
 2493 0430 EB0A0000 		.4byte	0xaeb
 2494 0434 16       		.uleb128 0x16
 2495 0435 01       		.uleb128 0x1
 2496 0436 50       		.byte	0x50
 2497 0437 02       		.uleb128 0x2
 2498 0438 91       		.byte	0x91
 2499 0439 54       		.sleb128 -44
 2500 043a 00       		.byte	0
 2501 043b 00       		.byte	0
 2502 043c 09       		.uleb128 0x9
 2503 043d 04       		.byte	0x4
 2504 043e 6B000000 		.4byte	0x6b
 2505 0442 0C       		.uleb128 0xc
 2506 0443 9D000000 		.4byte	0x9d
 2507 0447 52040000 		.4byte	0x452
 2508 044b 0D       		.uleb128 0xd
 2509 044c C1000000 		.4byte	0xc1
 2510 0450 10       		.byte	0x10
 2511 0451 00       		.byte	0
 2512 0452 17       		.uleb128 0x17
 2513 0453 42040000 		.4byte	0x442
 2514 0457 10       		.uleb128 0x10
 2515 0458 AD030000 		.4byte	.LASF63
 2516 045c 01       		.byte	0x1
 2517 045d B501     		.2byte	0x1b5
 2518 045f 00000000 		.4byte	.LFB2
 2519 0463 A4000000 		.4byte	.LFE2-.LFB2
 2520 0467 01       		.uleb128 0x1
ARM GAS  C:\Users\lenovo\AppData\Local\Temp\ccWMYq61.s 			page 71


 2521 0468 9C       		.byte	0x9c
 2522 0469 7D040000 		.4byte	0x47d
 2523 046d 13       		.uleb128 0x13
 2524 046e 657000   		.ascii	"ep\000"
 2525 0471 01       		.byte	0x1
 2526 0472 B701     		.2byte	0x1b7
 2527 0474 6B000000 		.4byte	0x6b
 2528 0478 80000000 		.4byte	.LLST3
 2529 047c 00       		.byte	0
 2530 047d 10       		.uleb128 0x10
 2531 047e 13010000 		.4byte	.LASF64
 2532 0482 01       		.byte	0x1
 2533 0483 1402     		.2byte	0x214
 2534 0485 00000000 		.4byte	.LFB3
 2535 0489 40000000 		.4byte	.LFE3-.LFB3
 2536 048d 01       		.uleb128 0x1
 2537 048e 9C       		.byte	0x9c
 2538 048f A2040000 		.4byte	0x4a2
 2539 0493 13       		.uleb128 0x13
 2540 0494 6900     		.ascii	"i\000"
 2541 0496 01       		.byte	0x1
 2542 0497 1602     		.2byte	0x216
 2543 0499 6B000000 		.4byte	0x6b
 2544 049d AA000000 		.4byte	.LLST4
 2545 04a1 00       		.byte	0
 2546 04a2 18       		.uleb128 0x18
 2547 04a3 36020000 		.4byte	.LASF72
 2548 04a7 01       		.byte	0x1
 2549 04a8 AE03     		.2byte	0x3ae
 2550 04aa DD040000 		.4byte	0x4dd
 2551 04ae 00000000 		.4byte	.LFB6
 2552 04b2 28000000 		.4byte	.LFE6-.LFB6
 2553 04b6 01       		.uleb128 0x1
 2554 04b7 9C       		.byte	0x9c
 2555 04b8 DD040000 		.4byte	0x4dd
 2556 04bc 11       		.uleb128 0x11
 2557 04bd 39000000 		.4byte	.LASF66
 2558 04c1 01       		.byte	0x1
 2559 04c2 AE03     		.2byte	0x3ae
 2560 04c4 6B000000 		.4byte	0x6b
 2561 04c8 D4000000 		.4byte	.LLST5
 2562 04cc 19       		.uleb128 0x19
 2563 04cd 48040000 		.4byte	.LASF67
 2564 04d1 01       		.byte	0x1
 2565 04d2 B203     		.2byte	0x3b2
 2566 04d4 DD040000 		.4byte	0x4dd
 2567 04d8 0E010000 		.4byte	.LLST6
 2568 04dc 00       		.byte	0
 2569 04dd 09       		.uleb128 0x9
 2570 04de 04       		.byte	0x4
 2571 04df E3040000 		.4byte	0x4e3
 2572 04e3 17       		.uleb128 0x17
 2573 04e4 3A020000 		.4byte	0x23a
 2574 04e8 10       		.uleb128 0x10
 2575 04e9 2F040000 		.4byte	.LASF68
 2576 04ed 01       		.byte	0x1
 2577 04ee 2503     		.2byte	0x325
ARM GAS  C:\Users\lenovo\AppData\Local\Temp\ccWMYq61.s 			page 72


 2578 04f0 00000000 		.4byte	.LFB5
 2579 04f4 1C010000 		.4byte	.LFE5-.LFB5
 2580 04f8 01       		.uleb128 0x1
 2581 04f9 9C       		.byte	0x9c
 2582 04fa 75050000 		.4byte	0x575
 2583 04fe 13       		.uleb128 0x13
 2584 04ff 657000   		.ascii	"ep\000"
 2585 0502 01       		.byte	0x1
 2586 0503 2703     		.2byte	0x327
 2587 0505 6B000000 		.4byte	0x6b
 2588 0509 46010000 		.4byte	.LLST7
 2589 050d 19       		.uleb128 0x19
 2590 050e E3030000 		.4byte	.LASF69
 2591 0512 01       		.byte	0x1
 2592 0513 2803     		.2byte	0x328
 2593 0515 6B000000 		.4byte	0x6b
 2594 0519 59010000 		.4byte	.LLST8
 2595 051d 19       		.uleb128 0x19
 2596 051e 5D020000 		.4byte	.LASF70
 2597 0522 01       		.byte	0x1
 2598 0523 2903     		.2byte	0x329
 2599 0525 6B000000 		.4byte	0x6b
 2600 0529 6C010000 		.4byte	.LLST9
 2601 052d 13       		.uleb128 0x13
 2602 052e 6900     		.ascii	"i\000"
 2603 0530 01       		.byte	0x1
 2604 0531 2A03     		.2byte	0x32a
 2605 0533 6B000000 		.4byte	0x6b
 2606 0537 8A010000 		.4byte	.LLST10
 2607 053b 19       		.uleb128 0x19
 2608 053c DF040000 		.4byte	.LASF71
 2609 0540 01       		.byte	0x1
 2610 0541 2B03     		.2byte	0x32b
 2611 0543 6B000000 		.4byte	0x6b
 2612 0547 B4010000 		.4byte	.LLST11
 2613 054b 19       		.uleb128 0x19
 2614 054c 48040000 		.4byte	.LASF67
 2615 0550 01       		.byte	0x1
 2616 0551 2D03     		.2byte	0x32d
 2617 0553 DD040000 		.4byte	0x4dd
 2618 0557 C7010000 		.4byte	.LLST12
 2619 055b 13       		.uleb128 0x13
 2620 055c 70455000 		.ascii	"pEP\000"
 2621 0560 01       		.byte	0x1
 2622 0561 2E03     		.2byte	0x32e
 2623 0563 75050000 		.4byte	0x575
 2624 0567 DC010000 		.4byte	.LLST13
 2625 056b 1A       		.uleb128 0x1a
 2626 056c 18000000 		.4byte	.LVL26
 2627 0570 A2040000 		.4byte	0x4a2
 2628 0574 00       		.byte	0
 2629 0575 09       		.uleb128 0x9
 2630 0576 04       		.byte	0x4
 2631 0577 7B050000 		.4byte	0x57b
 2632 057b 17       		.uleb128 0x17
 2633 057c 99010000 		.4byte	0x199
 2634 0580 1B       		.uleb128 0x1b
ARM GAS  C:\Users\lenovo\AppData\Local\Temp\ccWMYq61.s 			page 73


 2635 0581 42030000 		.4byte	.LASF119
 2636 0585 01       		.byte	0x1
 2637 0586 F303     		.2byte	0x3f3
 2638 0588 DD040000 		.4byte	0x4dd
 2639 058c 00000000 		.4byte	.LFB7
 2640 0590 18000000 		.4byte	.LFE7-.LFB7
 2641 0594 01       		.uleb128 0x1
 2642 0595 9C       		.byte	0x9c
 2643 0596 18       		.uleb128 0x18
 2644 0597 CC020000 		.4byte	.LASF73
 2645 059b 01       		.byte	0x1
 2646 059c 0604     		.2byte	0x406
 2647 059e EA050000 		.4byte	0x5ea
 2648 05a2 00000000 		.4byte	.LFB8
 2649 05a6 24000000 		.4byte	.LFE8-.LFB8
 2650 05aa 01       		.uleb128 0x1
 2651 05ab 9C       		.byte	0x9c
 2652 05ac EA050000 		.4byte	0x5ea
 2653 05b0 19       		.uleb128 0x19
 2654 05b1 48040000 		.4byte	.LASF67
 2655 05b5 01       		.byte	0x1
 2656 05b6 0904     		.2byte	0x409
 2657 05b8 DD040000 		.4byte	0x4dd
 2658 05bc EF010000 		.4byte	.LLST14
 2659 05c0 19       		.uleb128 0x19
 2660 05c1 89030000 		.4byte	.LASF74
 2661 05c5 01       		.byte	0x1
 2662 05c6 0A04     		.2byte	0x40a
 2663 05c8 EA050000 		.4byte	0x5ea
 2664 05cc 1F020000 		.4byte	.LLST15
 2665 05d0 19       		.uleb128 0x19
 2666 05d1 2A060000 		.4byte	.LASF75
 2667 05d5 01       		.byte	0x1
 2668 05d6 0B04     		.2byte	0x40b
 2669 05d8 6B000000 		.4byte	0x6b
 2670 05dc 3D020000 		.4byte	.LLST16
 2671 05e0 1A       		.uleb128 0x1a
 2672 05e1 0E000000 		.4byte	.LVL42
 2673 05e5 A2040000 		.4byte	0x4a2
 2674 05e9 00       		.byte	0
 2675 05ea 09       		.uleb128 0x9
 2676 05eb 04       		.byte	0x4
 2677 05ec F0050000 		.4byte	0x5f0
 2678 05f0 17       		.uleb128 0x17
 2679 05f1 6B000000 		.4byte	0x6b
 2680 05f5 10       		.uleb128 0x10
 2681 05f6 F9000000 		.4byte	.LASF76
 2682 05fa 01       		.byte	0x1
 2683 05fb 3A02     		.2byte	0x23a
 2684 05fd 00000000 		.4byte	.LFB4
 2685 0601 E4010000 		.4byte	.LFE4-.LFB4
 2686 0605 01       		.uleb128 0x1
 2687 0606 9C       		.byte	0x9c
 2688 0607 EE060000 		.4byte	0x6ee
 2689 060b 11       		.uleb128 0x11
 2690 060c D1000000 		.4byte	.LASF77
 2691 0610 01       		.byte	0x1
ARM GAS  C:\Users\lenovo\AppData\Local\Temp\ccWMYq61.s 			page 74


 2692 0611 3A02     		.2byte	0x23a
 2693 0613 6B000000 		.4byte	0x6b
 2694 0617 50020000 		.4byte	.LLST17
 2695 061b 13       		.uleb128 0x13
 2696 061c 657000   		.ascii	"ep\000"
 2697 061f 01       		.byte	0x1
 2698 0620 3C02     		.2byte	0x23c
 2699 0622 6B000000 		.4byte	0x6b
 2700 0626 71020000 		.4byte	.LLST18
 2701 062a 19       		.uleb128 0x19
 2702 062b E3030000 		.4byte	.LASF69
 2703 062f 01       		.byte	0x1
 2704 0630 3D02     		.2byte	0x23d
 2705 0632 6B000000 		.4byte	0x6b
 2706 0636 D3020000 		.4byte	.LLST19
 2707 063a 13       		.uleb128 0x13
 2708 063b 6900     		.ascii	"i\000"
 2709 063d 01       		.byte	0x1
 2710 063e 3E02     		.2byte	0x23e
 2711 0640 6B000000 		.4byte	0x6b
 2712 0644 FD020000 		.4byte	.LLST20
 2713 0648 19       		.uleb128 0x19
 2714 0649 5D020000 		.4byte	.LASF70
 2715 064d 01       		.byte	0x1
 2716 064e 3F02     		.2byte	0x23f
 2717 0650 6B000000 		.4byte	0x6b
 2718 0654 6A030000 		.4byte	.LLST21
 2719 0658 19       		.uleb128 0x19
 2720 0659 82030000 		.4byte	.LASF78
 2721 065d 01       		.byte	0x1
 2722 065e 4002     		.2byte	0x240
 2723 0660 EA050000 		.4byte	0x5ea
 2724 0664 AA030000 		.4byte	.LLST22
 2725 0668 19       		.uleb128 0x19
 2726 0669 54040000 		.4byte	.LASF79
 2727 066d 01       		.byte	0x1
 2728 066e 4302     		.2byte	0x243
 2729 0670 77000000 		.4byte	0x77
 2730 0674 C9030000 		.4byte	.LLST23
 2731 0678 19       		.uleb128 0x19
 2732 0679 48040000 		.4byte	.LASF67
 2733 067d 01       		.byte	0x1
 2734 067e 4602     		.2byte	0x246
 2735 0680 DD040000 		.4byte	0x4dd
 2736 0684 0A040000 		.4byte	.LLST24
 2737 0688 13       		.uleb128 0x13
 2738 0689 70455000 		.ascii	"pEP\000"
 2739 068d 01       		.byte	0x1
 2740 068e 4702     		.2byte	0x247
 2741 0690 75050000 		.4byte	0x575
 2742 0694 37040000 		.4byte	.LLST25
 2743 0698 1C       		.uleb128 0x1c
 2744 0699 50000000 		.4byte	.LBB2
 2745 069d 94010000 		.4byte	.LBE2-.LBB2
 2746 06a1 19       		.uleb128 0x19
 2747 06a2 94010000 		.4byte	.LASF80
 2748 06a6 01       		.byte	0x1
ARM GAS  C:\Users\lenovo\AppData\Local\Temp\ccWMYq61.s 			page 75


 2749 06a7 6302     		.2byte	0x263
 2750 06a9 6B000000 		.4byte	0x6b
 2751 06ad 6D040000 		.4byte	.LLST26
 2752 06b1 1A       		.uleb128 0x1a
 2753 06b2 5C000000 		.4byte	.LVL61
 2754 06b6 A2040000 		.4byte	0x4a2
 2755 06ba 1D       		.uleb128 0x1d
 2756 06bb 54010000 		.4byte	.LVL76
 2757 06bf 020B0000 		.4byte	0xb02
 2758 06c3 DA060000 		.4byte	0x6da
 2759 06c7 16       		.uleb128 0x16
 2760 06c8 01       		.uleb128 0x1
 2761 06c9 52       		.byte	0x52
 2762 06ca 02       		.uleb128 0x2
 2763 06cb 79       		.byte	0x79
 2764 06cc 00       		.sleb128 0
 2765 06cd 16       		.uleb128 0x16
 2766 06ce 01       		.uleb128 0x1
 2767 06cf 51       		.byte	0x51
 2768 06d0 02       		.uleb128 0x2
 2769 06d1 76       		.byte	0x76
 2770 06d2 00       		.sleb128 0
 2771 06d3 16       		.uleb128 0x16
 2772 06d4 01       		.uleb128 0x1
 2773 06d5 50       		.byte	0x50
 2774 06d6 02       		.uleb128 0x2
 2775 06d7 75       		.byte	0x75
 2776 06d8 00       		.sleb128 0
 2777 06d9 00       		.byte	0
 2778 06da 1A       		.uleb128 0x1a
 2779 06db 92010000 		.4byte	.LVL89
 2780 06df 96050000 		.4byte	0x596
 2781 06e3 1A       		.uleb128 0x1a
 2782 06e4 C2010000 		.4byte	.LVL98
 2783 06e8 57040000 		.4byte	0x457
 2784 06ec 00       		.byte	0
 2785 06ed 00       		.byte	0
 2786 06ee 10       		.uleb128 0x10
 2787 06ef FD040000 		.4byte	.LASF81
 2788 06f3 01       		.byte	0x1
 2789 06f4 3004     		.2byte	0x430
 2790 06f6 00000000 		.4byte	.LFB9
 2791 06fa 4C000000 		.4byte	.LFE9-.LFB9
 2792 06fe 01       		.uleb128 0x1
 2793 06ff 9C       		.byte	0x9c
 2794 0700 15070000 		.4byte	0x715
 2795 0704 11       		.uleb128 0x11
 2796 0705 09020000 		.4byte	.LASF82
 2797 0709 01       		.byte	0x1
 2798 070a 3004     		.2byte	0x430
 2799 070c 6B000000 		.4byte	0x6b
 2800 0710 8C040000 		.4byte	.LLST27
 2801 0714 00       		.byte	0
 2802 0715 18       		.uleb128 0x18
 2803 0716 82070000 		.4byte	.LASF83
 2804 071a 01       		.byte	0x1
 2805 071b 5904     		.2byte	0x459
ARM GAS  C:\Users\lenovo\AppData\Local\Temp\ccWMYq61.s 			page 76


 2806 071d 6B000000 		.4byte	0x6b
 2807 0721 00000000 		.4byte	.LFB10
 2808 0725 64000000 		.4byte	.LFE10-.LFB10
 2809 0729 01       		.uleb128 0x1
 2810 072a 9C       		.byte	0x9c
 2811 072b 58070000 		.4byte	0x758
 2812 072f 19       		.uleb128 0x19
 2813 0730 1B060000 		.4byte	.LASF84
 2814 0734 01       		.byte	0x1
 2815 0735 5B04     		.2byte	0x45b
 2816 0737 6B000000 		.4byte	0x6b
 2817 073b B5040000 		.4byte	.LLST28
 2818 073f 13       		.uleb128 0x13
 2819 0740 657000   		.ascii	"ep\000"
 2820 0743 01       		.byte	0x1
 2821 0744 5C04     		.2byte	0x45c
 2822 0746 6B000000 		.4byte	0x6b
 2823 074a EB040000 		.4byte	.LLST29
 2824 074e 1A       		.uleb128 0x1a
 2825 074f 52000000 		.4byte	.LVL109
 2826 0753 220B0000 		.4byte	0xb22
 2827 0757 00       		.byte	0
 2828 0758 18       		.uleb128 0x18
 2829 0759 E6050000 		.4byte	.LASF85
 2830 075d 01       		.byte	0x1
 2831 075e 8A04     		.2byte	0x48a
 2832 0760 6B000000 		.4byte	0x6b
 2833 0764 00000000 		.4byte	.LFB11
 2834 0768 A8000000 		.4byte	.LFE11-.LFB11
 2835 076c 01       		.uleb128 0x1
 2836 076d 9C       		.byte	0x9c
 2837 076e 9B070000 		.4byte	0x79b
 2838 0772 19       		.uleb128 0x19
 2839 0773 1B060000 		.4byte	.LASF84
 2840 0777 01       		.byte	0x1
 2841 0778 8C04     		.2byte	0x48c
 2842 077a 6B000000 		.4byte	0x6b
 2843 077e 14050000 		.4byte	.LLST30
 2844 0782 13       		.uleb128 0x13
 2845 0783 657000   		.ascii	"ep\000"
 2846 0786 01       		.byte	0x1
 2847 0787 8D04     		.2byte	0x48d
 2848 0789 6B000000 		.4byte	0x6b
 2849 078d 3F050000 		.4byte	.LLST31
 2850 0791 1A       		.uleb128 0x1a
 2851 0792 96000000 		.4byte	.LVL121
 2852 0796 220B0000 		.4byte	0xb22
 2853 079a 00       		.byte	0
 2854 079b 18       		.uleb128 0x18
 2855 079c 7B020000 		.4byte	.LASF86
 2856 07a0 01       		.byte	0x1
 2857 07a1 CF04     		.2byte	0x4cf
 2858 07a3 6B000000 		.4byte	0x6b
 2859 07a7 00000000 		.4byte	.LFB12
 2860 07ab 4C000000 		.4byte	.LFE12-.LFB12
 2861 07af 01       		.uleb128 0x1
 2862 07b0 9C       		.byte	0x9c
ARM GAS  C:\Users\lenovo\AppData\Local\Temp\ccWMYq61.s 			page 77


 2863 07b1 FF070000 		.4byte	0x7ff
 2864 07b5 19       		.uleb128 0x19
 2865 07b6 1B060000 		.4byte	.LASF84
 2866 07ba 01       		.byte	0x1
 2867 07bb D104     		.2byte	0x4d1
 2868 07bd 6B000000 		.4byte	0x6b
 2869 07c1 7E050000 		.4byte	.LLST32
 2870 07c5 19       		.uleb128 0x19
 2871 07c6 DF040000 		.4byte	.LASF71
 2872 07ca 01       		.byte	0x1
 2873 07cb D304     		.2byte	0x4d3
 2874 07cd 6B000000 		.4byte	0x6b
 2875 07d1 B5050000 		.4byte	.LLST33
 2876 07d5 19       		.uleb128 0x19
 2877 07d6 4E070000 		.4byte	.LASF87
 2878 07da 01       		.byte	0x1
 2879 07db D404     		.2byte	0x4d4
 2880 07dd 6B000000 		.4byte	0x6b
 2881 07e1 C8050000 		.4byte	.LLST34
 2882 07e5 19       		.uleb128 0x19
 2883 07e6 48040000 		.4byte	.LASF67
 2884 07ea 01       		.byte	0x1
 2885 07eb D504     		.2byte	0x4d5
 2886 07ed DD040000 		.4byte	0x4dd
 2887 07f1 F5050000 		.4byte	.LLST35
 2888 07f5 1A       		.uleb128 0x1a
 2889 07f6 14000000 		.4byte	.LVL125
 2890 07fa A2040000 		.4byte	0x4a2
 2891 07fe 00       		.byte	0
 2892 07ff 1E       		.uleb128 0x1e
 2893 0800 27030000 		.4byte	.LASF88
 2894 0804 01       		.byte	0x1
 2895 0805 54       		.byte	0x54
 2896 0806 6B000000 		.4byte	0x6b
 2897 080a 00000000 		.4byte	.LFB0
 2898 080e 5C030000 		.4byte	.LFE0-.LFB0
 2899 0812 01       		.uleb128 0x1
 2900 0813 9C       		.byte	0x9c
 2901 0814 9A090000 		.4byte	0x99a
 2902 0818 1F       		.uleb128 0x1f
 2903 0819 1B060000 		.4byte	.LASF84
 2904 081d 01       		.byte	0x1
 2905 081e 56       		.byte	0x56
 2906 081f 6B000000 		.4byte	0x6b
 2907 0823 13060000 		.4byte	.LLST36
 2908 0827 1F       		.uleb128 0x1f
 2909 0828 8C060000 		.4byte	.LASF89
 2910 082c 01       		.byte	0x1
 2911 082d 57       		.byte	0x57
 2912 082e 6B000000 		.4byte	0x6b
 2913 0832 B9070000 		.4byte	.LLST37
 2914 0836 1F       		.uleb128 0x1f
 2915 0837 11050000 		.4byte	.LASF90
 2916 083b 01       		.byte	0x1
 2917 083c 58       		.byte	0x58
 2918 083d 6B000000 		.4byte	0x6b
 2919 0841 CC070000 		.4byte	.LLST38
ARM GAS  C:\Users\lenovo\AppData\Local\Temp\ccWMYq61.s 			page 78


 2920 0845 1F       		.uleb128 0x1f
 2921 0846 64020000 		.4byte	.LASF91
 2922 084a 01       		.byte	0x1
 2923 084b 59       		.byte	0x59
 2924 084c 6B000000 		.4byte	0x6b
 2925 0850 DF070000 		.4byte	.LLST39
 2926 0854 1F       		.uleb128 0x1f
 2927 0855 20050000 		.4byte	.LASF92
 2928 0859 01       		.byte	0x1
 2929 085a 5C       		.byte	0x5c
 2930 085b FD010000 		.4byte	0x1fd
 2931 085f 60080000 		.4byte	.LLST40
 2932 0863 1F       		.uleb128 0x1f
 2933 0864 A3060000 		.4byte	.LASF93
 2934 0868 01       		.byte	0x1
 2935 0869 5E       		.byte	0x5e
 2936 086a 6B000000 		.4byte	0x6b
 2937 086e C4080000 		.4byte	.LLST41
 2938 0872 1F       		.uleb128 0x1f
 2939 0873 A8060000 		.4byte	.LASF94
 2940 0877 01       		.byte	0x1
 2941 0878 5F       		.byte	0x5f
 2942 0879 6B000000 		.4byte	0x6b
 2943 087d ED080000 		.4byte	.LLST42
 2944 0881 20       		.uleb128 0x20
 2945 0882 29000000 		.4byte	.LASF95
 2946 0886 01       		.byte	0x1
 2947 0887 63       		.byte	0x63
 2948 0888 AA090000 		.4byte	0x9aa
 2949 088c 05       		.uleb128 0x5
 2950 088d 03       		.byte	0x3
 2951 088e 00000000 		.4byte	USBUART_tBuffer.5129
 2952 0892 1F       		.uleb128 0x1f
 2953 0893 48040000 		.4byte	.LASF67
 2954 0897 01       		.byte	0x1
 2955 0898 64       		.byte	0x64
 2956 0899 DD040000 		.4byte	0x4dd
 2957 089d 00090000 		.4byte	.LLST43
 2958 08a1 1A       		.uleb128 0x1a
 2959 08a2 4A000000 		.4byte	.LVL136
 2960 08a6 80050000 		.4byte	0x580
 2961 08aa 1A       		.uleb128 0x1a
 2962 08ab 58000000 		.4byte	.LVL137
 2963 08af 2D0B0000 		.4byte	0xb2d
 2964 08b3 1A       		.uleb128 0x1a
 2965 08b4 6C000000 		.4byte	.LVL139
 2966 08b8 A2040000 		.4byte	0x4a2
 2967 08bc 1A       		.uleb128 0x1a
 2968 08bd 8A000000 		.4byte	.LVL140
 2969 08c1 2D0B0000 		.4byte	0xb2d
 2970 08c5 1D       		.uleb128 0x1d
 2971 08c6 E4000000 		.4byte	.LVL151
 2972 08ca CB030000 		.4byte	0x3cb
 2973 08ce D9080000 		.4byte	0x8d9
 2974 08d2 16       		.uleb128 0x16
 2975 08d3 01       		.uleb128 0x1
 2976 08d4 50       		.byte	0x50
ARM GAS  C:\Users\lenovo\AppData\Local\Temp\ccWMYq61.s 			page 79


 2977 08d5 02       		.uleb128 0x2
 2978 08d6 74       		.byte	0x74
 2979 08d7 00       		.sleb128 0
 2980 08d8 00       		.byte	0
 2981 08d9 1A       		.uleb128 0x1a
 2982 08da FC000000 		.4byte	.LVL153
 2983 08de 2D0B0000 		.4byte	0xb2d
 2984 08e2 1A       		.uleb128 0x1a
 2985 08e3 02010000 		.4byte	.LVL155
 2986 08e7 380B0000 		.4byte	0xb38
 2987 08eb 1A       		.uleb128 0x1a
 2988 08ec 38010000 		.4byte	.LVL158
 2989 08f0 2D0B0000 		.4byte	0xb2d
 2990 08f4 1A       		.uleb128 0x1a
 2991 08f5 54010000 		.4byte	.LVL160
 2992 08f9 2D0B0000 		.4byte	0xb2d
 2993 08fd 1A       		.uleb128 0x1a
 2994 08fe 64010000 		.4byte	.LVL163
 2995 0902 2D0B0000 		.4byte	0xb2d
 2996 0906 1A       		.uleb128 0x1a
 2997 0907 7A010000 		.4byte	.LVL166
 2998 090b 2D0B0000 		.4byte	0xb2d
 2999 090f 1A       		.uleb128 0x1a
 3000 0910 B0010000 		.4byte	.LVL169
 3001 0914 220B0000 		.4byte	0xb22
 3002 0918 1D       		.uleb128 0x1d
 3003 0919 C4010000 		.4byte	.LVL173
 3004 091d A2040000 		.4byte	0x4a2
 3005 0921 2C090000 		.4byte	0x92c
 3006 0925 16       		.uleb128 0x16
 3007 0926 01       		.uleb128 0x1
 3008 0927 50       		.byte	0x50
 3009 0928 02       		.uleb128 0x2
 3010 0929 74       		.byte	0x74
 3011 092a 7F       		.sleb128 -1
 3012 092b 00       		.byte	0
 3013 092c 1D       		.uleb128 0x1d
 3014 092d E6010000 		.4byte	.LVL175
 3015 0931 F5050000 		.4byte	0x5f5
 3016 0935 3F090000 		.4byte	0x93f
 3017 0939 16       		.uleb128 0x16
 3018 093a 01       		.uleb128 0x1
 3019 093b 50       		.byte	0x50
 3020 093c 01       		.uleb128 0x1
 3021 093d 31       		.byte	0x31
 3022 093e 00       		.byte	0
 3023 093f 1A       		.uleb128 0x1a
 3024 0940 EA010000 		.4byte	.LVL176
 3025 0944 220B0000 		.4byte	0xb22
 3026 0948 1A       		.uleb128 0x1a
 3027 0949 F0010000 		.4byte	.LVL178
 3028 094d 9B070000 		.4byte	0x79b
 3029 0951 1A       		.uleb128 0x1a
 3030 0952 1C020000 		.4byte	.LVL181
 3031 0956 E8040000 		.4byte	0x4e8
 3032 095a 1A       		.uleb128 0x1a
 3033 095b 20020000 		.4byte	.LVL182
ARM GAS  C:\Users\lenovo\AppData\Local\Temp\ccWMYq61.s 			page 80


 3034 095f 220B0000 		.4byte	0xb22
 3035 0963 1A       		.uleb128 0x1a
 3036 0964 3E020000 		.4byte	.LVL185
 3037 0968 58070000 		.4byte	0x758
 3038 096c 1A       		.uleb128 0x1a
 3039 096d 58020000 		.4byte	.LVL187
 3040 0971 220B0000 		.4byte	0xb22
 3041 0975 1A       		.uleb128 0x1a
 3042 0976 B8020000 		.4byte	.LVL189
 3043 097a 220B0000 		.4byte	0xb22
 3044 097e 1A       		.uleb128 0x1a
 3045 097f D6020000 		.4byte	.LVL192
 3046 0983 15070000 		.4byte	0x715
 3047 0987 1A       		.uleb128 0x1a
 3048 0988 F0020000 		.4byte	.LVL194
 3049 098c 220B0000 		.4byte	0xb22
 3050 0990 1A       		.uleb128 0x1a
 3051 0991 12030000 		.4byte	.LVL196
 3052 0995 220B0000 		.4byte	0xb22
 3053 0999 00       		.byte	0
 3054 099a 0C       		.uleb128 0xc
 3055 099b 6B000000 		.4byte	0x6b
 3056 099f AA090000 		.4byte	0x9aa
 3057 09a3 0D       		.uleb128 0xd
 3058 09a4 C1000000 		.4byte	0xc1
 3059 09a8 01       		.byte	0x1
 3060 09a9 00       		.byte	0
 3061 09aa 05       		.uleb128 0x5
 3062 09ab 9A090000 		.4byte	0x99a
 3063 09af 21       		.uleb128 0x21
 3064 09b0 1A000000 		.4byte	.LASF96
 3065 09b4 03       		.byte	0x3
 3066 09b5 D602     		.2byte	0x2d6
 3067 09b7 BC000000 		.4byte	0xbc
 3068 09bb 21       		.uleb128 0x21
 3069 09bc 5F070000 		.4byte	.LASF97
 3070 09c0 03       		.byte	0x3
 3071 09c1 D802     		.2byte	0x2d8
 3072 09c3 BC000000 		.4byte	0xbc
 3073 09c7 21       		.uleb128 0x21
 3074 09c8 A2070000 		.4byte	.LASF98
 3075 09cc 03       		.byte	0x3
 3076 09cd D902     		.2byte	0x2d9
 3077 09cf BC000000 		.4byte	0xbc
 3078 09d3 21       		.uleb128 0x21
 3079 09d4 AA020000 		.4byte	.LASF99
 3080 09d8 03       		.byte	0x3
 3081 09d9 DA02     		.2byte	0x2da
 3082 09db BC000000 		.4byte	0xbc
 3083 09df 0C       		.uleb128 0xc
 3084 09e0 6B000000 		.4byte	0x6b
 3085 09e4 EF090000 		.4byte	0x9ef
 3086 09e8 0D       		.uleb128 0xd
 3087 09e9 C1000000 		.4byte	0xc1
 3088 09ed 11       		.byte	0x11
 3089 09ee 00       		.byte	0
 3090 09ef 22       		.uleb128 0x22
ARM GAS  C:\Users\lenovo\AppData\Local\Temp\ccWMYq61.s 			page 81


 3091 09f0 9F010000 		.4byte	.LASF100
 3092 09f4 04       		.byte	0x4
 3093 09f5 61       		.byte	0x61
 3094 09f6 FA090000 		.4byte	0x9fa
 3095 09fa 17       		.uleb128 0x17
 3096 09fb DF090000 		.4byte	0x9df
 3097 09ff 0C       		.uleb128 0xc
 3098 0a00 3A020000 		.4byte	0x23a
 3099 0a04 0F0A0000 		.4byte	0xa0f
 3100 0a08 0D       		.uleb128 0xd
 3101 0a09 C1000000 		.4byte	0xc1
 3102 0a0d 00       		.byte	0
 3103 0a0e 00       		.byte	0
 3104 0a0f 22       		.uleb128 0x22
 3105 0a10 C3000000 		.4byte	.LASF101
 3106 0a14 04       		.byte	0x4
 3107 0a15 67       		.byte	0x67
 3108 0a16 1A0A0000 		.4byte	0xa1a
 3109 0a1a 17       		.uleb128 0x17
 3110 0a1b FF090000 		.4byte	0x9ff
 3111 0a1f 0C       		.uleb128 0xc
 3112 0a20 6B000000 		.4byte	0x6b
 3113 0a24 2F0A0000 		.4byte	0xa2f
 3114 0a28 0D       		.uleb128 0xd
 3115 0a29 C1000000 		.4byte	0xc1
 3116 0a2d 9E       		.byte	0x9e
 3117 0a2e 00       		.byte	0
 3118 0a2f 22       		.uleb128 0x22
 3119 0a30 BE040000 		.4byte	.LASF102
 3120 0a34 04       		.byte	0x4
 3121 0a35 69       		.byte	0x69
 3122 0a36 3A0A0000 		.4byte	0xa3a
 3123 0a3a 17       		.uleb128 0x17
 3124 0a3b 1F0A0000 		.4byte	0xa1f
 3125 0a3f 22       		.uleb128 0x22
 3126 0a40 5B010000 		.4byte	.LASF103
 3127 0a44 04       		.byte	0x4
 3128 0a45 6D       		.byte	0x6d
 3129 0a46 4A0A0000 		.4byte	0xa4a
 3130 0a4a 17       		.uleb128 0x17
 3131 0a4b DF090000 		.4byte	0x9df
 3132 0a4f 0C       		.uleb128 0xc
 3133 0a50 6B000000 		.4byte	0x6b
 3134 0a54 5F0A0000 		.4byte	0xa5f
 3135 0a58 0D       		.uleb128 0xd
 3136 0a59 C1000000 		.4byte	0xc1
 3137 0a5d 21       		.byte	0x21
 3138 0a5e 00       		.byte	0
 3139 0a5f 22       		.uleb128 0x22
 3140 0a60 DB010000 		.4byte	.LASF104
 3141 0a64 04       		.byte	0x4
 3142 0a65 70       		.byte	0x70
 3143 0a66 4F0A0000 		.4byte	0xa4f
 3144 0a6a 22       		.uleb128 0x22
 3145 0a6b 17020000 		.4byte	.LASF105
 3146 0a6f 04       		.byte	0x4
 3147 0a70 73       		.byte	0x73
ARM GAS  C:\Users\lenovo\AppData\Local\Temp\ccWMYq61.s 			page 82


 3148 0a71 BC000000 		.4byte	0xbc
 3149 0a75 22       		.uleb128 0x22
 3150 0a76 2A050000 		.4byte	.LASF106
 3151 0a7a 04       		.byte	0x4
 3152 0a7b 74       		.byte	0x74
 3153 0a7c 800A0000 		.4byte	0xa80
 3154 0a80 05       		.uleb128 0x5
 3155 0a81 9A090000 		.4byte	0x99a
 3156 0a85 22       		.uleb128 0x22
 3157 0a86 27010000 		.4byte	.LASF107
 3158 0a8a 04       		.byte	0x4
 3159 0a8b 75       		.byte	0x75
 3160 0a8c 900A0000 		.4byte	0xa90
 3161 0a90 05       		.uleb128 0x5
 3162 0a91 9A090000 		.4byte	0x99a
 3163 0a95 22       		.uleb128 0x22
 3164 0a96 CD030000 		.4byte	.LASF108
 3165 0a9a 04       		.byte	0x4
 3166 0a9b 76       		.byte	0x76
 3167 0a9c BC000000 		.4byte	0xbc
 3168 0aa0 22       		.uleb128 0x22
 3169 0aa1 AD050000 		.4byte	.LASF109
 3170 0aa5 04       		.byte	0x4
 3171 0aa6 77       		.byte	0x77
 3172 0aa7 AB0A0000 		.4byte	0xaab
 3173 0aab 05       		.uleb128 0x5
 3174 0aac 9A090000 		.4byte	0x99a
 3175 0ab0 22       		.uleb128 0x22
 3176 0ab1 65040000 		.4byte	.LASF110
 3177 0ab5 04       		.byte	0x4
 3178 0ab6 78       		.byte	0x78
 3179 0ab7 EA050000 		.4byte	0x5ea
 3180 0abb 0C       		.uleb128 0xc
 3181 0abc 3D010000 		.4byte	0x13d
 3182 0ac0 CB0A0000 		.4byte	0xacb
 3183 0ac4 0D       		.uleb128 0xd
 3184 0ac5 C1000000 		.4byte	0xc1
 3185 0ac9 08       		.byte	0x8
 3186 0aca 00       		.byte	0
 3187 0acb 22       		.uleb128 0x22
 3188 0acc 08010000 		.4byte	.LASF111
 3189 0ad0 04       		.byte	0x4
 3190 0ad1 7A       		.byte	0x7a
 3191 0ad2 D60A0000 		.4byte	0xad6
 3192 0ad6 05       		.uleb128 0x5
 3193 0ad7 BB0A0000 		.4byte	0xabb
 3194 0adb 22       		.uleb128 0x22
 3195 0adc 7C040000 		.4byte	.LASF112
 3196 0ae0 04       		.byte	0x4
 3197 0ae1 7B       		.byte	0x7b
 3198 0ae2 E60A0000 		.4byte	0xae6
 3199 0ae6 05       		.uleb128 0x5
 3200 0ae7 09020000 		.4byte	0x209
 3201 0aeb 23       		.uleb128 0x23
 3202 0aec 9C020000 		.4byte	.LASF120
 3203 0af0 05       		.byte	0x5
 3204 0af1 BE       		.byte	0xbe
ARM GAS  C:\Users\lenovo\AppData\Local\Temp\ccWMYq61.s 			page 83


 3205 0af2 FC0A0000 		.4byte	0xafc
 3206 0af6 24       		.uleb128 0x24
 3207 0af7 FC0A0000 		.4byte	0xafc
 3208 0afb 00       		.byte	0
 3209 0afc 09       		.uleb128 0x9
 3210 0afd 04       		.byte	0x4
 3211 0afe 83000000 		.4byte	0x83
 3212 0b02 25       		.uleb128 0x25
 3213 0b03 6F030000 		.4byte	.LASF121
 3214 0b07 04       		.byte	0x4
 3215 0b08 7C01     		.2byte	0x17c
 3216 0b0a 6B000000 		.4byte	0x6b
 3217 0b0e 220B0000 		.4byte	0xb22
 3218 0b12 24       		.uleb128 0x24
 3219 0b13 75050000 		.4byte	0x575
 3220 0b17 24       		.uleb128 0x24
 3221 0b18 6B000000 		.4byte	0x6b
 3222 0b1c 24       		.uleb128 0x24
 3223 0b1d 6B000000 		.4byte	0x6b
 3224 0b21 00       		.byte	0
 3225 0b22 26       		.uleb128 0x26
 3226 0b23 87000000 		.4byte	.LASF113
 3227 0b27 04       		.byte	0x4
 3228 0b28 B4       		.byte	0xb4
 3229 0b29 6B000000 		.4byte	0x6b
 3230 0b2d 26       		.uleb128 0x26
 3231 0b2e E1000000 		.4byte	.LASF114
 3232 0b32 04       		.byte	0x4
 3233 0b33 AA       		.byte	0xaa
 3234 0b34 6B000000 		.4byte	0x6b
 3235 0b38 27       		.uleb128 0x27
 3236 0b39 8E040000 		.4byte	.LASF115
 3237 0b3d 04       		.byte	0x4
 3238 0b3e 4F01     		.2byte	0x14f
 3239 0b40 6B000000 		.4byte	0x6b
 3240 0b44 00       		.byte	0
 3241              		.section	.debug_abbrev,"",%progbits
 3242              	.Ldebug_abbrev0:
 3243 0000 01       		.uleb128 0x1
 3244 0001 11       		.uleb128 0x11
 3245 0002 01       		.byte	0x1
 3246 0003 25       		.uleb128 0x25
 3247 0004 0E       		.uleb128 0xe
 3248 0005 13       		.uleb128 0x13
 3249 0006 0B       		.uleb128 0xb
 3250 0007 03       		.uleb128 0x3
 3251 0008 0E       		.uleb128 0xe
 3252 0009 1B       		.uleb128 0x1b
 3253 000a 0E       		.uleb128 0xe
 3254 000b 55       		.uleb128 0x55
 3255 000c 17       		.uleb128 0x17
 3256 000d 11       		.uleb128 0x11
 3257 000e 01       		.uleb128 0x1
 3258 000f 10       		.uleb128 0x10
 3259 0010 17       		.uleb128 0x17
 3260 0011 00       		.byte	0
 3261 0012 00       		.byte	0
ARM GAS  C:\Users\lenovo\AppData\Local\Temp\ccWMYq61.s 			page 84


 3262 0013 02       		.uleb128 0x2
 3263 0014 24       		.uleb128 0x24
 3264 0015 00       		.byte	0
 3265 0016 0B       		.uleb128 0xb
 3266 0017 0B       		.uleb128 0xb
 3267 0018 3E       		.uleb128 0x3e
 3268 0019 0B       		.uleb128 0xb
 3269 001a 03       		.uleb128 0x3
 3270 001b 0E       		.uleb128 0xe
 3271 001c 00       		.byte	0
 3272 001d 00       		.byte	0
 3273 001e 03       		.uleb128 0x3
 3274 001f 24       		.uleb128 0x24
 3275 0020 00       		.byte	0
 3276 0021 0B       		.uleb128 0xb
 3277 0022 0B       		.uleb128 0xb
 3278 0023 3E       		.uleb128 0x3e
 3279 0024 0B       		.uleb128 0xb
 3280 0025 03       		.uleb128 0x3
 3281 0026 08       		.uleb128 0x8
 3282 0027 00       		.byte	0
 3283 0028 00       		.byte	0
 3284 0029 04       		.uleb128 0x4
 3285 002a 16       		.uleb128 0x16
 3286 002b 00       		.byte	0
 3287 002c 03       		.uleb128 0x3
 3288 002d 0E       		.uleb128 0xe
 3289 002e 3A       		.uleb128 0x3a
 3290 002f 0B       		.uleb128 0xb
 3291 0030 3B       		.uleb128 0x3b
 3292 0031 05       		.uleb128 0x5
 3293 0032 49       		.uleb128 0x49
 3294 0033 13       		.uleb128 0x13
 3295 0034 00       		.byte	0
 3296 0035 00       		.byte	0
 3297 0036 05       		.uleb128 0x5
 3298 0037 35       		.uleb128 0x35
 3299 0038 00       		.byte	0
 3300 0039 49       		.uleb128 0x49
 3301 003a 13       		.uleb128 0x13
 3302 003b 00       		.byte	0
 3303 003c 00       		.byte	0
 3304 003d 06       		.uleb128 0x6
 3305 003e 13       		.uleb128 0x13
 3306 003f 01       		.byte	0x1
 3307 0040 0B       		.uleb128 0xb
 3308 0041 0B       		.uleb128 0xb
 3309 0042 3A       		.uleb128 0x3a
 3310 0043 0B       		.uleb128 0xb
 3311 0044 3B       		.uleb128 0x3b
 3312 0045 0B       		.uleb128 0xb
 3313 0046 01       		.uleb128 0x1
 3314 0047 13       		.uleb128 0x13
 3315 0048 00       		.byte	0
 3316 0049 00       		.byte	0
 3317 004a 07       		.uleb128 0x7
 3318 004b 0D       		.uleb128 0xd
ARM GAS  C:\Users\lenovo\AppData\Local\Temp\ccWMYq61.s 			page 85


 3319 004c 00       		.byte	0
 3320 004d 03       		.uleb128 0x3
 3321 004e 0E       		.uleb128 0xe
 3322 004f 3A       		.uleb128 0x3a
 3323 0050 0B       		.uleb128 0xb
 3324 0051 3B       		.uleb128 0x3b
 3325 0052 0B       		.uleb128 0xb
 3326 0053 49       		.uleb128 0x49
 3327 0054 13       		.uleb128 0x13
 3328 0055 38       		.uleb128 0x38
 3329 0056 0B       		.uleb128 0xb
 3330 0057 00       		.byte	0
 3331 0058 00       		.byte	0
 3332 0059 08       		.uleb128 0x8
 3333 005a 16       		.uleb128 0x16
 3334 005b 00       		.byte	0
 3335 005c 03       		.uleb128 0x3
 3336 005d 0E       		.uleb128 0xe
 3337 005e 3A       		.uleb128 0x3a
 3338 005f 0B       		.uleb128 0xb
 3339 0060 3B       		.uleb128 0x3b
 3340 0061 0B       		.uleb128 0xb
 3341 0062 49       		.uleb128 0x49
 3342 0063 13       		.uleb128 0x13
 3343 0064 00       		.byte	0
 3344 0065 00       		.byte	0
 3345 0066 09       		.uleb128 0x9
 3346 0067 0F       		.uleb128 0xf
 3347 0068 00       		.byte	0
 3348 0069 0B       		.uleb128 0xb
 3349 006a 0B       		.uleb128 0xb
 3350 006b 49       		.uleb128 0x49
 3351 006c 13       		.uleb128 0x13
 3352 006d 00       		.byte	0
 3353 006e 00       		.byte	0
 3354 006f 0A       		.uleb128 0xa
 3355 0070 0D       		.uleb128 0xd
 3356 0071 00       		.byte	0
 3357 0072 03       		.uleb128 0x3
 3358 0073 08       		.uleb128 0x8
 3359 0074 3A       		.uleb128 0x3a
 3360 0075 0B       		.uleb128 0xb
 3361 0076 3B       		.uleb128 0x3b
 3362 0077 0B       		.uleb128 0xb
 3363 0078 49       		.uleb128 0x49
 3364 0079 13       		.uleb128 0x13
 3365 007a 38       		.uleb128 0x38
 3366 007b 0B       		.uleb128 0xb
 3367 007c 00       		.byte	0
 3368 007d 00       		.byte	0
 3369 007e 0B       		.uleb128 0xb
 3370 007f 26       		.uleb128 0x26
 3371 0080 00       		.byte	0
 3372 0081 00       		.byte	0
 3373 0082 00       		.byte	0
 3374 0083 0C       		.uleb128 0xc
 3375 0084 01       		.uleb128 0x1
ARM GAS  C:\Users\lenovo\AppData\Local\Temp\ccWMYq61.s 			page 86


 3376 0085 01       		.byte	0x1
 3377 0086 49       		.uleb128 0x49
 3378 0087 13       		.uleb128 0x13
 3379 0088 01       		.uleb128 0x1
 3380 0089 13       		.uleb128 0x13
 3381 008a 00       		.byte	0
 3382 008b 00       		.byte	0
 3383 008c 0D       		.uleb128 0xd
 3384 008d 21       		.uleb128 0x21
 3385 008e 00       		.byte	0
 3386 008f 49       		.uleb128 0x49
 3387 0090 13       		.uleb128 0x13
 3388 0091 2F       		.uleb128 0x2f
 3389 0092 0B       		.uleb128 0xb
 3390 0093 00       		.byte	0
 3391 0094 00       		.byte	0
 3392 0095 0E       		.uleb128 0xe
 3393 0096 13       		.uleb128 0x13
 3394 0097 01       		.byte	0x1
 3395 0098 0B       		.uleb128 0xb
 3396 0099 0B       		.uleb128 0xb
 3397 009a 3A       		.uleb128 0x3a
 3398 009b 0B       		.uleb128 0xb
 3399 009c 3B       		.uleb128 0x3b
 3400 009d 05       		.uleb128 0x5
 3401 009e 01       		.uleb128 0x1
 3402 009f 13       		.uleb128 0x13
 3403 00a0 00       		.byte	0
 3404 00a1 00       		.byte	0
 3405 00a2 0F       		.uleb128 0xf
 3406 00a3 0D       		.uleb128 0xd
 3407 00a4 00       		.byte	0
 3408 00a5 03       		.uleb128 0x3
 3409 00a6 0E       		.uleb128 0xe
 3410 00a7 3A       		.uleb128 0x3a
 3411 00a8 0B       		.uleb128 0xb
 3412 00a9 3B       		.uleb128 0x3b
 3413 00aa 05       		.uleb128 0x5
 3414 00ab 49       		.uleb128 0x49
 3415 00ac 13       		.uleb128 0x13
 3416 00ad 38       		.uleb128 0x38
 3417 00ae 0B       		.uleb128 0xb
 3418 00af 00       		.byte	0
 3419 00b0 00       		.byte	0
 3420 00b1 10       		.uleb128 0x10
 3421 00b2 2E       		.uleb128 0x2e
 3422 00b3 01       		.byte	0x1
 3423 00b4 3F       		.uleb128 0x3f
 3424 00b5 19       		.uleb128 0x19
 3425 00b6 03       		.uleb128 0x3
 3426 00b7 0E       		.uleb128 0xe
 3427 00b8 3A       		.uleb128 0x3a
 3428 00b9 0B       		.uleb128 0xb
 3429 00ba 3B       		.uleb128 0x3b
 3430 00bb 05       		.uleb128 0x5
 3431 00bc 27       		.uleb128 0x27
 3432 00bd 19       		.uleb128 0x19
ARM GAS  C:\Users\lenovo\AppData\Local\Temp\ccWMYq61.s 			page 87


 3433 00be 11       		.uleb128 0x11
 3434 00bf 01       		.uleb128 0x1
 3435 00c0 12       		.uleb128 0x12
 3436 00c1 06       		.uleb128 0x6
 3437 00c2 40       		.uleb128 0x40
 3438 00c3 18       		.uleb128 0x18
 3439 00c4 9742     		.uleb128 0x2117
 3440 00c6 19       		.uleb128 0x19
 3441 00c7 01       		.uleb128 0x1
 3442 00c8 13       		.uleb128 0x13
 3443 00c9 00       		.byte	0
 3444 00ca 00       		.byte	0
 3445 00cb 11       		.uleb128 0x11
 3446 00cc 05       		.uleb128 0x5
 3447 00cd 00       		.byte	0
 3448 00ce 03       		.uleb128 0x3
 3449 00cf 0E       		.uleb128 0xe
 3450 00d0 3A       		.uleb128 0x3a
 3451 00d1 0B       		.uleb128 0xb
 3452 00d2 3B       		.uleb128 0x3b
 3453 00d3 05       		.uleb128 0x5
 3454 00d4 49       		.uleb128 0x49
 3455 00d5 13       		.uleb128 0x13
 3456 00d6 02       		.uleb128 0x2
 3457 00d7 17       		.uleb128 0x17
 3458 00d8 00       		.byte	0
 3459 00d9 00       		.byte	0
 3460 00da 12       		.uleb128 0x12
 3461 00db 34       		.uleb128 0x34
 3462 00dc 00       		.byte	0
 3463 00dd 03       		.uleb128 0x3
 3464 00de 08       		.uleb128 0x8
 3465 00df 3A       		.uleb128 0x3a
 3466 00e0 0B       		.uleb128 0xb
 3467 00e1 3B       		.uleb128 0x3b
 3468 00e2 05       		.uleb128 0x5
 3469 00e3 49       		.uleb128 0x49
 3470 00e4 13       		.uleb128 0x13
 3471 00e5 02       		.uleb128 0x2
 3472 00e6 18       		.uleb128 0x18
 3473 00e7 00       		.byte	0
 3474 00e8 00       		.byte	0
 3475 00e9 13       		.uleb128 0x13
 3476 00ea 34       		.uleb128 0x34
 3477 00eb 00       		.byte	0
 3478 00ec 03       		.uleb128 0x3
 3479 00ed 08       		.uleb128 0x8
 3480 00ee 3A       		.uleb128 0x3a
 3481 00ef 0B       		.uleb128 0xb
 3482 00f0 3B       		.uleb128 0x3b
 3483 00f1 05       		.uleb128 0x5
 3484 00f2 49       		.uleb128 0x49
 3485 00f3 13       		.uleb128 0x13
 3486 00f4 02       		.uleb128 0x2
 3487 00f5 17       		.uleb128 0x17
 3488 00f6 00       		.byte	0
 3489 00f7 00       		.byte	0
ARM GAS  C:\Users\lenovo\AppData\Local\Temp\ccWMYq61.s 			page 88


 3490 00f8 14       		.uleb128 0x14
 3491 00f9 34       		.uleb128 0x34
 3492 00fa 00       		.byte	0
 3493 00fb 03       		.uleb128 0x3
 3494 00fc 0E       		.uleb128 0xe
 3495 00fd 3A       		.uleb128 0x3a
 3496 00fe 0B       		.uleb128 0xb
 3497 00ff 3B       		.uleb128 0x3b
 3498 0100 05       		.uleb128 0x5
 3499 0101 49       		.uleb128 0x49
 3500 0102 13       		.uleb128 0x13
 3501 0103 02       		.uleb128 0x2
 3502 0104 18       		.uleb128 0x18
 3503 0105 00       		.byte	0
 3504 0106 00       		.byte	0
 3505 0107 15       		.uleb128 0x15
 3506 0108 898201   		.uleb128 0x4109
 3507 010b 01       		.byte	0x1
 3508 010c 11       		.uleb128 0x11
 3509 010d 01       		.uleb128 0x1
 3510 010e 31       		.uleb128 0x31
 3511 010f 13       		.uleb128 0x13
 3512 0110 00       		.byte	0
 3513 0111 00       		.byte	0
 3514 0112 16       		.uleb128 0x16
 3515 0113 8A8201   		.uleb128 0x410a
 3516 0116 00       		.byte	0
 3517 0117 02       		.uleb128 0x2
 3518 0118 18       		.uleb128 0x18
 3519 0119 9142     		.uleb128 0x2111
 3520 011b 18       		.uleb128 0x18
 3521 011c 00       		.byte	0
 3522 011d 00       		.byte	0
 3523 011e 17       		.uleb128 0x17
 3524 011f 26       		.uleb128 0x26
 3525 0120 00       		.byte	0
 3526 0121 49       		.uleb128 0x49
 3527 0122 13       		.uleb128 0x13
 3528 0123 00       		.byte	0
 3529 0124 00       		.byte	0
 3530 0125 18       		.uleb128 0x18
 3531 0126 2E       		.uleb128 0x2e
 3532 0127 01       		.byte	0x1
 3533 0128 3F       		.uleb128 0x3f
 3534 0129 19       		.uleb128 0x19
 3535 012a 03       		.uleb128 0x3
 3536 012b 0E       		.uleb128 0xe
 3537 012c 3A       		.uleb128 0x3a
 3538 012d 0B       		.uleb128 0xb
 3539 012e 3B       		.uleb128 0x3b
 3540 012f 05       		.uleb128 0x5
 3541 0130 27       		.uleb128 0x27
 3542 0131 19       		.uleb128 0x19
 3543 0132 49       		.uleb128 0x49
 3544 0133 13       		.uleb128 0x13
 3545 0134 11       		.uleb128 0x11
 3546 0135 01       		.uleb128 0x1
ARM GAS  C:\Users\lenovo\AppData\Local\Temp\ccWMYq61.s 			page 89


 3547 0136 12       		.uleb128 0x12
 3548 0137 06       		.uleb128 0x6
 3549 0138 40       		.uleb128 0x40
 3550 0139 18       		.uleb128 0x18
 3551 013a 9742     		.uleb128 0x2117
 3552 013c 19       		.uleb128 0x19
 3553 013d 01       		.uleb128 0x1
 3554 013e 13       		.uleb128 0x13
 3555 013f 00       		.byte	0
 3556 0140 00       		.byte	0
 3557 0141 19       		.uleb128 0x19
 3558 0142 34       		.uleb128 0x34
 3559 0143 00       		.byte	0
 3560 0144 03       		.uleb128 0x3
 3561 0145 0E       		.uleb128 0xe
 3562 0146 3A       		.uleb128 0x3a
 3563 0147 0B       		.uleb128 0xb
 3564 0148 3B       		.uleb128 0x3b
 3565 0149 05       		.uleb128 0x5
 3566 014a 49       		.uleb128 0x49
 3567 014b 13       		.uleb128 0x13
 3568 014c 02       		.uleb128 0x2
 3569 014d 17       		.uleb128 0x17
 3570 014e 00       		.byte	0
 3571 014f 00       		.byte	0
 3572 0150 1A       		.uleb128 0x1a
 3573 0151 898201   		.uleb128 0x4109
 3574 0154 00       		.byte	0
 3575 0155 11       		.uleb128 0x11
 3576 0156 01       		.uleb128 0x1
 3577 0157 31       		.uleb128 0x31
 3578 0158 13       		.uleb128 0x13
 3579 0159 00       		.byte	0
 3580 015a 00       		.byte	0
 3581 015b 1B       		.uleb128 0x1b
 3582 015c 2E       		.uleb128 0x2e
 3583 015d 00       		.byte	0
 3584 015e 3F       		.uleb128 0x3f
 3585 015f 19       		.uleb128 0x19
 3586 0160 03       		.uleb128 0x3
 3587 0161 0E       		.uleb128 0xe
 3588 0162 3A       		.uleb128 0x3a
 3589 0163 0B       		.uleb128 0xb
 3590 0164 3B       		.uleb128 0x3b
 3591 0165 05       		.uleb128 0x5
 3592 0166 27       		.uleb128 0x27
 3593 0167 19       		.uleb128 0x19
 3594 0168 49       		.uleb128 0x49
 3595 0169 13       		.uleb128 0x13
 3596 016a 11       		.uleb128 0x11
 3597 016b 01       		.uleb128 0x1
 3598 016c 12       		.uleb128 0x12
 3599 016d 06       		.uleb128 0x6
 3600 016e 40       		.uleb128 0x40
 3601 016f 18       		.uleb128 0x18
 3602 0170 9742     		.uleb128 0x2117
 3603 0172 19       		.uleb128 0x19
ARM GAS  C:\Users\lenovo\AppData\Local\Temp\ccWMYq61.s 			page 90


 3604 0173 00       		.byte	0
 3605 0174 00       		.byte	0
 3606 0175 1C       		.uleb128 0x1c
 3607 0176 0B       		.uleb128 0xb
 3608 0177 01       		.byte	0x1
 3609 0178 11       		.uleb128 0x11
 3610 0179 01       		.uleb128 0x1
 3611 017a 12       		.uleb128 0x12
 3612 017b 06       		.uleb128 0x6
 3613 017c 00       		.byte	0
 3614 017d 00       		.byte	0
 3615 017e 1D       		.uleb128 0x1d
 3616 017f 898201   		.uleb128 0x4109
 3617 0182 01       		.byte	0x1
 3618 0183 11       		.uleb128 0x11
 3619 0184 01       		.uleb128 0x1
 3620 0185 31       		.uleb128 0x31
 3621 0186 13       		.uleb128 0x13
 3622 0187 01       		.uleb128 0x1
 3623 0188 13       		.uleb128 0x13
 3624 0189 00       		.byte	0
 3625 018a 00       		.byte	0
 3626 018b 1E       		.uleb128 0x1e
 3627 018c 2E       		.uleb128 0x2e
 3628 018d 01       		.byte	0x1
 3629 018e 3F       		.uleb128 0x3f
 3630 018f 19       		.uleb128 0x19
 3631 0190 03       		.uleb128 0x3
 3632 0191 0E       		.uleb128 0xe
 3633 0192 3A       		.uleb128 0x3a
 3634 0193 0B       		.uleb128 0xb
 3635 0194 3B       		.uleb128 0x3b
 3636 0195 0B       		.uleb128 0xb
 3637 0196 27       		.uleb128 0x27
 3638 0197 19       		.uleb128 0x19
 3639 0198 49       		.uleb128 0x49
 3640 0199 13       		.uleb128 0x13
 3641 019a 11       		.uleb128 0x11
 3642 019b 01       		.uleb128 0x1
 3643 019c 12       		.uleb128 0x12
 3644 019d 06       		.uleb128 0x6
 3645 019e 40       		.uleb128 0x40
 3646 019f 18       		.uleb128 0x18
 3647 01a0 9742     		.uleb128 0x2117
 3648 01a2 19       		.uleb128 0x19
 3649 01a3 01       		.uleb128 0x1
 3650 01a4 13       		.uleb128 0x13
 3651 01a5 00       		.byte	0
 3652 01a6 00       		.byte	0
 3653 01a7 1F       		.uleb128 0x1f
 3654 01a8 34       		.uleb128 0x34
 3655 01a9 00       		.byte	0
 3656 01aa 03       		.uleb128 0x3
 3657 01ab 0E       		.uleb128 0xe
 3658 01ac 3A       		.uleb128 0x3a
 3659 01ad 0B       		.uleb128 0xb
 3660 01ae 3B       		.uleb128 0x3b
ARM GAS  C:\Users\lenovo\AppData\Local\Temp\ccWMYq61.s 			page 91


 3661 01af 0B       		.uleb128 0xb
 3662 01b0 49       		.uleb128 0x49
 3663 01b1 13       		.uleb128 0x13
 3664 01b2 02       		.uleb128 0x2
 3665 01b3 17       		.uleb128 0x17
 3666 01b4 00       		.byte	0
 3667 01b5 00       		.byte	0
 3668 01b6 20       		.uleb128 0x20
 3669 01b7 34       		.uleb128 0x34
 3670 01b8 00       		.byte	0
 3671 01b9 03       		.uleb128 0x3
 3672 01ba 0E       		.uleb128 0xe
 3673 01bb 3A       		.uleb128 0x3a
 3674 01bc 0B       		.uleb128 0xb
 3675 01bd 3B       		.uleb128 0x3b
 3676 01be 0B       		.uleb128 0xb
 3677 01bf 49       		.uleb128 0x49
 3678 01c0 13       		.uleb128 0x13
 3679 01c1 02       		.uleb128 0x2
 3680 01c2 18       		.uleb128 0x18
 3681 01c3 00       		.byte	0
 3682 01c4 00       		.byte	0
 3683 01c5 21       		.uleb128 0x21
 3684 01c6 34       		.uleb128 0x34
 3685 01c7 00       		.byte	0
 3686 01c8 03       		.uleb128 0x3
 3687 01c9 0E       		.uleb128 0xe
 3688 01ca 3A       		.uleb128 0x3a
 3689 01cb 0B       		.uleb128 0xb
 3690 01cc 3B       		.uleb128 0x3b
 3691 01cd 05       		.uleb128 0x5
 3692 01ce 49       		.uleb128 0x49
 3693 01cf 13       		.uleb128 0x13
 3694 01d0 3F       		.uleb128 0x3f
 3695 01d1 19       		.uleb128 0x19
 3696 01d2 3C       		.uleb128 0x3c
 3697 01d3 19       		.uleb128 0x19
 3698 01d4 00       		.byte	0
 3699 01d5 00       		.byte	0
 3700 01d6 22       		.uleb128 0x22
 3701 01d7 34       		.uleb128 0x34
 3702 01d8 00       		.byte	0
 3703 01d9 03       		.uleb128 0x3
 3704 01da 0E       		.uleb128 0xe
 3705 01db 3A       		.uleb128 0x3a
 3706 01dc 0B       		.uleb128 0xb
 3707 01dd 3B       		.uleb128 0x3b
 3708 01de 0B       		.uleb128 0xb
 3709 01df 49       		.uleb128 0x49
 3710 01e0 13       		.uleb128 0x13
 3711 01e1 3F       		.uleb128 0x3f
 3712 01e2 19       		.uleb128 0x19
 3713 01e3 3C       		.uleb128 0x3c
 3714 01e4 19       		.uleb128 0x19
 3715 01e5 00       		.byte	0
 3716 01e6 00       		.byte	0
 3717 01e7 23       		.uleb128 0x23
ARM GAS  C:\Users\lenovo\AppData\Local\Temp\ccWMYq61.s 			page 92


 3718 01e8 2E       		.uleb128 0x2e
 3719 01e9 01       		.byte	0x1
 3720 01ea 3F       		.uleb128 0x3f
 3721 01eb 19       		.uleb128 0x19
 3722 01ec 03       		.uleb128 0x3
 3723 01ed 0E       		.uleb128 0xe
 3724 01ee 3A       		.uleb128 0x3a
 3725 01ef 0B       		.uleb128 0xb
 3726 01f0 3B       		.uleb128 0x3b
 3727 01f1 0B       		.uleb128 0xb
 3728 01f2 27       		.uleb128 0x27
 3729 01f3 19       		.uleb128 0x19
 3730 01f4 3C       		.uleb128 0x3c
 3731 01f5 19       		.uleb128 0x19
 3732 01f6 01       		.uleb128 0x1
 3733 01f7 13       		.uleb128 0x13
 3734 01f8 00       		.byte	0
 3735 01f9 00       		.byte	0
 3736 01fa 24       		.uleb128 0x24
 3737 01fb 05       		.uleb128 0x5
 3738 01fc 00       		.byte	0
 3739 01fd 49       		.uleb128 0x49
 3740 01fe 13       		.uleb128 0x13
 3741 01ff 00       		.byte	0
 3742 0200 00       		.byte	0
 3743 0201 25       		.uleb128 0x25
 3744 0202 2E       		.uleb128 0x2e
 3745 0203 01       		.byte	0x1
 3746 0204 3F       		.uleb128 0x3f
 3747 0205 19       		.uleb128 0x19
 3748 0206 03       		.uleb128 0x3
 3749 0207 0E       		.uleb128 0xe
 3750 0208 3A       		.uleb128 0x3a
 3751 0209 0B       		.uleb128 0xb
 3752 020a 3B       		.uleb128 0x3b
 3753 020b 05       		.uleb128 0x5
 3754 020c 27       		.uleb128 0x27
 3755 020d 19       		.uleb128 0x19
 3756 020e 49       		.uleb128 0x49
 3757 020f 13       		.uleb128 0x13
 3758 0210 3C       		.uleb128 0x3c
 3759 0211 19       		.uleb128 0x19
 3760 0212 01       		.uleb128 0x1
 3761 0213 13       		.uleb128 0x13
 3762 0214 00       		.byte	0
 3763 0215 00       		.byte	0
 3764 0216 26       		.uleb128 0x26
 3765 0217 2E       		.uleb128 0x2e
 3766 0218 00       		.byte	0
 3767 0219 3F       		.uleb128 0x3f
 3768 021a 19       		.uleb128 0x19
 3769 021b 03       		.uleb128 0x3
 3770 021c 0E       		.uleb128 0xe
 3771 021d 3A       		.uleb128 0x3a
 3772 021e 0B       		.uleb128 0xb
 3773 021f 3B       		.uleb128 0x3b
 3774 0220 0B       		.uleb128 0xb
ARM GAS  C:\Users\lenovo\AppData\Local\Temp\ccWMYq61.s 			page 93


 3775 0221 27       		.uleb128 0x27
 3776 0222 19       		.uleb128 0x19
 3777 0223 49       		.uleb128 0x49
 3778 0224 13       		.uleb128 0x13
 3779 0225 3C       		.uleb128 0x3c
 3780 0226 19       		.uleb128 0x19
 3781 0227 00       		.byte	0
 3782 0228 00       		.byte	0
 3783 0229 27       		.uleb128 0x27
 3784 022a 2E       		.uleb128 0x2e
 3785 022b 00       		.byte	0
 3786 022c 3F       		.uleb128 0x3f
 3787 022d 19       		.uleb128 0x19
 3788 022e 03       		.uleb128 0x3
 3789 022f 0E       		.uleb128 0xe
 3790 0230 3A       		.uleb128 0x3a
 3791 0231 0B       		.uleb128 0xb
 3792 0232 3B       		.uleb128 0x3b
 3793 0233 05       		.uleb128 0x5
 3794 0234 27       		.uleb128 0x27
 3795 0235 19       		.uleb128 0x19
 3796 0236 49       		.uleb128 0x49
 3797 0237 13       		.uleb128 0x13
 3798 0238 3C       		.uleb128 0x3c
 3799 0239 19       		.uleb128 0x19
 3800 023a 00       		.byte	0
 3801 023b 00       		.byte	0
 3802 023c 00       		.byte	0
 3803              		.section	.debug_loc,"",%progbits
 3804              	.Ldebug_loc0:
 3805              	.LLST0:
 3806 0000 00000000 		.4byte	.LVL0
 3807 0004 0C000000 		.4byte	.LVL1
 3808 0008 0100     		.2byte	0x1
 3809 000a 50       		.byte	0x50
 3810 000b 0C000000 		.4byte	.LVL1
 3811 000f 66000000 		.4byte	.LVL10
 3812 0013 0100     		.2byte	0x1
 3813 0015 55       		.byte	0x55
 3814 0016 66000000 		.4byte	.LVL10
 3815 001a 6C000000 		.4byte	.LFE1
 3816 001e 0400     		.2byte	0x4
 3817 0020 F3       		.byte	0xf3
 3818 0021 01       		.uleb128 0x1
 3819 0022 50       		.byte	0x50
 3820 0023 9F       		.byte	0x9f
 3821 0024 00000000 		.4byte	0
 3822 0028 00000000 		.4byte	0
 3823              	.LLST1:
 3824 002c 22000000 		.4byte	.LVL3
 3825 0030 28000000 		.4byte	.LVL4
 3826 0034 0200     		.2byte	0x2
 3827 0036 32       		.byte	0x32
 3828 0037 9F       		.byte	0x9f
 3829 0038 28000000 		.4byte	.LVL4
 3830 003c 5C000000 		.4byte	.LVL7
 3831 0040 0100     		.2byte	0x1
ARM GAS  C:\Users\lenovo\AppData\Local\Temp\ccWMYq61.s 			page 94


 3832 0042 53       		.byte	0x53
 3833 0043 5E000000 		.4byte	.LVL8
 3834 0047 62000000 		.4byte	.LVL9
 3835 004b 0100     		.2byte	0x1
 3836 004d 53       		.byte	0x53
 3837 004e 00000000 		.4byte	0
 3838 0052 00000000 		.4byte	0
 3839              	.LLST2:
 3840 0056 12000000 		.4byte	.LVL2
 3841 005a 28000000 		.4byte	.LVL4
 3842 005e 0200     		.2byte	0x2
 3843 0060 30       		.byte	0x30
 3844 0061 9F       		.byte	0x9f
 3845 0062 28000000 		.4byte	.LVL4
 3846 0066 58000000 		.4byte	.LVL5
 3847 006a 0100     		.2byte	0x1
 3848 006c 54       		.byte	0x54
 3849 006d 5A000000 		.4byte	.LVL6
 3850 0071 62000000 		.4byte	.LVL9
 3851 0075 0100     		.2byte	0x1
 3852 0077 54       		.byte	0x54
 3853 0078 00000000 		.4byte	0
 3854 007c 00000000 		.4byte	0
 3855              	.LLST3:
 3856 0080 02000000 		.4byte	.LVL11
 3857 0084 06000000 		.4byte	.LVL12
 3858 0088 0200     		.2byte	0x2
 3859 008a 31       		.byte	0x31
 3860 008b 9F       		.byte	0x9f
 3861 008c 06000000 		.4byte	.LVL12
 3862 0090 80000000 		.4byte	.LVL13
 3863 0094 0100     		.2byte	0x1
 3864 0096 52       		.byte	0x52
 3865 0097 82000000 		.4byte	.LVL14
 3866 009b 88000000 		.4byte	.LVL15
 3867 009f 0100     		.2byte	0x1
 3868 00a1 52       		.byte	0x52
 3869 00a2 00000000 		.4byte	0
 3870 00a6 00000000 		.4byte	0
 3871              	.LLST4:
 3872 00aa 00000000 		.4byte	.LVL16
 3873 00ae 04000000 		.4byte	.LVL17
 3874 00b2 0200     		.2byte	0x2
 3875 00b4 31       		.byte	0x31
 3876 00b5 9F       		.byte	0x9f
 3877 00b6 04000000 		.4byte	.LVL17
 3878 00ba 34000000 		.4byte	.LVL18
 3879 00be 0100     		.2byte	0x1
 3880 00c0 53       		.byte	0x53
 3881 00c1 36000000 		.4byte	.LVL19
 3882 00c5 40000000 		.4byte	.LFE3
 3883 00c9 0100     		.2byte	0x1
 3884 00cb 53       		.byte	0x53
 3885 00cc 00000000 		.4byte	0
 3886 00d0 00000000 		.4byte	0
 3887              	.LLST5:
 3888 00d4 00000000 		.4byte	.LVL20
ARM GAS  C:\Users\lenovo\AppData\Local\Temp\ccWMYq61.s 			page 95


 3889 00d8 18000000 		.4byte	.LVL23
 3890 00dc 0100     		.2byte	0x1
 3891 00de 50       		.byte	0x50
 3892 00df 18000000 		.4byte	.LVL23
 3893 00e3 1A000000 		.4byte	.LVL24
 3894 00e7 0400     		.2byte	0x4
 3895 00e9 F3       		.byte	0xf3
 3896 00ea 01       		.uleb128 0x1
 3897 00eb 50       		.byte	0x50
 3898 00ec 9F       		.byte	0x9f
 3899 00ed 1A000000 		.4byte	.LVL24
 3900 00f1 1C000000 		.4byte	.LVL25
 3901 00f5 0100     		.2byte	0x1
 3902 00f7 50       		.byte	0x50
 3903 00f8 1C000000 		.4byte	.LVL25
 3904 00fc 28000000 		.4byte	.LFE6
 3905 0100 0400     		.2byte	0x4
 3906 0102 F3       		.byte	0xf3
 3907 0103 01       		.uleb128 0x1
 3908 0104 50       		.byte	0x50
 3909 0105 9F       		.byte	0x9f
 3910 0106 00000000 		.4byte	0
 3911 010a 00000000 		.4byte	0
 3912              	.LLST6:
 3913 010e 0C000000 		.4byte	.LVL21
 3914 0112 16000000 		.4byte	.LVL22
 3915 0116 0300     		.2byte	0x3
 3916 0118 73       		.byte	0x73
 3917 0119 10       		.sleb128 16
 3918 011a 9F       		.byte	0x9f
 3919 011b 18000000 		.4byte	.LVL23
 3920 011f 1A000000 		.4byte	.LVL24
 3921 0123 0100     		.2byte	0x1
 3922 0125 50       		.byte	0x50
 3923 0126 1A000000 		.4byte	.LVL24
 3924 012a 1C000000 		.4byte	.LVL25
 3925 012e 0300     		.2byte	0x3
 3926 0130 73       		.byte	0x73
 3927 0131 10       		.sleb128 16
 3928 0132 9F       		.byte	0x9f
 3929 0133 1C000000 		.4byte	.LVL25
 3930 0137 28000000 		.4byte	.LFE6
 3931 013b 0100     		.2byte	0x1
 3932 013d 50       		.byte	0x50
 3933 013e 00000000 		.4byte	0
 3934 0142 00000000 		.4byte	0
 3935              	.LLST7:
 3936 0146 1A000000 		.4byte	.LVL27
 3937 014a 00010000 		.4byte	.LVL41
 3938 014e 0100     		.2byte	0x1
 3939 0150 54       		.byte	0x54
 3940 0151 00000000 		.4byte	0
 3941 0155 00000000 		.4byte	0
 3942              	.LLST8:
 3943 0159 3E000000 		.4byte	.LVL32
 3944 015d C0000000 		.4byte	.LVL37
 3945 0161 0100     		.2byte	0x1
ARM GAS  C:\Users\lenovo\AppData\Local\Temp\ccWMYq61.s 			page 96


 3946 0163 51       		.byte	0x51
 3947 0164 00000000 		.4byte	0
 3948 0168 00000000 		.4byte	0
 3949              	.LLST9:
 3950 016c 44000000 		.4byte	.LVL33
 3951 0170 88000000 		.4byte	.LVL34
 3952 0174 0100     		.2byte	0x1
 3953 0176 56       		.byte	0x56
 3954 0177 92000000 		.4byte	.LVL35
 3955 017b A4000000 		.4byte	.LVL36
 3956 017f 0100     		.2byte	0x1
 3957 0181 56       		.byte	0x56
 3958 0182 00000000 		.4byte	0
 3959 0186 00000000 		.4byte	0
 3960              	.LLST10:
 3961 018a 22000000 		.4byte	.LVL30
 3962 018e 26000000 		.4byte	.LVL31
 3963 0192 0200     		.2byte	0x2
 3964 0194 30       		.byte	0x30
 3965 0195 9F       		.byte	0x9f
 3966 0196 26000000 		.4byte	.LVL31
 3967 019a FA000000 		.4byte	.LVL39
 3968 019e 0100     		.2byte	0x1
 3969 01a0 53       		.byte	0x53
 3970 01a1 FC000000 		.4byte	.LVL40
 3971 01a5 00010000 		.4byte	.LVL41
 3972 01a9 0100     		.2byte	0x1
 3973 01ab 53       		.byte	0x53
 3974 01ac 00000000 		.4byte	0
 3975 01b0 00000000 		.4byte	0
 3976              	.LLST11:
 3977 01b4 22000000 		.4byte	.LVL30
 3978 01b8 00010000 		.4byte	.LVL41
 3979 01bc 0100     		.2byte	0x1
 3980 01be 50       		.byte	0x50
 3981 01bf 00000000 		.4byte	0
 3982 01c3 00000000 		.4byte	0
 3983              	.LLST12:
 3984 01c7 18000000 		.4byte	.LVL26
 3985 01cb 20000000 		.4byte	.LVL29
 3986 01cf 0300     		.2byte	0x3
 3987 01d1 70       		.byte	0x70
 3988 01d2 08       		.sleb128 8
 3989 01d3 9F       		.byte	0x9f
 3990 01d4 00000000 		.4byte	0
 3991 01d8 00000000 		.4byte	0
 3992              	.LLST13:
 3993 01dc 1C000000 		.4byte	.LVL28
 3994 01e0 00010000 		.4byte	.LVL41
 3995 01e4 0100     		.2byte	0x1
 3996 01e6 52       		.byte	0x52
 3997 01e7 00000000 		.4byte	0
 3998 01eb 00000000 		.4byte	0
 3999              	.LLST14:
 4000 01ef 0E000000 		.4byte	.LVL42
 4001 01f3 18000000 		.4byte	.LVL44
 4002 01f7 0100     		.2byte	0x1
ARM GAS  C:\Users\lenovo\AppData\Local\Temp\ccWMYq61.s 			page 97


 4003 01f9 50       		.byte	0x50
 4004 01fa 18000000 		.4byte	.LVL44
 4005 01fe 1A000000 		.4byte	.LVL45
 4006 0202 0800     		.2byte	0x8
 4007 0204 72       		.byte	0x72
 4008 0205 02       		.sleb128 2
 4009 0206 33       		.byte	0x33
 4010 0207 24       		.byte	0x24
 4011 0208 70       		.byte	0x70
 4012 0209 00       		.sleb128 0
 4013 020a 22       		.byte	0x22
 4014 020b 9F       		.byte	0x9f
 4015 020c 1C000000 		.4byte	.LVL46
 4016 0210 1E000000 		.4byte	.LVL47
 4017 0214 0100     		.2byte	0x1
 4018 0216 50       		.byte	0x50
 4019 0217 00000000 		.4byte	0
 4020 021b 00000000 		.4byte	0
 4021              	.LLST15:
 4022 021f 1A000000 		.4byte	.LVL45
 4023 0223 1C000000 		.4byte	.LVL46
 4024 0227 0100     		.2byte	0x1
 4025 0229 50       		.byte	0x50
 4026 022a 1E000000 		.4byte	.LVL47
 4027 022e 24000000 		.4byte	.LFE8
 4028 0232 0100     		.2byte	0x1
 4029 0234 50       		.byte	0x50
 4030 0235 00000000 		.4byte	0
 4031 0239 00000000 		.4byte	0
 4032              	.LLST16:
 4033 023d 14000000 		.4byte	.LVL43
 4034 0241 1C000000 		.4byte	.LVL46
 4035 0245 0100     		.2byte	0x1
 4036 0247 52       		.byte	0x52
 4037 0248 00000000 		.4byte	0
 4038 024c 00000000 		.4byte	0
 4039              	.LLST17:
 4040 0250 00000000 		.4byte	.LVL48
 4041 0254 54000000 		.4byte	.LVL60
 4042 0258 0100     		.2byte	0x1
 4043 025a 50       		.byte	0x50
 4044 025b 54000000 		.4byte	.LVL60
 4045 025f E4010000 		.4byte	.LFE4
 4046 0263 0400     		.2byte	0x4
 4047 0265 F3       		.byte	0xf3
 4048 0266 01       		.uleb128 0x1
 4049 0267 50       		.byte	0x50
 4050 0268 9F       		.byte	0x9f
 4051 0269 00000000 		.4byte	0
 4052 026d 00000000 		.4byte	0
 4053              	.LLST18:
 4054 0271 04000000 		.4byte	.LVL49
 4055 0275 08000000 		.4byte	.LVL50
 4056 0279 0200     		.2byte	0x2
 4057 027b 30       		.byte	0x30
 4058 027c 9F       		.byte	0x9f
 4059 027d 08000000 		.4byte	.LVL50
ARM GAS  C:\Users\lenovo\AppData\Local\Temp\ccWMYq61.s 			page 98


 4060 0281 24000000 		.4byte	.LVL51
 4061 0285 0100     		.2byte	0x1
 4062 0287 52       		.byte	0x52
 4063 0288 26000000 		.4byte	.LVL52
 4064 028c 2E000000 		.4byte	.LVL53
 4065 0290 0100     		.2byte	0x1
 4066 0292 52       		.byte	0x52
 4067 0293 3E000000 		.4byte	.LVL56
 4068 0297 40000000 		.4byte	.LVL57
 4069 029b 0100     		.2byte	0x1
 4070 029d 52       		.byte	0x52
 4071 029e 82000000 		.4byte	.LVL66
 4072 02a2 96010000 		.4byte	.LVL90
 4073 02a6 0100     		.2byte	0x1
 4074 02a8 57       		.byte	0x57
 4075 02a9 96010000 		.4byte	.LVL90
 4076 02ad 9C010000 		.4byte	.LVL91
 4077 02b1 0200     		.2byte	0x2
 4078 02b3 31       		.byte	0x31
 4079 02b4 9F       		.byte	0x9f
 4080 02b5 9C010000 		.4byte	.LVL91
 4081 02b9 B8010000 		.4byte	.LVL96
 4082 02bd 0100     		.2byte	0x1
 4083 02bf 51       		.byte	0x51
 4084 02c0 BA010000 		.4byte	.LVL97
 4085 02c4 C1010000 		.4byte	.LVL98-1
 4086 02c8 0100     		.2byte	0x1
 4087 02ca 51       		.byte	0x51
 4088 02cb 00000000 		.4byte	0
 4089 02cf 00000000 		.4byte	0
 4090              	.LLST19:
 4091 02d3 8E000000 		.4byte	.LVL68
 4092 02d7 92000000 		.4byte	.LVL69
 4093 02db 0200     		.2byte	0x2
 4094 02dd 30       		.byte	0x30
 4095 02de 9F       		.byte	0x9f
 4096 02df 92000000 		.4byte	.LVL69
 4097 02e3 5A010000 		.4byte	.LVL79
 4098 02e7 0100     		.2byte	0x1
 4099 02e9 54       		.byte	0x54
 4100 02ea 5C010000 		.4byte	.LVL80
 4101 02ee 64010000 		.4byte	.LVL82
 4102 02f2 0100     		.2byte	0x1
 4103 02f4 54       		.byte	0x54
 4104 02f5 00000000 		.4byte	0
 4105 02f9 00000000 		.4byte	0
 4106              	.LLST20:
 4107 02fd 2E000000 		.4byte	.LVL53
 4108 0301 3A000000 		.4byte	.LVL54
 4109 0305 0100     		.2byte	0x1
 4110 0307 53       		.byte	0x53
 4111 0308 3C000000 		.4byte	.LVL55
 4112 030c 3E000000 		.4byte	.LVL56
 4113 0310 0100     		.2byte	0x1
 4114 0312 53       		.byte	0x53
 4115 0313 40000000 		.4byte	.LVL57
 4116 0317 44000000 		.4byte	.LVL58
ARM GAS  C:\Users\lenovo\AppData\Local\Temp\ccWMYq61.s 			page 99


 4117 031b 0100     		.2byte	0x1
 4118 031d 53       		.byte	0x53
 4119 031e 82000000 		.4byte	.LVL66
 4120 0322 8A000000 		.4byte	.LVL67
 4121 0326 0200     		.2byte	0x2
 4122 0328 31       		.byte	0x31
 4123 0329 9F       		.byte	0x9f
 4124 032a 8A000000 		.4byte	.LVL67
 4125 032e 62010000 		.4byte	.LVL81
 4126 0332 0100     		.2byte	0x1
 4127 0334 56       		.byte	0x56
 4128 0335 64010000 		.4byte	.LVL82
 4129 0339 6C010000 		.4byte	.LVL83
 4130 033d 0100     		.2byte	0x1
 4131 033f 56       		.byte	0x56
 4132 0340 6C010000 		.4byte	.LVL83
 4133 0344 70010000 		.4byte	.LVL84
 4134 0348 0200     		.2byte	0x2
 4135 034a 30       		.byte	0x30
 4136 034b 9F       		.byte	0x9f
 4137 034c 70010000 		.4byte	.LVL84
 4138 0350 88010000 		.4byte	.LVL87
 4139 0354 0100     		.2byte	0x1
 4140 0356 52       		.byte	0x52
 4141 0357 8A010000 		.4byte	.LVL88
 4142 035b 91010000 		.4byte	.LVL89-1
 4143 035f 0100     		.2byte	0x1
 4144 0361 52       		.byte	0x52
 4145 0362 00000000 		.4byte	0
 4146 0366 00000000 		.4byte	0
 4147              	.LLST21:
 4148 036a EE000000 		.4byte	.LVL70
 4149 036e 0A010000 		.4byte	.LVL71
 4150 0372 0100     		.2byte	0x1
 4151 0374 53       		.byte	0x53
 4152 0375 0A010000 		.4byte	.LVL71
 4153 0379 14010000 		.4byte	.LVL72
 4154 037d 0700     		.2byte	0x7
 4155 037f 75       		.byte	0x75
 4156 0380 03       		.sleb128 3
 4157 0381 94       		.byte	0x94
 4158 0382 01       		.byte	0x1
 4159 0383 33       		.byte	0x33
 4160 0384 1A       		.byte	0x1a
 4161 0385 9F       		.byte	0x9f
 4162 0386 1A010000 		.4byte	.LVL73
 4163 038a 32010000 		.4byte	.LVL74
 4164 038e 0100     		.2byte	0x1
 4165 0390 53       		.byte	0x53
 4166 0391 32010000 		.4byte	.LVL74
 4167 0395 3A010000 		.4byte	.LVL75
 4168 0399 0700     		.2byte	0x7
 4169 039b 75       		.byte	0x75
 4170 039c 03       		.sleb128 3
 4171 039d 94       		.byte	0x94
 4172 039e 01       		.byte	0x1
 4173 039f 33       		.byte	0x33
ARM GAS  C:\Users\lenovo\AppData\Local\Temp\ccWMYq61.s 			page 100


 4174 03a0 1A       		.byte	0x1a
 4175 03a1 9F       		.byte	0x9f
 4176 03a2 00000000 		.4byte	0
 4177 03a6 00000000 		.4byte	0
 4178              	.LLST22:
 4179 03aa 60000000 		.4byte	.LVL63
 4180 03ae 62000000 		.4byte	.LVL64
 4181 03b2 0100     		.2byte	0x1
 4182 03b4 53       		.byte	0x53
 4183 03b5 62000000 		.4byte	.LVL64
 4184 03b9 8A000000 		.4byte	.LVL67
 4185 03bd 0200     		.2byte	0x2
 4186 03bf 70       		.byte	0x70
 4187 03c0 04       		.sleb128 4
 4188 03c1 00000000 		.4byte	0
 4189 03c5 00000000 		.4byte	0
 4190              	.LLST23:
 4191 03c9 04000000 		.4byte	.LVL49
 4192 03cd 9C010000 		.4byte	.LVL91
 4193 03d1 0200     		.2byte	0x2
 4194 03d3 30       		.byte	0x30
 4195 03d4 9F       		.byte	0x9f
 4196 03d5 9C010000 		.4byte	.LVL91
 4197 03d9 AC010000 		.4byte	.LVL92
 4198 03dd 0100     		.2byte	0x1
 4199 03df 53       		.byte	0x53
 4200 03e0 AC010000 		.4byte	.LVL92
 4201 03e4 AE010000 		.4byte	.LVL93
 4202 03e8 0200     		.2byte	0x2
 4203 03ea 70       		.byte	0x70
 4204 03eb 06       		.sleb128 6
 4205 03ec AE010000 		.4byte	.LVL93
 4206 03f0 B4010000 		.4byte	.LVL94
 4207 03f4 0100     		.2byte	0x1
 4208 03f6 53       		.byte	0x53
 4209 03f7 B6010000 		.4byte	.LVL95
 4210 03fb C1010000 		.4byte	.LVL98-1
 4211 03ff 0100     		.2byte	0x1
 4212 0401 53       		.byte	0x53
 4213 0402 00000000 		.4byte	0
 4214 0406 00000000 		.4byte	0
 4215              	.LLST24:
 4216 040a 5E000000 		.4byte	.LVL62
 4217 040e 7E000000 		.4byte	.LVL65
 4218 0412 0100     		.2byte	0x1
 4219 0414 50       		.byte	0x50
 4220 0415 7E000000 		.4byte	.LVL65
 4221 0419 8A000000 		.4byte	.LVL67
 4222 041d 0300     		.2byte	0x3
 4223 041f 70       		.byte	0x70
 4224 0420 08       		.sleb128 8
 4225 0421 9F       		.byte	0x9f
 4226 0422 8A000000 		.4byte	.LVL67
 4227 0426 C2010000 		.4byte	.LVL98
 4228 042a 0300     		.2byte	0x3
 4229 042c 78       		.byte	0x78
 4230 042d 08       		.sleb128 8
ARM GAS  C:\Users\lenovo\AppData\Local\Temp\ccWMYq61.s 			page 101


 4231 042e 9F       		.byte	0x9f
 4232 042f 00000000 		.4byte	0
 4233 0433 00000000 		.4byte	0
 4234              	.LLST25:
 4235 0437 8E000000 		.4byte	.LVL68
 4236 043b 64010000 		.4byte	.LVL82
 4237 043f 0100     		.2byte	0x1
 4238 0441 55       		.byte	0x55
 4239 0442 6C010000 		.4byte	.LVL83
 4240 0446 7A010000 		.4byte	.LVL85
 4241 044a 0100     		.2byte	0x1
 4242 044c 50       		.byte	0x50
 4243 044d 7A010000 		.4byte	.LVL85
 4244 0451 86010000 		.4byte	.LVL86
 4245 0455 0300     		.2byte	0x3
 4246 0457 70       		.byte	0x70
 4247 0458 78       		.sleb128 -8
 4248 0459 9F       		.byte	0x9f
 4249 045a 86010000 		.4byte	.LVL86
 4250 045e 91010000 		.4byte	.LVL89-1
 4251 0462 0100     		.2byte	0x1
 4252 0464 50       		.byte	0x50
 4253 0465 00000000 		.4byte	0
 4254 0469 00000000 		.4byte	0
 4255              	.LLST26:
 4256 046d 50000000 		.4byte	.LVL59
 4257 0471 8A000000 		.4byte	.LVL67
 4258 0475 0200     		.2byte	0x2
 4259 0477 30       		.byte	0x30
 4260 0478 9F       		.byte	0x9f
 4261 0479 8A000000 		.4byte	.LVL67
 4262 047d C2010000 		.4byte	.LVL98
 4263 0481 0100     		.2byte	0x1
 4264 0483 59       		.byte	0x59
 4265 0484 00000000 		.4byte	0
 4266 0488 00000000 		.4byte	0
 4267              	.LLST27:
 4268 048c 00000000 		.4byte	.LVL99
 4269 0490 04000000 		.4byte	.LVL100
 4270 0494 0100     		.2byte	0x1
 4271 0496 50       		.byte	0x50
 4272 0497 04000000 		.4byte	.LVL100
 4273 049b 30000000 		.4byte	.LVL101
 4274 049f 0100     		.2byte	0x1
 4275 04a1 50       		.byte	0x50
 4276 04a2 38000000 		.4byte	.LVL102
 4277 04a6 3A000000 		.4byte	.LVL103
 4278 04aa 0100     		.2byte	0x1
 4279 04ac 50       		.byte	0x50
 4280 04ad 00000000 		.4byte	0
 4281 04b1 00000000 		.4byte	0
 4282              	.LLST28:
 4283 04b5 02000000 		.4byte	.LVL104
 4284 04b9 52000000 		.4byte	.LVL109
 4285 04bd 0200     		.2byte	0x2
 4286 04bf 30       		.byte	0x30
 4287 04c0 9F       		.byte	0x9f
ARM GAS  C:\Users\lenovo\AppData\Local\Temp\ccWMYq61.s 			page 102


 4288 04c1 52000000 		.4byte	.LVL109
 4289 04c5 54000000 		.4byte	.LVL110
 4290 04c9 0100     		.2byte	0x1
 4291 04cb 50       		.byte	0x50
 4292 04cc 54000000 		.4byte	.LVL110
 4293 04d0 56000000 		.4byte	.LVL111
 4294 04d4 0200     		.2byte	0x2
 4295 04d6 30       		.byte	0x30
 4296 04d7 9F       		.byte	0x9f
 4297 04d8 56000000 		.4byte	.LVL111
 4298 04dc 64000000 		.4byte	.LFE10
 4299 04e0 0100     		.2byte	0x1
 4300 04e2 50       		.byte	0x50
 4301 04e3 00000000 		.4byte	0
 4302 04e7 00000000 		.4byte	0
 4303              	.LLST29:
 4304 04eb 0A000000 		.4byte	.LVL105
 4305 04ef 3A000000 		.4byte	.LVL106
 4306 04f3 0100     		.2byte	0x1
 4307 04f5 52       		.byte	0x52
 4308 04f6 44000000 		.4byte	.LVL107
 4309 04fa 46000000 		.4byte	.LVL108
 4310 04fe 0100     		.2byte	0x1
 4311 0500 52       		.byte	0x52
 4312 0501 54000000 		.4byte	.LVL110
 4313 0505 64000000 		.4byte	.LFE10
 4314 0509 0100     		.2byte	0x1
 4315 050b 52       		.byte	0x52
 4316 050c 00000000 		.4byte	0
 4317 0510 00000000 		.4byte	0
 4318              	.LLST30:
 4319 0514 00000000 		.4byte	.LVL112
 4320 0518 96000000 		.4byte	.LVL121
 4321 051c 0200     		.2byte	0x2
 4322 051e 30       		.byte	0x30
 4323 051f 9F       		.byte	0x9f
 4324 0520 96000000 		.4byte	.LVL121
 4325 0524 98000000 		.4byte	.LVL122
 4326 0528 0100     		.2byte	0x1
 4327 052a 50       		.byte	0x50
 4328 052b 98000000 		.4byte	.LVL122
 4329 052f A8000000 		.4byte	.LFE11
 4330 0533 0200     		.2byte	0x2
 4331 0535 30       		.byte	0x30
 4332 0536 9F       		.byte	0x9f
 4333 0537 00000000 		.4byte	0
 4334 053b 00000000 		.4byte	0
 4335              	.LLST31:
 4336 053f 08000000 		.4byte	.LVL113
 4337 0543 54000000 		.4byte	.LVL114
 4338 0547 0100     		.2byte	0x1
 4339 0549 53       		.byte	0x53
 4340 054a 5E000000 		.4byte	.LVL115
 4341 054e 60000000 		.4byte	.LVL116
 4342 0552 0100     		.2byte	0x1
 4343 0554 53       		.byte	0x53
 4344 0555 6A000000 		.4byte	.LVL117
ARM GAS  C:\Users\lenovo\AppData\Local\Temp\ccWMYq61.s 			page 103


 4345 0559 7E000000 		.4byte	.LVL118
 4346 055d 0100     		.2byte	0x1
 4347 055f 53       		.byte	0x53
 4348 0560 88000000 		.4byte	.LVL119
 4349 0564 8A000000 		.4byte	.LVL120
 4350 0568 0100     		.2byte	0x1
 4351 056a 53       		.byte	0x53
 4352 056b 98000000 		.4byte	.LVL122
 4353 056f A8000000 		.4byte	.LFE11
 4354 0573 0100     		.2byte	0x1
 4355 0575 53       		.byte	0x53
 4356 0576 00000000 		.4byte	0
 4357 057a 00000000 		.4byte	0
 4358              	.LLST32:
 4359 057e 02000000 		.4byte	.LVL123
 4360 0582 32000000 		.4byte	.LVL128
 4361 0586 0200     		.2byte	0x2
 4362 0588 30       		.byte	0x30
 4363 0589 9F       		.byte	0x9f
 4364 058a 32000000 		.4byte	.LVL128
 4365 058e 36000000 		.4byte	.LVL130
 4366 0592 0200     		.2byte	0x2
 4367 0594 31       		.byte	0x31
 4368 0595 9F       		.byte	0x9f
 4369 0596 36000000 		.4byte	.LVL130
 4370 059a 38000000 		.4byte	.LVL131
 4371 059e 0200     		.2byte	0x2
 4372 05a0 30       		.byte	0x30
 4373 05a1 9F       		.byte	0x9f
 4374 05a2 38000000 		.4byte	.LVL131
 4375 05a6 4C000000 		.4byte	.LFE12
 4376 05aa 0100     		.2byte	0x1
 4377 05ac 50       		.byte	0x50
 4378 05ad 00000000 		.4byte	0
 4379 05b1 00000000 		.4byte	0
 4380              	.LLST33:
 4381 05b5 08000000 		.4byte	.LVL124
 4382 05b9 3A000000 		.4byte	.LVL132
 4383 05bd 0100     		.2byte	0x1
 4384 05bf 54       		.byte	0x54
 4385 05c0 00000000 		.4byte	0
 4386 05c4 00000000 		.4byte	0
 4387              	.LLST34:
 4388 05c8 18000000 		.4byte	.LVL126
 4389 05cc 24000000 		.4byte	.LVL127
 4390 05d0 0100     		.2byte	0x1
 4391 05d2 53       		.byte	0x53
 4392 05d3 24000000 		.4byte	.LVL127
 4393 05d7 34000000 		.4byte	.LVL129
 4394 05db 0500     		.2byte	0x5
 4395 05dd 70       		.byte	0x70
 4396 05de 04       		.sleb128 4
 4397 05df 06       		.byte	0x6
 4398 05e0 23       		.byte	0x23
 4399 05e1 04       		.uleb128 0x4
 4400 05e2 36000000 		.4byte	.LVL130
 4401 05e6 4C000000 		.4byte	.LFE12
ARM GAS  C:\Users\lenovo\AppData\Local\Temp\ccWMYq61.s 			page 104


 4402 05ea 0100     		.2byte	0x1
 4403 05ec 53       		.byte	0x53
 4404 05ed 00000000 		.4byte	0
 4405 05f1 00000000 		.4byte	0
 4406              	.LLST35:
 4407 05f5 14000000 		.4byte	.LVL125
 4408 05f9 34000000 		.4byte	.LVL129
 4409 05fd 0100     		.2byte	0x1
 4410 05ff 50       		.byte	0x50
 4411 0600 36000000 		.4byte	.LVL130
 4412 0604 38000000 		.4byte	.LVL131
 4413 0608 0100     		.2byte	0x1
 4414 060a 50       		.byte	0x50
 4415 060b 00000000 		.4byte	0
 4416 060f 00000000 		.4byte	0
 4417              	.LLST36:
 4418 0613 02000000 		.4byte	.LVL133
 4419 0617 58000000 		.4byte	.LVL137
 4420 061b 0200     		.2byte	0x2
 4421 061d 30       		.byte	0x30
 4422 061e 9F       		.byte	0x9f
 4423 061f 58000000 		.4byte	.LVL137
 4424 0623 5A000000 		.4byte	.LVL138
 4425 0627 0100     		.2byte	0x1
 4426 0629 50       		.byte	0x50
 4427 062a 5A000000 		.4byte	.LVL138
 4428 062e 8A000000 		.4byte	.LVL140
 4429 0632 0200     		.2byte	0x2
 4430 0634 30       		.byte	0x30
 4431 0635 9F       		.byte	0x9f
 4432 0636 8A000000 		.4byte	.LVL140
 4433 063a 8C000000 		.4byte	.LVL141
 4434 063e 0100     		.2byte	0x1
 4435 0640 50       		.byte	0x50
 4436 0641 8C000000 		.4byte	.LVL141
 4437 0645 FC000000 		.4byte	.LVL153
 4438 0649 0200     		.2byte	0x2
 4439 064b 30       		.byte	0x30
 4440 064c 9F       		.byte	0x9f
 4441 064d FC000000 		.4byte	.LVL153
 4442 0651 FE000000 		.4byte	.LVL154
 4443 0655 0100     		.2byte	0x1
 4444 0657 50       		.byte	0x50
 4445 0658 FE000000 		.4byte	.LVL154
 4446 065c 02010000 		.4byte	.LVL155
 4447 0660 0200     		.2byte	0x2
 4448 0662 30       		.byte	0x30
 4449 0663 9F       		.byte	0x9f
 4450 0664 02010000 		.4byte	.LVL155
 4451 0668 04010000 		.4byte	.LVL156
 4452 066c 0100     		.2byte	0x1
 4453 066e 50       		.byte	0x50
 4454 066f 04010000 		.4byte	.LVL156
 4455 0673 38010000 		.4byte	.LVL158
 4456 0677 0200     		.2byte	0x2
 4457 0679 30       		.byte	0x30
 4458 067a 9F       		.byte	0x9f
ARM GAS  C:\Users\lenovo\AppData\Local\Temp\ccWMYq61.s 			page 105


 4459 067b 38010000 		.4byte	.LVL158
 4460 067f 3A010000 		.4byte	.LVL159
 4461 0683 0100     		.2byte	0x1
 4462 0685 50       		.byte	0x50
 4463 0686 3A010000 		.4byte	.LVL159
 4464 068a 54010000 		.4byte	.LVL160
 4465 068e 0200     		.2byte	0x2
 4466 0690 30       		.byte	0x30
 4467 0691 9F       		.byte	0x9f
 4468 0692 54010000 		.4byte	.LVL160
 4469 0696 56010000 		.4byte	.LVL161
 4470 069a 0100     		.2byte	0x1
 4471 069c 50       		.byte	0x50
 4472 069d 56010000 		.4byte	.LVL161
 4473 06a1 64010000 		.4byte	.LVL163
 4474 06a5 0200     		.2byte	0x2
 4475 06a7 30       		.byte	0x30
 4476 06a8 9F       		.byte	0x9f
 4477 06a9 64010000 		.4byte	.LVL163
 4478 06ad 66010000 		.4byte	.LVL164
 4479 06b1 0100     		.2byte	0x1
 4480 06b3 50       		.byte	0x50
 4481 06b4 66010000 		.4byte	.LVL164
 4482 06b8 7A010000 		.4byte	.LVL166
 4483 06bc 0200     		.2byte	0x2
 4484 06be 30       		.byte	0x30
 4485 06bf 9F       		.byte	0x9f
 4486 06c0 7A010000 		.4byte	.LVL166
 4487 06c4 7C010000 		.4byte	.LVL167
 4488 06c8 0100     		.2byte	0x1
 4489 06ca 50       		.byte	0x50
 4490 06cb 7C010000 		.4byte	.LVL167
 4491 06cf B0010000 		.4byte	.LVL169
 4492 06d3 0200     		.2byte	0x2
 4493 06d5 30       		.byte	0x30
 4494 06d6 9F       		.byte	0x9f
 4495 06d7 B0010000 		.4byte	.LVL169
 4496 06db B2010000 		.4byte	.LVL170
 4497 06df 0100     		.2byte	0x1
 4498 06e1 50       		.byte	0x50
 4499 06e2 B2010000 		.4byte	.LVL170
 4500 06e6 EA010000 		.4byte	.LVL176
 4501 06ea 0200     		.2byte	0x2
 4502 06ec 30       		.byte	0x30
 4503 06ed 9F       		.byte	0x9f
 4504 06ee EA010000 		.4byte	.LVL176
 4505 06f2 EC010000 		.4byte	.LVL177
 4506 06f6 0100     		.2byte	0x1
 4507 06f8 50       		.byte	0x50
 4508 06f9 EC010000 		.4byte	.LVL177
 4509 06fd 20020000 		.4byte	.LVL182
 4510 0701 0200     		.2byte	0x2
 4511 0703 30       		.byte	0x30
 4512 0704 9F       		.byte	0x9f
 4513 0705 20020000 		.4byte	.LVL182
 4514 0709 22020000 		.4byte	.LVL183
 4515 070d 0100     		.2byte	0x1
ARM GAS  C:\Users\lenovo\AppData\Local\Temp\ccWMYq61.s 			page 106


 4516 070f 50       		.byte	0x50
 4517 0710 22020000 		.4byte	.LVL183
 4518 0714 3E020000 		.4byte	.LVL185
 4519 0718 0200     		.2byte	0x2
 4520 071a 30       		.byte	0x30
 4521 071b 9F       		.byte	0x9f
 4522 071c 3E020000 		.4byte	.LVL185
 4523 0720 40020000 		.4byte	.LVL186
 4524 0724 0100     		.2byte	0x1
 4525 0726 50       		.byte	0x50
 4526 0727 40020000 		.4byte	.LVL186
 4527 072b 58020000 		.4byte	.LVL187
 4528 072f 0200     		.2byte	0x2
 4529 0731 30       		.byte	0x30
 4530 0732 9F       		.byte	0x9f
 4531 0733 58020000 		.4byte	.LVL187
 4532 0737 98020000 		.4byte	.LVL188
 4533 073b 0100     		.2byte	0x1
 4534 073d 50       		.byte	0x50
 4535 073e 98020000 		.4byte	.LVL188
 4536 0742 B8020000 		.4byte	.LVL189
 4537 0746 0200     		.2byte	0x2
 4538 0748 30       		.byte	0x30
 4539 0749 9F       		.byte	0x9f
 4540 074a B8020000 		.4byte	.LVL189
 4541 074e BA020000 		.4byte	.LVL190
 4542 0752 0100     		.2byte	0x1
 4543 0754 50       		.byte	0x50
 4544 0755 BA020000 		.4byte	.LVL190
 4545 0759 D6020000 		.4byte	.LVL192
 4546 075d 0200     		.2byte	0x2
 4547 075f 30       		.byte	0x30
 4548 0760 9F       		.byte	0x9f
 4549 0761 D6020000 		.4byte	.LVL192
 4550 0765 D8020000 		.4byte	.LVL193
 4551 0769 0100     		.2byte	0x1
 4552 076b 50       		.byte	0x50
 4553 076c D8020000 		.4byte	.LVL193
 4554 0770 F0020000 		.4byte	.LVL194
 4555 0774 0200     		.2byte	0x2
 4556 0776 30       		.byte	0x30
 4557 0777 9F       		.byte	0x9f
 4558 0778 F0020000 		.4byte	.LVL194
 4559 077c F2020000 		.4byte	.LVL195
 4560 0780 0100     		.2byte	0x1
 4561 0782 50       		.byte	0x50
 4562 0783 F2020000 		.4byte	.LVL195
 4563 0787 12030000 		.4byte	.LVL196
 4564 078b 0200     		.2byte	0x2
 4565 078d 30       		.byte	0x30
 4566 078e 9F       		.byte	0x9f
 4567 078f 12030000 		.4byte	.LVL196
 4568 0793 14030000 		.4byte	.LVL197
 4569 0797 0100     		.2byte	0x1
 4570 0799 50       		.byte	0x50
 4571 079a 14030000 		.4byte	.LVL197
 4572 079e 4E030000 		.4byte	.LVL205
ARM GAS  C:\Users\lenovo\AppData\Local\Temp\ccWMYq61.s 			page 107


 4573 07a2 0200     		.2byte	0x2
 4574 07a4 30       		.byte	0x30
 4575 07a5 9F       		.byte	0x9f
 4576 07a6 4E030000 		.4byte	.LVL205
 4577 07aa 5C030000 		.4byte	.LFE0
 4578 07ae 0100     		.2byte	0x1
 4579 07b0 50       		.byte	0x50
 4580 07b1 00000000 		.4byte	0
 4581 07b5 00000000 		.4byte	0
 4582              	.LLST37:
 4583 07b9 FC010000 		.4byte	.LVL179
 4584 07bd 0E020000 		.4byte	.LVL180
 4585 07c1 0100     		.2byte	0x1
 4586 07c3 53       		.byte	0x53
 4587 07c4 00000000 		.4byte	0
 4588 07c8 00000000 		.4byte	0
 4589              	.LLST38:
 4590 07cc B6010000 		.4byte	.LVL172
 4591 07d0 C3010000 		.4byte	.LVL173-1
 4592 07d4 0100     		.2byte	0x1
 4593 07d6 53       		.byte	0x53
 4594 07d7 00000000 		.4byte	0
 4595 07db 00000000 		.4byte	0
 4596              	.LLST39:
 4597 07df 08000000 		.4byte	.LVL134
 4598 07e3 3E000000 		.4byte	.LVL135
 4599 07e7 0100     		.2byte	0x1
 4600 07e9 53       		.byte	0x53
 4601 07ea 04010000 		.4byte	.LVL156
 4602 07ee 08010000 		.4byte	.LVL157
 4603 07f2 0100     		.2byte	0x1
 4604 07f4 53       		.byte	0x53
 4605 07f5 56010000 		.4byte	.LVL161
 4606 07f9 58010000 		.4byte	.LVL162
 4607 07fd 0100     		.2byte	0x1
 4608 07ff 53       		.byte	0x53
 4609 0800 66010000 		.4byte	.LVL164
 4610 0804 6A010000 		.4byte	.LVL165
 4611 0808 0100     		.2byte	0x1
 4612 080a 53       		.byte	0x53
 4613 080b 7C010000 		.4byte	.LVL167
 4614 080f A4010000 		.4byte	.LVL168
 4615 0813 0100     		.2byte	0x1
 4616 0815 53       		.byte	0x53
 4617 0816 B2010000 		.4byte	.LVL170
 4618 081a B4010000 		.4byte	.LVL171
 4619 081e 0100     		.2byte	0x1
 4620 0820 53       		.byte	0x53
 4621 0821 EC010000 		.4byte	.LVL177
 4622 0825 EF010000 		.4byte	.LVL178-1
 4623 0829 0100     		.2byte	0x1
 4624 082b 53       		.byte	0x53
 4625 082c 22020000 		.4byte	.LVL183
 4626 0830 26020000 		.4byte	.LVL184
 4627 0834 0100     		.2byte	0x1
 4628 0836 53       		.byte	0x53
 4629 0837 BA020000 		.4byte	.LVL190
ARM GAS  C:\Users\lenovo\AppData\Local\Temp\ccWMYq61.s 			page 108


 4630 083b BE020000 		.4byte	.LVL191
 4631 083f 0100     		.2byte	0x1
 4632 0841 53       		.byte	0x53
 4633 0842 14030000 		.4byte	.LVL197
 4634 0846 18030000 		.4byte	.LVL198
 4635 084a 0100     		.2byte	0x1
 4636 084c 53       		.byte	0x53
 4637 084d 24030000 		.4byte	.LVL202
 4638 0851 28030000 		.4byte	.LVL203
 4639 0855 0100     		.2byte	0x1
 4640 0857 53       		.byte	0x53
 4641 0858 00000000 		.4byte	0
 4642 085c 00000000 		.4byte	0
 4643              	.LLST40:
 4644 0860 08000000 		.4byte	.LVL134
 4645 0864 98000000 		.4byte	.LVL142
 4646 0868 0200     		.2byte	0x2
 4647 086a 30       		.byte	0x30
 4648 086b 9F       		.byte	0x9f
 4649 086c 98000000 		.4byte	.LVL142
 4650 0870 A2000000 		.4byte	.LVL147
 4651 0874 0100     		.2byte	0x1
 4652 0876 51       		.byte	0x51
 4653 0877 A2000000 		.4byte	.LVL147
 4654 087b A6000000 		.4byte	.LVL148
 4655 087f 0200     		.2byte	0x2
 4656 0881 30       		.byte	0x30
 4657 0882 9F       		.byte	0x9f
 4658 0883 A6000000 		.4byte	.LVL148
 4659 0887 E3000000 		.4byte	.LVL151-1
 4660 088b 0100     		.2byte	0x1
 4661 088d 51       		.byte	0x51
 4662 088e E6000000 		.4byte	.LVL152
 4663 0892 FB000000 		.4byte	.LVL153-1
 4664 0896 0100     		.2byte	0x1
 4665 0898 51       		.byte	0x51
 4666 0899 FE000000 		.4byte	.LVL154
 4667 089d 1C030000 		.4byte	.LVL200
 4668 08a1 0200     		.2byte	0x2
 4669 08a3 30       		.byte	0x30
 4670 08a4 9F       		.byte	0x9f
 4671 08a5 1C030000 		.4byte	.LVL200
 4672 08a9 20030000 		.4byte	.LVL201
 4673 08ad 0100     		.2byte	0x1
 4674 08af 51       		.byte	0x51
 4675 08b0 20030000 		.4byte	.LVL201
 4676 08b4 5C030000 		.4byte	.LFE0
 4677 08b8 0200     		.2byte	0x2
 4678 08ba 30       		.byte	0x30
 4679 08bb 9F       		.byte	0x9f
 4680 08bc 00000000 		.4byte	0
 4681 08c0 00000000 		.4byte	0
 4682              	.LLST41:
 4683 08c4 98000000 		.4byte	.LVL142
 4684 08c8 9E000000 		.4byte	.LVL145
 4685 08cc 0100     		.2byte	0x1
 4686 08ce 53       		.byte	0x53
ARM GAS  C:\Users\lenovo\AppData\Local\Temp\ccWMYq61.s 			page 109


 4687 08cf A0000000 		.4byte	.LVL146
 4688 08d3 A2000000 		.4byte	.LVL147
 4689 08d7 0100     		.2byte	0x1
 4690 08d9 53       		.byte	0x53
 4691 08da A6000000 		.4byte	.LVL148
 4692 08de BA000000 		.4byte	.LVL149
 4693 08e2 0100     		.2byte	0x1
 4694 08e4 53       		.byte	0x53
 4695 08e5 00000000 		.4byte	0
 4696 08e9 00000000 		.4byte	0
 4697              	.LLST42:
 4698 08ed 9A000000 		.4byte	.LVL143
 4699 08f1 A2000000 		.4byte	.LVL147
 4700 08f5 0100     		.2byte	0x1
 4701 08f7 52       		.byte	0x52
 4702 08f8 00000000 		.4byte	0
 4703 08fc 00000000 		.4byte	0
 4704              	.LLST43:
 4705 0900 4A000000 		.4byte	.LVL136
 4706 0904 57000000 		.4byte	.LVL137-1
 4707 0908 0100     		.2byte	0x1
 4708 090a 50       		.byte	0x50
 4709 090b 6C000000 		.4byte	.LVL139
 4710 090f 89000000 		.4byte	.LVL140-1
 4711 0913 0100     		.2byte	0x1
 4712 0915 50       		.byte	0x50
 4713 0916 C4010000 		.4byte	.LVL173
 4714 091a DE010000 		.4byte	.LVL174
 4715 091e 0100     		.2byte	0x1
 4716 0920 50       		.byte	0x50
 4717 0921 18030000 		.4byte	.LVL198
 4718 0925 1A030000 		.4byte	.LVL199
 4719 0929 0100     		.2byte	0x1
 4720 092b 50       		.byte	0x50
 4721 092c 28030000 		.4byte	.LVL203
 4722 0930 2A030000 		.4byte	.LVL204
 4723 0934 0100     		.2byte	0x1
 4724 0936 50       		.byte	0x50
 4725 0937 00000000 		.4byte	0
 4726 093b 00000000 		.4byte	0
 4727              		.section	.debug_aranges,"",%progbits
 4728 0000 7C000000 		.4byte	0x7c
 4729 0004 0200     		.2byte	0x2
 4730 0006 00000000 		.4byte	.Ldebug_info0
 4731 000a 04       		.byte	0x4
 4732 000b 00       		.byte	0
 4733 000c 0000     		.2byte	0
 4734 000e 0000     		.2byte	0
 4735 0010 00000000 		.4byte	.LFB1
 4736 0014 6C000000 		.4byte	.LFE1-.LFB1
 4737 0018 00000000 		.4byte	.LFB2
 4738 001c A4000000 		.4byte	.LFE2-.LFB2
 4739 0020 00000000 		.4byte	.LFB3
 4740 0024 40000000 		.4byte	.LFE3-.LFB3
 4741 0028 00000000 		.4byte	.LFB6
 4742 002c 28000000 		.4byte	.LFE6-.LFB6
 4743 0030 00000000 		.4byte	.LFB5
ARM GAS  C:\Users\lenovo\AppData\Local\Temp\ccWMYq61.s 			page 110


 4744 0034 1C010000 		.4byte	.LFE5-.LFB5
 4745 0038 00000000 		.4byte	.LFB7
 4746 003c 18000000 		.4byte	.LFE7-.LFB7
 4747 0040 00000000 		.4byte	.LFB8
 4748 0044 24000000 		.4byte	.LFE8-.LFB8
 4749 0048 00000000 		.4byte	.LFB4
 4750 004c E4010000 		.4byte	.LFE4-.LFB4
 4751 0050 00000000 		.4byte	.LFB9
 4752 0054 4C000000 		.4byte	.LFE9-.LFB9
 4753 0058 00000000 		.4byte	.LFB10
 4754 005c 64000000 		.4byte	.LFE10-.LFB10
 4755 0060 00000000 		.4byte	.LFB11
 4756 0064 A8000000 		.4byte	.LFE11-.LFB11
 4757 0068 00000000 		.4byte	.LFB12
 4758 006c 4C000000 		.4byte	.LFE12-.LFB12
 4759 0070 00000000 		.4byte	.LFB0
 4760 0074 5C030000 		.4byte	.LFE0-.LFB0
 4761 0078 00000000 		.4byte	0
 4762 007c 00000000 		.4byte	0
 4763              		.section	.debug_ranges,"",%progbits
 4764              	.Ldebug_ranges0:
 4765 0000 00000000 		.4byte	.LFB1
 4766 0004 6C000000 		.4byte	.LFE1
 4767 0008 00000000 		.4byte	.LFB2
 4768 000c A4000000 		.4byte	.LFE2
 4769 0010 00000000 		.4byte	.LFB3
 4770 0014 40000000 		.4byte	.LFE3
 4771 0018 00000000 		.4byte	.LFB6
 4772 001c 28000000 		.4byte	.LFE6
 4773 0020 00000000 		.4byte	.LFB5
 4774 0024 1C010000 		.4byte	.LFE5
 4775 0028 00000000 		.4byte	.LFB7
 4776 002c 18000000 		.4byte	.LFE7
 4777 0030 00000000 		.4byte	.LFB8
 4778 0034 24000000 		.4byte	.LFE8
 4779 0038 00000000 		.4byte	.LFB4
 4780 003c E4010000 		.4byte	.LFE4
 4781 0040 00000000 		.4byte	.LFB9
 4782 0044 4C000000 		.4byte	.LFE9
 4783 0048 00000000 		.4byte	.LFB10
 4784 004c 64000000 		.4byte	.LFE10
 4785 0050 00000000 		.4byte	.LFB11
 4786 0054 A8000000 		.4byte	.LFE11
 4787 0058 00000000 		.4byte	.LFB12
 4788 005c 4C000000 		.4byte	.LFE12
 4789 0060 00000000 		.4byte	.LFB0
 4790 0064 5C030000 		.4byte	.LFE0
 4791 0068 00000000 		.4byte	0
 4792 006c 00000000 		.4byte	0
 4793              		.section	.debug_line,"",%progbits
 4794              	.Ldebug_line0:
 4795 0000 E3030000 		.section	.debug_str,"MS",%progbits,1
 4795      02007300 
 4795      00000201 
 4795      FB0E0D00 
 4795      01010101 
 4796              	.LASF37:
ARM GAS  C:\Users\lenovo\AppData\Local\Temp\ccWMYq61.s 			page 111


 4797 0000 70537461 		.ascii	"pStatusBlock\000"
 4797      74757342 
 4797      6C6F636B 
 4797      00
 4798              	.LASF35:
 4799 000d 636F756E 		.ascii	"count\000"
 4799      7400
 4800              	.LASF10:
 4801 0013 75696E74 		.ascii	"uint16\000"
 4801      313600
 4802              	.LASF96:
 4803 001a 55534255 		.ascii	"USBUART_device\000"
 4803      4152545F 
 4803      64657669 
 4803      636500
 4804              	.LASF95:
 4805 0029 55534255 		.ascii	"USBUART_tBuffer\000"
 4805      4152545F 
 4805      74427566 
 4805      66657200 
 4806              	.LASF66:
 4807 0039 636F6E66 		.ascii	"confIndex\000"
 4807      496E6465 
 4807      7800
 4808              	.LASF7:
 4809 0043 6C6F6E67 		.ascii	"long long unsigned int\000"
 4809      206C6F6E 
 4809      6720756E 
 4809      7369676E 
 4809      65642069 
 4810              	.LASF22:
 4811 005a 61646472 		.ascii	"addr\000"
 4811      00
 4812              	.LASF47:
 4813 005f 65704366 		.ascii	"epCfg\000"
 4813      6700
 4814              	.LASF59:
 4815 0065 61726245 		.ascii	"arbEp\000"
 4815      7000
 4816              	.LASF34:
 4817 006b 545F5553 		.ascii	"T_USBUART_XFER_STATUS_BLOCK\000"
 4817      42554152 
 4817      545F5846 
 4817      45525F53 
 4817      54415455 
 4818              	.LASF113:
 4819 0087 55534255 		.ascii	"USBUART_InitNoDataControlTransfer\000"
 4819      4152545F 
 4819      496E6974 
 4819      4E6F4461 
 4819      7461436F 
 4820              	.LASF6:
 4821 00a9 6C6F6E67 		.ascii	"long long int\000"
 4821      206C6F6E 
 4821      6720696E 
 4821      7400
 4822              	.LASF0:
ARM GAS  C:\Users\lenovo\AppData\Local\Temp\ccWMYq61.s 			page 112


 4823 00b7 7369676E 		.ascii	"signed char\000"
 4823      65642063 
 4823      68617200 
 4824              	.LASF101:
 4825 00c3 55534255 		.ascii	"USBUART_TABLE\000"
 4825      4152545F 
 4825      5441424C 
 4825      4500
 4826              	.LASF77:
 4827 00d1 636C6561 		.ascii	"clearAltSetting\000"
 4827      72416C74 
 4827      53657474 
 4827      696E6700 
 4828              	.LASF114:
 4829 00e1 55534255 		.ascii	"USBUART_InitControlRead\000"
 4829      4152545F 
 4829      496E6974 
 4829      436F6E74 
 4829      726F6C52 
 4830              	.LASF76:
 4831 00f9 55534255 		.ascii	"USBUART_Config\000"
 4831      4152545F 
 4831      436F6E66 
 4831      696700
 4832              	.LASF111:
 4833 0108 55534255 		.ascii	"USBUART_EP\000"
 4833      4152545F 
 4833      455000
 4834              	.LASF64:
 4835 0113 55534255 		.ascii	"USBUART_EpStateInit\000"
 4835      4152545F 
 4835      45705374 
 4835      61746549 
 4835      6E697400 
 4836              	.LASF107:
 4837 0127 55534255 		.ascii	"USBUART_interfaceSettingLast\000"
 4837      4152545F 
 4837      696E7465 
 4837      72666163 
 4837      65536574 
 4838              	.LASF58:
 4839 0144 55534255 		.ascii	"USBUART_sie_eps_struct\000"
 4839      4152545F 
 4839      7369655F 
 4839      6570735F 
 4839      73747275 
 4840              	.LASF103:
 4841 015b 55534255 		.ascii	"USBUART_MSOS_DESCRIPTOR\000"
 4841      4152545F 
 4841      4D534F53 
 4841      5F444553 
 4841      43524950 
 4842              	.LASF42:
 4843 0173 55534255 		.ascii	"USBUART_ep0_data_struct\000"
 4843      4152545F 
 4843      6570305F 
 4843      64617461 
ARM GAS  C:\Users\lenovo\AppData\Local\Temp\ccWMYq61.s 			page 113


 4843      5F737472 
 4844              	.LASF4:
 4845 018b 6C6F6E67 		.ascii	"long int\000"
 4845      20696E74 
 4845      00
 4846              	.LASF80:
 4847 0194 63646343 		.ascii	"cdcComNums\000"
 4847      6F6D4E75 
 4847      6D7300
 4848              	.LASF100:
 4849 019f 55534255 		.ascii	"USBUART_DEVICE0_DESCR\000"
 4849      4152545F 
 4849      44455649 
 4849      4345305F 
 4849      44455343 
 4850              	.LASF62:
 4851 01b5 55534255 		.ascii	"USBUART_ReadDieID\000"
 4851      4152545F 
 4851      52656164 
 4851      44696549 
 4851      4400
 4852              	.LASF9:
 4853 01c7 75696E74 		.ascii	"uint8\000"
 4853      3800
 4854              	.LASF21:
 4855 01cd 6570546F 		.ascii	"epToggle\000"
 4855      67676C65 
 4855      00
 4856              	.LASF51:
 4857 01d6 72775761 		.ascii	"rwWa\000"
 4857      00
 4858              	.LASF104:
 4859 01db 55534255 		.ascii	"USBUART_idSerialNumberStringDescriptor\000"
 4859      4152545F 
 4859      69645365 
 4859      7269616C 
 4859      4E756D62 
 4860              	.LASF13:
 4861 0202 646F7562 		.ascii	"double\000"
 4861      6C6500
 4862              	.LASF82:
 4863 0209 65704E75 		.ascii	"epNumber\000"
 4863      6D626572 
 4863      00
 4864              	.LASF49:
 4865 0212 65705372 		.ascii	"epSr\000"
 4865      00
 4866              	.LASF105:
 4867 0217 55534255 		.ascii	"USBUART_interfaceNumber\000"
 4867      4152545F 
 4867      696E7465 
 4867      72666163 
 4867      654E756D 
 4868              	.LASF11:
 4869 022f 75696E74 		.ascii	"uint32\000"
 4869      333200
 4870              	.LASF72:
ARM GAS  C:\Users\lenovo\AppData\Local\Temp\ccWMYq61.s 			page 114


 4871 0236 55534255 		.ascii	"USBUART_GetConfigTablePtr\000"
 4871      4152545F 
 4871      47657443 
 4871      6F6E6669 
 4871      67546162 
 4872              	.LASF36:
 4873 0250 70446174 		.ascii	"pData\000"
 4873      6100
 4874              	.LASF23:
 4875 0256 65704D6F 		.ascii	"epMode\000"
 4875      646500
 4876              	.LASF70:
 4877 025d 65705479 		.ascii	"epType\000"
 4877      706500
 4878              	.LASF91:
 4879 0264 626D5265 		.ascii	"bmRequestType\000"
 4879      71756573 
 4879      74547970 
 4879      6500
 4880              	.LASF50:
 4881 0272 72657365 		.ascii	"reserved\000"
 4881      72766564 
 4881      00
 4882              	.LASF86:
 4883 027b 55534255 		.ascii	"USBUART_ValidateAlternateSetting\000"
 4883      4152545F 
 4883      56616C69 
 4883      64617465 
 4883      416C7465 
 4884              	.LASF120:
 4885 029c 43794765 		.ascii	"CyGetUniqueId\000"
 4885      74556E69 
 4885      71756549 
 4885      6400
 4886              	.LASF99:
 4887 02aa 55534255 		.ascii	"USBUART_deviceStatus\000"
 4887      4152545F 
 4887      64657669 
 4887      63655374 
 4887      61747573 
 4888              	.LASF8:
 4889 02bf 756E7369 		.ascii	"unsigned int\000"
 4889      676E6564 
 4889      20696E74 
 4889      00
 4890              	.LASF73:
 4891 02cc 55534255 		.ascii	"USBUART_GetInterfaceClassTablePtr\000"
 4891      4152545F 
 4891      47657449 
 4891      6E746572 
 4891      66616365 
 4892              	.LASF5:
 4893 02ee 6C6F6E67 		.ascii	"long unsigned int\000"
 4893      20756E73 
 4893      69676E65 
 4893      6420696E 
 4893      7400
ARM GAS  C:\Users\lenovo\AppData\Local\Temp\ccWMYq61.s 			page 115


 4894              	.LASF117:
 4895 0300 2E5C4765 		.ascii	".\\Generated_Source\\PSoC5\\USBUART_std.c\000"
 4895      6E657261 
 4895      7465645F 
 4895      536F7572 
 4895      63655C50 
 4896              	.LASF88:
 4897 0327 55534255 		.ascii	"USBUART_HandleStandardRqst\000"
 4897      4152545F 
 4897      48616E64 
 4897      6C655374 
 4897      616E6461 
 4898              	.LASF119:
 4899 0342 55534255 		.ascii	"USBUART_GetDeviceTablePtr\000"
 4899      4152545F 
 4899      47657444 
 4899      65766963 
 4899      65546162 
 4900              	.LASF3:
 4901 035c 73686F72 		.ascii	"short unsigned int\000"
 4901      7420756E 
 4901      7369676E 
 4901      65642069 
 4901      6E7400
 4902              	.LASF121:
 4903 036f 55534255 		.ascii	"USBUART_Cdc_EpInit\000"
 4903      4152545F 
 4903      4364635F 
 4903      4570496E 
 4903      697400
 4904              	.LASF78:
 4905 0382 70446573 		.ascii	"pDescr\000"
 4905      637200
 4906              	.LASF74:
 4907 0389 70496E74 		.ascii	"pInterfaceClass\000"
 4907      65726661 
 4907      6365436C 
 4907      61737300 
 4908              	.LASF2:
 4909 0399 73686F72 		.ascii	"short int\000"
 4909      7420696E 
 4909      7400
 4910              	.LASF26:
 4911 03a3 696E7465 		.ascii	"interface\000"
 4911      72666163 
 4911      6500
 4912              	.LASF63:
 4913 03ad 55534255 		.ascii	"USBUART_ConfigReg\000"
 4913      4152545F 
 4913      436F6E66 
 4913      69675265 
 4913      6700
 4914              	.LASF40:
 4915 03bf 545F5553 		.ascii	"T_USBUART_LUT\000"
 4915      42554152 
 4915      545F4C55 
 4915      5400
ARM GAS  C:\Users\lenovo\AppData\Local\Temp\ccWMYq61.s 			page 116


 4916              	.LASF108:
 4917 03cd 55534255 		.ascii	"USBUART_deviceAddress\000"
 4917      4152545F 
 4917      64657669 
 4917      63654164 
 4917      64726573 
 4918              	.LASF69:
 4919 03e3 63757245 		.ascii	"curEp\000"
 4919      7000
 4920              	.LASF56:
 4921 03e9 55534255 		.ascii	"USBUART_arb_ep_struct\000"
 4921      4152545F 
 4921      6172625F 
 4921      65705F73 
 4921      74727563 
 4922              	.LASF20:
 4923 03ff 68774570 		.ascii	"hwEpState\000"
 4923      53746174 
 4923      6500
 4924              	.LASF60:
 4925 0409 55534255 		.ascii	"USBUART_arb_eps_struct\000"
 4925      4152545F 
 4925      6172625F 
 4925      6570735F 
 4925      73747275 
 4926              	.LASF17:
 4927 0420 73697A65 		.ascii	"sizetype\000"
 4927      74797065 
 4927      00
 4928              	.LASF57:
 4929 0429 73696545 		.ascii	"sieEp\000"
 4929      7000
 4930              	.LASF68:
 4931 042f 55534255 		.ascii	"USBUART_ConfigAltChanged\000"
 4931      4152545F 
 4931      436F6E66 
 4931      6967416C 
 4931      74436861 
 4932              	.LASF67:
 4933 0448 70546D70 		.ascii	"pTmp\000"
 4933      00
 4934              	.LASF39:
 4935 044d 705F6C69 		.ascii	"p_list\000"
 4935      737400
 4936              	.LASF79:
 4937 0454 62756666 		.ascii	"buffCount\000"
 4937      436F756E 
 4937      7400
 4938              	.LASF18:
 4939 045e 61747472 		.ascii	"attrib\000"
 4939      696200
 4940              	.LASF110:
 4941 0465 55534255 		.ascii	"USBUART_interfaceClass\000"
 4941      4152545F 
 4941      696E7465 
 4941      72666163 
 4941      65436C61 
ARM GAS  C:\Users\lenovo\AppData\Local\Temp\ccWMYq61.s 			page 117


 4942              	.LASF112:
 4943 047c 55534255 		.ascii	"USBUART_currentTD\000"
 4943      4152545F 
 4943      63757272 
 4943      656E7454 
 4943      4400
 4944              	.LASF115:
 4945 048e 55534255 		.ascii	"USBUART_DispatchClassRqst\000"
 4945      4152545F 
 4945      44697370 
 4945      61746368 
 4945      436C6173 
 4946              	.LASF54:
 4947 04a8 72775261 		.ascii	"rwRaMsb\000"
 4947      4D736200 
 4948              	.LASF43:
 4949 04b0 6570436E 		.ascii	"epCnt0\000"
 4949      743000
 4950              	.LASF44:
 4951 04b7 6570436E 		.ascii	"epCnt1\000"
 4951      743100
 4952              	.LASF102:
 4953 04be 55534255 		.ascii	"USBUART_STRING_DESCRIPTORS\000"
 4953      4152545F 
 4953      53545249 
 4953      4E475F44 
 4953      45534352 
 4954              	.LASF45:
 4955 04d9 65704372 		.ascii	"epCr0\000"
 4955      3000
 4956              	.LASF71:
 4957 04df 696E7465 		.ascii	"interfaceNum\000"
 4957      72666163 
 4957      654E756D 
 4957      00
 4958              	.LASF12:
 4959 04ec 666C6F61 		.ascii	"float\000"
 4959      7400
 4960              	.LASF19:
 4961 04f2 61706945 		.ascii	"apiEpState\000"
 4961      70537461 
 4961      746500
 4962              	.LASF81:
 4963 04fd 55534255 		.ascii	"USBUART_TerminateEP\000"
 4963      4152545F 
 4963      5465726D 
 4963      696E6174 
 4963      65455000 
 4964              	.LASF90:
 4965 0511 636F6E66 		.ascii	"configurationN\000"
 4965      69677572 
 4965      6174696F 
 4965      6E4E00
 4966              	.LASF92:
 4967 0520 70537472 		.ascii	"pStr\000"
 4967      00
 4968              	.LASF16:
ARM GAS  C:\Users\lenovo\AppData\Local\Temp\ccWMYq61.s 			page 118


 4969 0525 72656738 		.ascii	"reg8\000"
 4969      00
 4970              	.LASF106:
 4971 052a 55534255 		.ascii	"USBUART_interfaceSetting\000"
 4971      4152545F 
 4971      696E7465 
 4971      72666163 
 4971      65536574 
 4972              	.LASF65:
 4973 0543 64657363 		.ascii	"descr\000"
 4973      7200
 4974              	.LASF1:
 4975 0549 756E7369 		.ascii	"unsigned char\000"
 4975      676E6564 
 4975      20636861 
 4975      7200
 4976              	.LASF118:
 4977 0557 453A5C50 		.ascii	"E:\\Psoc\\Advanced_Experiment\\LED_CAPSENSE\\Led_Ca"
 4977      736F635C 
 4977      41647661 
 4977      6E636564 
 4977      5F457870 
 4978 0586 7073656E 		.ascii	"psense.cydsn\000"
 4978      73652E63 
 4978      7964736E 
 4978      00
 4979              	.LASF53:
 4980 0593 72775261 		.ascii	"rwRa\000"
 4980      00
 4981              	.LASF52:
 4982 0598 72775761 		.ascii	"rwWaMsb\000"
 4982      4D736200 
 4983              	.LASF38:
 4984 05a0 545F5553 		.ascii	"T_USBUART_TD\000"
 4984      42554152 
 4984      545F5444 
 4984      00
 4985              	.LASF109:
 4986 05ad 55534255 		.ascii	"USBUART_interfaceStatus\000"
 4986      4152545F 
 4986      696E7465 
 4986      72666163 
 4986      65537461 
 4987              	.LASF46:
 4988 05c5 55534255 		.ascii	"USBUART_sie_ep_struct\000"
 4988      4152545F 
 4988      7369655F 
 4988      65705F73 
 4988      74727563 
 4989              	.LASF29:
 4990 05db 61747472 		.ascii	"attributes\000"
 4990      69627574 
 4990      657300
 4991              	.LASF85:
 4992 05e6 55534255 		.ascii	"USBUART_ClearEndpointHalt\000"
 4992      4152545F 
 4992      436C6561 
ARM GAS  C:\Users\lenovo\AppData\Local\Temp\ccWMYq61.s 			page 119


 4992      72456E64 
 4992      706F696E 
 4993              	.LASF28:
 4994 0600 616C7453 		.ascii	"altSetting\000"
 4994      65747469 
 4994      6E6700
 4995              	.LASF15:
 4996 060b 63686172 		.ascii	"char\000"
 4996      00
 4997              	.LASF25:
 4998 0610 62756666 		.ascii	"bufferSize\000"
 4998      65725369 
 4998      7A6500
 4999              	.LASF84:
 5000 061b 72657175 		.ascii	"requestHandled\000"
 5000      65737448 
 5000      616E646C 
 5000      656400
 5001              	.LASF75:
 5002 062a 63757272 		.ascii	"currentInterfacesNum\000"
 5002      656E7449 
 5002      6E746572 
 5002      66616365 
 5002      734E756D 
 5003              	.LASF27:
 5004 063f 545F5553 		.ascii	"T_USBUART_EP_CTL_BLOCK\000"
 5004      42554152 
 5004      545F4550 
 5004      5F43544C 
 5004      5F424C4F 
 5005              	.LASF24:
 5006 0656 62756666 		.ascii	"buffOffset\000"
 5006      4F666673 
 5006      657400
 5007              	.LASF14:
 5008 0661 63686172 		.ascii	"char8\000"
 5008      3800
 5009              	.LASF31:
 5010 0667 545F5553 		.ascii	"T_USBUART_EP_SETTINGS_BLOCK\000"
 5010      42554152 
 5010      545F4550 
 5010      5F534554 
 5010      54494E47 
 5011              	.LASF61:
 5012 0683 756E6971 		.ascii	"uniqueId\000"
 5012      75654964 
 5012      00
 5013              	.LASF89:
 5014 068c 696E7465 		.ascii	"interfaceNumber\000"
 5014      72666163 
 5014      654E756D 
 5014      62657200 
 5015              	.LASF33:
 5016 069c 6C656E67 		.ascii	"length\000"
 5016      746800
 5017              	.LASF93:
 5018 06a3 6E537472 		.ascii	"nStr\000"
ARM GAS  C:\Users\lenovo\AppData\Local\Temp\ccWMYq61.s 			page 120


 5018      00
 5019              	.LASF94:
 5020 06a8 64657363 		.ascii	"descrLength\000"
 5020      724C656E 
 5020      67746800 
 5021              	.LASF32:
 5022 06b4 73746174 		.ascii	"status\000"
 5022      757300
 5023              	.LASF116:
 5024 06bb 474E5520 		.ascii	"GNU C 4.9.3 20150303 (release) [ARM/embedded-4_9-br"
 5024      4320342E 
 5024      392E3320 
 5024      32303135 
 5024      30333033 
 5025 06ee 616E6368 		.ascii	"anch revision 221220] -mcpu=cortex-m3 -mthumb -g -O"
 5025      20726576 
 5025      6973696F 
 5025      6E203232 
 5025      31323230 
 5026 0721 67202D66 		.ascii	"g -ffunction-sections -ffat-lto-objects\000"
 5026      66756E63 
 5026      74696F6E 
 5026      2D736563 
 5026      74696F6E 
 5027              	.LASF55:
 5028 0749 72774472 		.ascii	"rwDr\000"
 5028      00
 5029              	.LASF87:
 5030 074e 63757249 		.ascii	"curInterfacesNum\000"
 5030      6E746572 
 5030      66616365 
 5030      734E756D 
 5030      00
 5031              	.LASF97:
 5032 075f 55534255 		.ascii	"USBUART_configuration\000"
 5032      4152545F 
 5032      636F6E66 
 5032      69677572 
 5032      6174696F 
 5033              	.LASF41:
 5034 0775 65704461 		.ascii	"epData\000"
 5034      746100
 5035              	.LASF30:
 5036 077c 624D6973 		.ascii	"bMisc\000"
 5036      6300
 5037              	.LASF83:
 5038 0782 55534255 		.ascii	"USBUART_SetEndpointHalt\000"
 5038      4152545F 
 5038      53657445 
 5038      6E64706F 
 5038      696E7448 
 5039              	.LASF48:
 5040 079a 6570496E 		.ascii	"epIntEn\000"
 5040      74456E00 
 5041              	.LASF98:
 5042 07a2 55534255 		.ascii	"USBUART_configurationChanged\000"
 5042      4152545F 
ARM GAS  C:\Users\lenovo\AppData\Local\Temp\ccWMYq61.s 			page 121


 5042      636F6E66 
 5042      69677572 
 5042      6174696F 
 5043              		.ident	"GCC: (GNU Tools for ARM Embedded Processors) 4.9.3 20150303 (release) [ARM/embedded-4_9-br
