ARM GAS  C:\Users\lenovo\AppData\Local\Temp\ccnUwRoN.s 			page 1


   1              		.syntax unified
   2              		.cpu cortex-m3
   3              		.fpu softvfp
   4              		.eabi_attribute 20, 1
   5              		.eabi_attribute 21, 1
   6              		.eabi_attribute 23, 3
   7              		.eabi_attribute 24, 1
   8              		.eabi_attribute 25, 1
   9              		.eabi_attribute 26, 1
  10              		.eabi_attribute 30, 1
  11              		.eabi_attribute 34, 1
  12              		.eabi_attribute 18, 4
  13              		.thumb
  14              		.file	"CapSense_CSHL.c"
  15              		.text
  16              	.Ltext0:
  17              		.cfi_sections	.debug_frame
  18              		.section	.text.CapSense_BaseInit,"ax",%progbits
  19              		.align	2
  20              		.global	CapSense_BaseInit
  21              		.thumb
  22              		.thumb_func
  23              		.type	CapSense_BaseInit, %function
  24              	CapSense_BaseInit:
  25              	.LFB0:
  26              		.file 1 ".\\Generated_Source\\PSoC5\\CapSense_CSHL.c"
   1:.\Generated_Source\PSoC5/CapSense_CSHL.c **** /*******************************************************************************
   2:.\Generated_Source\PSoC5/CapSense_CSHL.c **** * File Name: CapSense_CSHL.c
   3:.\Generated_Source\PSoC5/CapSense_CSHL.c **** * Version 3.50
   4:.\Generated_Source\PSoC5/CapSense_CSHL.c **** *
   5:.\Generated_Source\PSoC5/CapSense_CSHL.c **** * Description:
   6:.\Generated_Source\PSoC5/CapSense_CSHL.c **** *  This file provides the source code to the High Level APIs for the CapSesne
   7:.\Generated_Source\PSoC5/CapSense_CSHL.c **** *  CSD component.
   8:.\Generated_Source\PSoC5/CapSense_CSHL.c **** *
   9:.\Generated_Source\PSoC5/CapSense_CSHL.c **** * Note:
  10:.\Generated_Source\PSoC5/CapSense_CSHL.c **** *
  11:.\Generated_Source\PSoC5/CapSense_CSHL.c **** ********************************************************************************
  12:.\Generated_Source\PSoC5/CapSense_CSHL.c **** * Copyright 2008-2013, Cypress Semiconductor Corporation.  All rights reserved.
  13:.\Generated_Source\PSoC5/CapSense_CSHL.c **** * You may use this file only in accordance with the license, terms, conditions,
  14:.\Generated_Source\PSoC5/CapSense_CSHL.c **** * disclaimers, and limitations in the end user license agreement accompanying
  15:.\Generated_Source\PSoC5/CapSense_CSHL.c **** * the software package with which this file was provided.
  16:.\Generated_Source\PSoC5/CapSense_CSHL.c **** *******************************************************************************/
  17:.\Generated_Source\PSoC5/CapSense_CSHL.c **** 
  18:.\Generated_Source\PSoC5/CapSense_CSHL.c **** #include "CapSense_CSHL.h"
  19:.\Generated_Source\PSoC5/CapSense_CSHL.c **** 
  20:.\Generated_Source\PSoC5/CapSense_CSHL.c **** /* Storage of filters data */
  21:.\Generated_Source\PSoC5/CapSense_CSHL.c **** #if ( (CapSense_RAW_FILTER_MASK & CapSense_MEDIAN_FILTER) | \
  22:.\Generated_Source\PSoC5/CapSense_CSHL.c ****       (CapSense_RAW_FILTER_MASK & CapSense_AVERAGING_FILTER) )
  23:.\Generated_Source\PSoC5/CapSense_CSHL.c **** 
  24:.\Generated_Source\PSoC5/CapSense_CSHL.c ****     uint16 CapSense_rawFilterData1[CapSense_TOTAL_SENSOR_COUNT];
  25:.\Generated_Source\PSoC5/CapSense_CSHL.c ****     uint16 CapSense_rawFilterData2[CapSense_TOTAL_SENSOR_COUNT];
  26:.\Generated_Source\PSoC5/CapSense_CSHL.c **** 
  27:.\Generated_Source\PSoC5/CapSense_CSHL.c **** #elif ( (CapSense_RAW_FILTER_MASK & CapSense_IIR2_FILTER)   | \
  28:.\Generated_Source\PSoC5/CapSense_CSHL.c ****         (CapSense_RAW_FILTER_MASK & CapSense_IIR4_FILTER)   | \
  29:.\Generated_Source\PSoC5/CapSense_CSHL.c ****         (CapSense_RAW_FILTER_MASK & CapSense_JITTER_FILTER) | \
  30:.\Generated_Source\PSoC5/CapSense_CSHL.c ****         (CapSense_RAW_FILTER_MASK & CapSense_IIR8_FILTER)   | \
  31:.\Generated_Source\PSoC5/CapSense_CSHL.c ****         (CapSense_RAW_FILTER_MASK & CapSense_IIR16_FILTER) )
ARM GAS  C:\Users\lenovo\AppData\Local\Temp\ccnUwRoN.s 			page 2


  32:.\Generated_Source\PSoC5/CapSense_CSHL.c ****         
  33:.\Generated_Source\PSoC5/CapSense_CSHL.c ****     uint16 CapSense_rawFilterData1[CapSense_TOTAL_SENSOR_COUNT];
  34:.\Generated_Source\PSoC5/CapSense_CSHL.c **** 
  35:.\Generated_Source\PSoC5/CapSense_CSHL.c **** #else
  36:.\Generated_Source\PSoC5/CapSense_CSHL.c ****     /* No Raw filters */
  37:.\Generated_Source\PSoC5/CapSense_CSHL.c **** #endif  /* ( (CapSense_RAW_FILTER_MASK & CapSense_MEDIAN_FILTER) || \
  38:.\Generated_Source\PSoC5/CapSense_CSHL.c ****         *    (CapSense_RAW_FILTER_MASK & CapSense_AVERAGING_FILTER) )
  39:.\Generated_Source\PSoC5/CapSense_CSHL.c ****         */
  40:.\Generated_Source\PSoC5/CapSense_CSHL.c **** 
  41:.\Generated_Source\PSoC5/CapSense_CSHL.c **** uint16 CapSense_sensorBaseline[CapSense_TOTAL_SENSOR_COUNT];
  42:.\Generated_Source\PSoC5/CapSense_CSHL.c **** uint8 CapSense_sensorBaselineLow[CapSense_TOTAL_SENSOR_COUNT];
  43:.\Generated_Source\PSoC5/CapSense_CSHL.c **** uint8 CapSense_sensorSignal[CapSense_TOTAL_SENSOR_COUNT];
  44:.\Generated_Source\PSoC5/CapSense_CSHL.c **** uint8 CapSense_sensorOnMask[(((CapSense_TOTAL_SENSOR_COUNT - 1u) / 8u) + 1u)];
  45:.\Generated_Source\PSoC5/CapSense_CSHL.c **** 
  46:.\Generated_Source\PSoC5/CapSense_CSHL.c **** uint8 CapSense_lowBaselineResetCnt[CapSense_TOTAL_SENSOR_COUNT];
  47:.\Generated_Source\PSoC5/CapSense_CSHL.c **** 
  48:.\Generated_Source\PSoC5/CapSense_CSHL.c **** uint8 CapSense_fingerThreshold[] = {
  49:.\Generated_Source\PSoC5/CapSense_CSHL.c ****     40u, 40u, 40u, 
  50:.\Generated_Source\PSoC5/CapSense_CSHL.c **** };
  51:.\Generated_Source\PSoC5/CapSense_CSHL.c **** 
  52:.\Generated_Source\PSoC5/CapSense_CSHL.c **** uint8 CapSense_noiseThreshold[] = {
  53:.\Generated_Source\PSoC5/CapSense_CSHL.c ****     20u, 20u, 20u, 
  54:.\Generated_Source\PSoC5/CapSense_CSHL.c **** };
  55:.\Generated_Source\PSoC5/CapSense_CSHL.c **** 
  56:.\Generated_Source\PSoC5/CapSense_CSHL.c **** uint8 CapSense_hysteresis[] = {
  57:.\Generated_Source\PSoC5/CapSense_CSHL.c ****     0u, 5u, 5u, 
  58:.\Generated_Source\PSoC5/CapSense_CSHL.c **** };
  59:.\Generated_Source\PSoC5/CapSense_CSHL.c **** 
  60:.\Generated_Source\PSoC5/CapSense_CSHL.c **** uint8 CapSense_debounce[] = {
  61:.\Generated_Source\PSoC5/CapSense_CSHL.c ****     1u, 3u, 3u, 
  62:.\Generated_Source\PSoC5/CapSense_CSHL.c **** };
  63:.\Generated_Source\PSoC5/CapSense_CSHL.c **** 
  64:.\Generated_Source\PSoC5/CapSense_CSHL.c **** uint8 CapSense_debounceCounter[] = {
  65:.\Generated_Source\PSoC5/CapSense_CSHL.c ****     0u, 0u, 0u, 
  66:.\Generated_Source\PSoC5/CapSense_CSHL.c **** };
  67:.\Generated_Source\PSoC5/CapSense_CSHL.c **** 
  68:.\Generated_Source\PSoC5/CapSense_CSHL.c **** const uint8 CYCODE CapSense_rawDataIndex[] = {
  69:.\Generated_Source\PSoC5/CapSense_CSHL.c ****     2u, /* LinearSlider0__LS */
  70:.\Generated_Source\PSoC5/CapSense_CSHL.c ****     0u, /* BUTTON_DOWN__BTN */
  71:.\Generated_Source\PSoC5/CapSense_CSHL.c ****     1u, /* BUTTON_UP__BTN */
  72:.\Generated_Source\PSoC5/CapSense_CSHL.c **** 
  73:.\Generated_Source\PSoC5/CapSense_CSHL.c **** };
  74:.\Generated_Source\PSoC5/CapSense_CSHL.c **** 
  75:.\Generated_Source\PSoC5/CapSense_CSHL.c **** const uint8 CYCODE CapSense_numberOfSensors[] = {
  76:.\Generated_Source\PSoC5/CapSense_CSHL.c ****     5u, /* LinearSlider0__LS */
  77:.\Generated_Source\PSoC5/CapSense_CSHL.c ****     1u, /* BUTTON_DOWN__BTN */
  78:.\Generated_Source\PSoC5/CapSense_CSHL.c ****     1u, /* BUTTON_UP__BTN */
  79:.\Generated_Source\PSoC5/CapSense_CSHL.c **** 
  80:.\Generated_Source\PSoC5/CapSense_CSHL.c **** };
  81:.\Generated_Source\PSoC5/CapSense_CSHL.c **** 
  82:.\Generated_Source\PSoC5/CapSense_CSHL.c **** const uint16 CYCODE CapSense_centroidMult[] = {
  83:.\Generated_Source\PSoC5/CapSense_CSHL.c ****     6400u, 
  84:.\Generated_Source\PSoC5/CapSense_CSHL.c **** };
  85:.\Generated_Source\PSoC5/CapSense_CSHL.c **** 
  86:.\Generated_Source\PSoC5/CapSense_CSHL.c **** 
  87:.\Generated_Source\PSoC5/CapSense_CSHL.c **** 
  88:.\Generated_Source\PSoC5/CapSense_CSHL.c **** 
ARM GAS  C:\Users\lenovo\AppData\Local\Temp\ccnUwRoN.s 			page 3


  89:.\Generated_Source\PSoC5/CapSense_CSHL.c **** /*******************************************************************************
  90:.\Generated_Source\PSoC5/CapSense_CSHL.c **** * Function Name: CapSense_BaseInit
  91:.\Generated_Source\PSoC5/CapSense_CSHL.c **** ********************************************************************************
  92:.\Generated_Source\PSoC5/CapSense_CSHL.c **** *
  93:.\Generated_Source\PSoC5/CapSense_CSHL.c **** * Summary:
  94:.\Generated_Source\PSoC5/CapSense_CSHL.c **** *  Loads the CapSense_sensorBaseline[sensor] array element with an 
  95:.\Generated_Source\PSoC5/CapSense_CSHL.c **** *  initial value which is equal to raw count value. 
  96:.\Generated_Source\PSoC5/CapSense_CSHL.c **** *  Resets to zero CapSense_sensorBaselineLow[sensor] and 
  97:.\Generated_Source\PSoC5/CapSense_CSHL.c **** *  CapSense_sensorSignal[sensor] array element.
  98:.\Generated_Source\PSoC5/CapSense_CSHL.c **** *  Loads CapSense_debounceCounter[sensor] array element with initial 
  99:.\Generated_Source\PSoC5/CapSense_CSHL.c **** *  value equal CapSense_debounce[].
 100:.\Generated_Source\PSoC5/CapSense_CSHL.c **** *  Loads the CapSense_rawFilterData2[sensor] and 
 101:.\Generated_Source\PSoC5/CapSense_CSHL.c **** *  CapSense_rawFilterData2[sensor] array element with an 
 102:.\Generated_Source\PSoC5/CapSense_CSHL.c **** *  initial value which is equal raw count value if raw data filter is enabled.
 103:.\Generated_Source\PSoC5/CapSense_CSHL.c **** *
 104:.\Generated_Source\PSoC5/CapSense_CSHL.c **** * Parameters:
 105:.\Generated_Source\PSoC5/CapSense_CSHL.c **** *  sensor:  Sensor number.
 106:.\Generated_Source\PSoC5/CapSense_CSHL.c **** *
 107:.\Generated_Source\PSoC5/CapSense_CSHL.c **** * Return:
 108:.\Generated_Source\PSoC5/CapSense_CSHL.c **** *  None
 109:.\Generated_Source\PSoC5/CapSense_CSHL.c **** *
 110:.\Generated_Source\PSoC5/CapSense_CSHL.c **** * Global Variables:
 111:.\Generated_Source\PSoC5/CapSense_CSHL.c **** *  CapSense_sensorBaseline[]    - used to store baseline value.
 112:.\Generated_Source\PSoC5/CapSense_CSHL.c **** *  CapSense_sensorBaselineLow[] - used to store fraction byte of 
 113:.\Generated_Source\PSoC5/CapSense_CSHL.c **** *  baseline value.
 114:.\Generated_Source\PSoC5/CapSense_CSHL.c **** *  CapSense_sensorSignal[]      - used to store diffence between 
 115:.\Generated_Source\PSoC5/CapSense_CSHL.c **** *  current value of raw data and previous value of baseline.
 116:.\Generated_Source\PSoC5/CapSense_CSHL.c **** *  CapSense_debounceCounter[]   - used to store current debounce 
 117:.\Generated_Source\PSoC5/CapSense_CSHL.c **** *  counter of sensor. Widget which has this parameter are buttons, matrix 
 118:.\Generated_Source\PSoC5/CapSense_CSHL.c **** *  buttons, proximity, guard. All other widgets haven't debounce parameter
 119:.\Generated_Source\PSoC5/CapSense_CSHL.c **** *  and use the last element of this array with value 0 (it means no debounce).
 120:.\Generated_Source\PSoC5/CapSense_CSHL.c **** *  CapSense_rawFilterData1[]    - used to store previous sample of 
 121:.\Generated_Source\PSoC5/CapSense_CSHL.c **** *  any enabled raw data filter.
 122:.\Generated_Source\PSoC5/CapSense_CSHL.c **** *  CapSense_rawFilterData2[]    - used to store before previous sample
 123:.\Generated_Source\PSoC5/CapSense_CSHL.c **** *  of enabled raw data filter. Only required for median or average filters.
 124:.\Generated_Source\PSoC5/CapSense_CSHL.c **** *
 125:.\Generated_Source\PSoC5/CapSense_CSHL.c **** * Reentrant:
 126:.\Generated_Source\PSoC5/CapSense_CSHL.c **** *  No
 127:.\Generated_Source\PSoC5/CapSense_CSHL.c **** *
 128:.\Generated_Source\PSoC5/CapSense_CSHL.c **** *******************************************************************************/
 129:.\Generated_Source\PSoC5/CapSense_CSHL.c **** void CapSense_BaseInit(uint8 sensor) 
 130:.\Generated_Source\PSoC5/CapSense_CSHL.c **** {
  27              		.loc 1 130 0
  28              		.cfi_startproc
  29              		@ args = 0, pretend = 0, frame = 0
  30              		@ frame_needed = 0, uses_anonymous_args = 0
  31              		@ link register save eliminated.
  32              	.LVL0:
  33 0000 10B4     		push	{r4}
  34              		.cfi_def_cfa_offset 4
  35              		.cfi_offset 4, -4
 131:.\Generated_Source\PSoC5/CapSense_CSHL.c ****     #if ((CapSense_TOTAL_BUTTONS_COUNT) || (CapSense_TOTAL_MATRIX_BUTTONS_COUNT) || \
 132:.\Generated_Source\PSoC5/CapSense_CSHL.c ****          (CapSense_TOTAL_GENERICS_COUNT))
 133:.\Generated_Source\PSoC5/CapSense_CSHL.c ****         uint8 widget = CapSense_widgetNumber[sensor];
  36              		.loc 1 133 0
  37 0002 0C4B     		ldr	r3, .L4
  38 0004 1B5C     		ldrb	r3, [r3, r0]	@ zero_extendqisi2
ARM GAS  C:\Users\lenovo\AppData\Local\Temp\ccnUwRoN.s 			page 4


  39              	.LVL1:
 134:.\Generated_Source\PSoC5/CapSense_CSHL.c ****     #endif /* ((CapSense_TOTAL_MATRIX_BUTTONS_COUNT) || (CapSense_TOTAL_MATRIX_BUTTONS_COUNT)) */
 135:.\Generated_Source\PSoC5/CapSense_CSHL.c ****     
 136:.\Generated_Source\PSoC5/CapSense_CSHL.c ****     #if (CapSense_TOTAL_MATRIX_BUTTONS_COUNT)
 137:.\Generated_Source\PSoC5/CapSense_CSHL.c ****         uint8 debounceIndex;
 138:.\Generated_Source\PSoC5/CapSense_CSHL.c ****     #endif  /* (CapSense_TOTAL_MATRIX_BUTTONS_COUNT) */
 139:.\Generated_Source\PSoC5/CapSense_CSHL.c ****     
 140:.\Generated_Source\PSoC5/CapSense_CSHL.c ****     #if (CapSense_TOTAL_GENERICS_COUNT)
 141:.\Generated_Source\PSoC5/CapSense_CSHL.c ****         /* Exclude generic widget */
 142:.\Generated_Source\PSoC5/CapSense_CSHL.c ****         if(widget < CapSense_END_OF_WIDGETS_INDEX)
 143:.\Generated_Source\PSoC5/CapSense_CSHL.c ****         {
 144:.\Generated_Source\PSoC5/CapSense_CSHL.c ****     #endif  /* CapSense_TOTAL_GENERICS_COUNT */
 145:.\Generated_Source\PSoC5/CapSense_CSHL.c ****     
 146:.\Generated_Source\PSoC5/CapSense_CSHL.c ****     /* Initialize Baseline */
 147:.\Generated_Source\PSoC5/CapSense_CSHL.c ****     CapSense_sensorBaseline[sensor] = CapSense_sensorRaw[sensor];
  40              		.loc 1 147 0
  41 0006 0C4A     		ldr	r2, .L4+4
  42 0008 32F81020 		ldrh	r2, [r2, r0, lsl #1]
  43 000c 0B49     		ldr	r1, .L4+8
  44 000e 21F81020 		strh	r2, [r1, r0, lsl #1]	@ movhi
 148:.\Generated_Source\PSoC5/CapSense_CSHL.c ****     CapSense_sensorBaselineLow[sensor] = 0u;
  45              		.loc 1 148 0
  46 0012 0021     		movs	r1, #0
  47 0014 0A4C     		ldr	r4, .L4+12
  48 0016 2154     		strb	r1, [r4, r0]
 149:.\Generated_Source\PSoC5/CapSense_CSHL.c ****     CapSense_sensorSignal[sensor] = 0u;
  49              		.loc 1 149 0
  50 0018 0A4C     		ldr	r4, .L4+16
  51 001a 2154     		strb	r1, [r4, r0]
 150:.\Generated_Source\PSoC5/CapSense_CSHL.c ****         
 151:.\Generated_Source\PSoC5/CapSense_CSHL.c ****     if(widget > CapSense_END_OF_TOUCH_PAD_INDEX)
  52              		.loc 1 151 0
  53 001c 23B1     		cbz	r3, .L2
 152:.\Generated_Source\PSoC5/CapSense_CSHL.c ****     {
 153:.\Generated_Source\PSoC5/CapSense_CSHL.c ****         CapSense_debounceCounter[widget - (CapSense_END_OF_TOUCH_PAD_INDEX + 1)] =  CapSense_deboun
  54              		.loc 1 153 0
  55 001e 591E     		subs	r1, r3, #1
  56 0020 094C     		ldr	r4, .L4+20
  57 0022 E45C     		ldrb	r4, [r4, r3]	@ zero_extendqisi2
  58 0024 094B     		ldr	r3, .L4+24
  59              	.LVL2:
  60 0026 5C54     		strb	r4, [r3, r1]
  61              	.LVL3:
  62              	.L2:
 154:.\Generated_Source\PSoC5/CapSense_CSHL.c ****     }
 155:.\Generated_Source\PSoC5/CapSense_CSHL.c **** 
 156:.\Generated_Source\PSoC5/CapSense_CSHL.c ****     
 157:.\Generated_Source\PSoC5/CapSense_CSHL.c ****     #if ((CapSense_RAW_FILTER_MASK & CapSense_MEDIAN_FILTER) |\
 158:.\Generated_Source\PSoC5/CapSense_CSHL.c ****          (CapSense_RAW_FILTER_MASK & CapSense_AVERAGING_FILTER))
 159:.\Generated_Source\PSoC5/CapSense_CSHL.c **** 
 160:.\Generated_Source\PSoC5/CapSense_CSHL.c ****         CapSense_rawFilterData1[sensor] = CapSense_sensorRaw[sensor];
 161:.\Generated_Source\PSoC5/CapSense_CSHL.c ****         CapSense_rawFilterData2[sensor] = CapSense_sensorRaw[sensor];
 162:.\Generated_Source\PSoC5/CapSense_CSHL.c ****     
 163:.\Generated_Source\PSoC5/CapSense_CSHL.c ****     #elif ((CapSense_RAW_FILTER_MASK & CapSense_IIR2_FILTER) |\
 164:.\Generated_Source\PSoC5/CapSense_CSHL.c ****            (CapSense_RAW_FILTER_MASK & CapSense_IIR4_FILTER) |\
 165:.\Generated_Source\PSoC5/CapSense_CSHL.c ****            (CapSense_RAW_FILTER_MASK & CapSense_JITTER_FILTER) |\
 166:.\Generated_Source\PSoC5/CapSense_CSHL.c ****            (CapSense_RAW_FILTER_MASK & CapSense_IIR8_FILTER) |\
ARM GAS  C:\Users\lenovo\AppData\Local\Temp\ccnUwRoN.s 			page 5


 167:.\Generated_Source\PSoC5/CapSense_CSHL.c ****            (CapSense_RAW_FILTER_MASK & CapSense_IIR16_FILTER))
 168:.\Generated_Source\PSoC5/CapSense_CSHL.c ****             
 169:.\Generated_Source\PSoC5/CapSense_CSHL.c ****         CapSense_rawFilterData1[sensor] = CapSense_sensorRaw[sensor];
  63              		.loc 1 169 0
  64 0028 094B     		ldr	r3, .L4+28
  65 002a 23F81020 		strh	r2, [r3, r0, lsl #1]	@ movhi
 170:.\Generated_Source\PSoC5/CapSense_CSHL.c ****     
 171:.\Generated_Source\PSoC5/CapSense_CSHL.c ****     #else
 172:.\Generated_Source\PSoC5/CapSense_CSHL.c ****         /* No Raw filters */
 173:.\Generated_Source\PSoC5/CapSense_CSHL.c ****     #endif  /* ((CapSense_RAW_FILTER_MASK & CapSense_MEDIAN_FILTER) | \
 174:.\Generated_Source\PSoC5/CapSense_CSHL.c ****             *   (CapSense_RAW_FILTER_MASK & CapSense_AVERAGING_FILTER))
 175:.\Generated_Source\PSoC5/CapSense_CSHL.c ****             */
 176:.\Generated_Source\PSoC5/CapSense_CSHL.c ****     
 177:.\Generated_Source\PSoC5/CapSense_CSHL.c ****     #if (CapSense_TOTAL_GENERICS_COUNT)
 178:.\Generated_Source\PSoC5/CapSense_CSHL.c ****         /* Exclude generic widget */
 179:.\Generated_Source\PSoC5/CapSense_CSHL.c ****         }
 180:.\Generated_Source\PSoC5/CapSense_CSHL.c ****     #endif  /* CapSense_TOTAL_GENERICS_COUNT */
 181:.\Generated_Source\PSoC5/CapSense_CSHL.c **** }
  66              		.loc 1 181 0
  67 002e 5DF8044B 		ldr	r4, [sp], #4
  68              		.cfi_restore 4
  69              		.cfi_def_cfa_offset 0
  70 0032 7047     		bx	lr
  71              	.L5:
  72              		.align	2
  73              	.L4:
  74 0034 00000000 		.word	CapSense_widgetNumber
  75 0038 00000000 		.word	CapSense_sensorRaw
  76 003c 00000000 		.word	CapSense_sensorBaseline
  77 0040 00000000 		.word	CapSense_sensorBaselineLow
  78 0044 00000000 		.word	CapSense_sensorSignal
  79 0048 00000000 		.word	.LANCHOR0
  80 004c 00000000 		.word	.LANCHOR1
  81 0050 00000000 		.word	CapSense_rawFilterData1
  82              		.cfi_endproc
  83              	.LFE0:
  84              		.size	CapSense_BaseInit, .-CapSense_BaseInit
  85              		.section	.text.CapSense_InitializeSensorBaseline,"ax",%progbits
  86              		.align	2
  87              		.global	CapSense_InitializeSensorBaseline
  88              		.thumb
  89              		.thumb_func
  90              		.type	CapSense_InitializeSensorBaseline, %function
  91              	CapSense_InitializeSensorBaseline:
  92              	.LFB1:
 182:.\Generated_Source\PSoC5/CapSense_CSHL.c **** 
 183:.\Generated_Source\PSoC5/CapSense_CSHL.c **** 
 184:.\Generated_Source\PSoC5/CapSense_CSHL.c **** /*******************************************************************************
 185:.\Generated_Source\PSoC5/CapSense_CSHL.c **** * Function Name: CapSense_InitializeSensorBaseline
 186:.\Generated_Source\PSoC5/CapSense_CSHL.c **** ********************************************************************************
 187:.\Generated_Source\PSoC5/CapSense_CSHL.c **** *
 188:.\Generated_Source\PSoC5/CapSense_CSHL.c **** * Summary:
 189:.\Generated_Source\PSoC5/CapSense_CSHL.c **** *  Loads the CapSense_sensorBaseline[sensor] array element with an 
 190:.\Generated_Source\PSoC5/CapSense_CSHL.c **** *  initial value by scanning the selected sensor (one channel design) or pair 
 191:.\Generated_Source\PSoC5/CapSense_CSHL.c **** *  of sensors (two channels designs). The raw count value is copied into the 
 192:.\Generated_Source\PSoC5/CapSense_CSHL.c **** *  baseline array for each sensor. The raw data filters are initialized if 
 193:.\Generated_Source\PSoC5/CapSense_CSHL.c **** *  enabled.
ARM GAS  C:\Users\lenovo\AppData\Local\Temp\ccnUwRoN.s 			page 6


 194:.\Generated_Source\PSoC5/CapSense_CSHL.c **** *
 195:.\Generated_Source\PSoC5/CapSense_CSHL.c **** * Parameters:
 196:.\Generated_Source\PSoC5/CapSense_CSHL.c **** *  sensor:  Sensor number.
 197:.\Generated_Source\PSoC5/CapSense_CSHL.c **** *
 198:.\Generated_Source\PSoC5/CapSense_CSHL.c **** * Return:
 199:.\Generated_Source\PSoC5/CapSense_CSHL.c **** *  None
 200:.\Generated_Source\PSoC5/CapSense_CSHL.c **** *
 201:.\Generated_Source\PSoC5/CapSense_CSHL.c **** * Reentrant:
 202:.\Generated_Source\PSoC5/CapSense_CSHL.c **** *  No
 203:.\Generated_Source\PSoC5/CapSense_CSHL.c **** *
 204:.\Generated_Source\PSoC5/CapSense_CSHL.c **** *******************************************************************************/
 205:.\Generated_Source\PSoC5/CapSense_CSHL.c **** void CapSense_InitializeSensorBaseline(uint8 sensor)
 206:.\Generated_Source\PSoC5/CapSense_CSHL.c ****                           
 207:.\Generated_Source\PSoC5/CapSense_CSHL.c **** {
  93              		.loc 1 207 0
  94              		.cfi_startproc
  95              		@ args = 0, pretend = 0, frame = 0
  96              		@ frame_needed = 0, uses_anonymous_args = 0
  97              	.LVL4:
  98 0000 10B5     		push	{r4, lr}
  99              		.cfi_def_cfa_offset 8
 100              		.cfi_offset 4, -8
 101              		.cfi_offset 14, -4
 102 0002 0446     		mov	r4, r0
 208:.\Generated_Source\PSoC5/CapSense_CSHL.c ****     /* Scan sensor */
 209:.\Generated_Source\PSoC5/CapSense_CSHL.c ****     CapSense_ScanSensor(sensor);
 103              		.loc 1 209 0
 104 0004 FFF7FEFF 		bl	CapSense_ScanSensor
 105              	.LVL5:
 106              	.L7:
 210:.\Generated_Source\PSoC5/CapSense_CSHL.c ****     while(CapSense_IsBusy() != 0u)
 107              		.loc 1 210 0 discriminator 1
 108 0008 FFF7FEFF 		bl	CapSense_IsBusy
 109              	.LVL6:
 110 000c 0028     		cmp	r0, #0
 111 000e FBD1     		bne	.L7
 211:.\Generated_Source\PSoC5/CapSense_CSHL.c ****     {
 212:.\Generated_Source\PSoC5/CapSense_CSHL.c ****         /* Wait while busy */
 213:.\Generated_Source\PSoC5/CapSense_CSHL.c ****     }
 214:.\Generated_Source\PSoC5/CapSense_CSHL.c ****     
 215:.\Generated_Source\PSoC5/CapSense_CSHL.c ****     #if (CapSense_DESIGN_TYPE == CapSense_ONE_CHANNEL_DESIGN)
 216:.\Generated_Source\PSoC5/CapSense_CSHL.c ****         /* Initialize Baseline, Signal and debounce counters */       
 217:.\Generated_Source\PSoC5/CapSense_CSHL.c ****         CapSense_BaseInit(sensor);
 112              		.loc 1 217 0
 113 0010 2046     		mov	r0, r4
 114 0012 FFF7FEFF 		bl	CapSense_BaseInit
 115              	.LVL7:
 116 0016 10BD     		pop	{r4, pc}
 117              		.cfi_endproc
 118              	.LFE1:
 119              		.size	CapSense_InitializeSensorBaseline, .-CapSense_InitializeSensorBaseline
 120              		.section	.text.CapSense_InitializeAllBaselines,"ax",%progbits
 121              		.align	2
 122              		.global	CapSense_InitializeAllBaselines
 123              		.thumb
 124              		.thumb_func
 125              		.type	CapSense_InitializeAllBaselines, %function
ARM GAS  C:\Users\lenovo\AppData\Local\Temp\ccnUwRoN.s 			page 7


 126              	CapSense_InitializeAllBaselines:
 127              	.LFB2:
 218:.\Generated_Source\PSoC5/CapSense_CSHL.c ****         
 219:.\Generated_Source\PSoC5/CapSense_CSHL.c ****     #else
 220:.\Generated_Source\PSoC5/CapSense_CSHL.c ****     
 221:.\Generated_Source\PSoC5/CapSense_CSHL.c ****         if(sensor < CapSense_TOTAL_SENSOR_COUNT__CH0)
 222:.\Generated_Source\PSoC5/CapSense_CSHL.c ****         {
 223:.\Generated_Source\PSoC5/CapSense_CSHL.c ****             /* Initialize Baseline, Signal and debounce counters */ 
 224:.\Generated_Source\PSoC5/CapSense_CSHL.c ****             CapSense_BaseInit(sensor);
 225:.\Generated_Source\PSoC5/CapSense_CSHL.c ****         }
 226:.\Generated_Source\PSoC5/CapSense_CSHL.c ****         
 227:.\Generated_Source\PSoC5/CapSense_CSHL.c ****         if(sensor < CapSense_TOTAL_SENSOR_COUNT__CH1)
 228:.\Generated_Source\PSoC5/CapSense_CSHL.c ****         {
 229:.\Generated_Source\PSoC5/CapSense_CSHL.c ****             /* Initialize Baseline, Signal and debounce counters */
 230:.\Generated_Source\PSoC5/CapSense_CSHL.c ****             CapSense_BaseInit(sensor + CapSense_TOTAL_SENSOR_COUNT__CH0);
 231:.\Generated_Source\PSoC5/CapSense_CSHL.c ****         }
 232:.\Generated_Source\PSoC5/CapSense_CSHL.c ****     
 233:.\Generated_Source\PSoC5/CapSense_CSHL.c ****     #endif  /* (CapSense_DESIGN_TYPE == CapSense_ONE_CHANNEL_DESIGN) */
 234:.\Generated_Source\PSoC5/CapSense_CSHL.c **** }
 235:.\Generated_Source\PSoC5/CapSense_CSHL.c **** 
 236:.\Generated_Source\PSoC5/CapSense_CSHL.c **** 
 237:.\Generated_Source\PSoC5/CapSense_CSHL.c **** /*******************************************************************************
 238:.\Generated_Source\PSoC5/CapSense_CSHL.c **** * Function Name: CapSense_InitializeAllBaselines
 239:.\Generated_Source\PSoC5/CapSense_CSHL.c **** ********************************************************************************
 240:.\Generated_Source\PSoC5/CapSense_CSHL.c **** *
 241:.\Generated_Source\PSoC5/CapSense_CSHL.c **** * Summary:
 242:.\Generated_Source\PSoC5/CapSense_CSHL.c **** *  Uses the CapSense_InitializeSensorBaseline function to loads the 
 243:.\Generated_Source\PSoC5/CapSense_CSHL.c **** *  CapSense_sensorBaseline[] array with an initial values by scanning 
 244:.\Generated_Source\PSoC5/CapSense_CSHL.c **** *  all sensors. The raw count values are copied into the baseline array for 
 245:.\Generated_Source\PSoC5/CapSense_CSHL.c **** *  all sensors. The raw data filters are initialized if enabled.
 246:.\Generated_Source\PSoC5/CapSense_CSHL.c **** *
 247:.\Generated_Source\PSoC5/CapSense_CSHL.c **** * Parameters:
 248:.\Generated_Source\PSoC5/CapSense_CSHL.c **** *  None
 249:.\Generated_Source\PSoC5/CapSense_CSHL.c **** *
 250:.\Generated_Source\PSoC5/CapSense_CSHL.c **** * Return:
 251:.\Generated_Source\PSoC5/CapSense_CSHL.c **** *  None
 252:.\Generated_Source\PSoC5/CapSense_CSHL.c **** *
 253:.\Generated_Source\PSoC5/CapSense_CSHL.c **** * Reentrant:
 254:.\Generated_Source\PSoC5/CapSense_CSHL.c **** *  No
 255:.\Generated_Source\PSoC5/CapSense_CSHL.c **** *
 256:.\Generated_Source\PSoC5/CapSense_CSHL.c **** *******************************************************************************/
 257:.\Generated_Source\PSoC5/CapSense_CSHL.c **** void CapSense_InitializeAllBaselines(void)
 258:.\Generated_Source\PSoC5/CapSense_CSHL.c ****                           
 259:.\Generated_Source\PSoC5/CapSense_CSHL.c **** {
 128              		.loc 1 259 0
 129              		.cfi_startproc
 130              		@ args = 0, pretend = 0, frame = 0
 131              		@ frame_needed = 0, uses_anonymous_args = 0
 132 0000 10B5     		push	{r4, lr}
 133              		.cfi_def_cfa_offset 8
 134              		.cfi_offset 4, -8
 135              		.cfi_offset 14, -4
 136              	.LVL8:
 260:.\Generated_Source\PSoC5/CapSense_CSHL.c ****     uint8 i;
 261:.\Generated_Source\PSoC5/CapSense_CSHL.c ****     
 262:.\Generated_Source\PSoC5/CapSense_CSHL.c ****     /* The baseline initialize by sensor of sensor pair */
 263:.\Generated_Source\PSoC5/CapSense_CSHL.c ****     for(i = 0u; i < CapSense_TOTAL_SCANSLOT_COUNT; i++)
ARM GAS  C:\Users\lenovo\AppData\Local\Temp\ccnUwRoN.s 			page 8


 137              		.loc 1 263 0
 138 0002 0024     		movs	r4, #0
 139 0004 04E0     		b	.L10
 140              	.LVL9:
 141              	.L11:
 264:.\Generated_Source\PSoC5/CapSense_CSHL.c ****     {
 265:.\Generated_Source\PSoC5/CapSense_CSHL.c ****         CapSense_InitializeSensorBaseline(i);
 142              		.loc 1 265 0 discriminator 3
 143 0006 2046     		mov	r0, r4
 144 0008 FFF7FEFF 		bl	CapSense_InitializeSensorBaseline
 145              	.LVL10:
 263:.\Generated_Source\PSoC5/CapSense_CSHL.c ****     {
 146              		.loc 1 263 0 discriminator 3
 147 000c 0134     		adds	r4, r4, #1
 148              	.LVL11:
 149 000e E4B2     		uxtb	r4, r4
 150              	.LVL12:
 151              	.L10:
 263:.\Generated_Source\PSoC5/CapSense_CSHL.c ****     {
 152              		.loc 1 263 0 is_stmt 0 discriminator 1
 153 0010 062C     		cmp	r4, #6
 154 0012 F8D9     		bls	.L11
 266:.\Generated_Source\PSoC5/CapSense_CSHL.c ****     }
 267:.\Generated_Source\PSoC5/CapSense_CSHL.c **** }
 155              		.loc 1 267 0 is_stmt 1
 156 0014 10BD     		pop	{r4, pc}
 157              		.cfi_endproc
 158              	.LFE2:
 159              		.size	CapSense_InitializeAllBaselines, .-CapSense_InitializeAllBaselines
 160 0016 00BF     		.section	.text.CapSense_InitializeEnabledBaselines,"ax",%progbits
 161              		.align	2
 162              		.global	CapSense_InitializeEnabledBaselines
 163              		.thumb
 164              		.thumb_func
 165              		.type	CapSense_InitializeEnabledBaselines, %function
 166              	CapSense_InitializeEnabledBaselines:
 167              	.LFB3:
 268:.\Generated_Source\PSoC5/CapSense_CSHL.c **** 
 269:.\Generated_Source\PSoC5/CapSense_CSHL.c **** 
 270:.\Generated_Source\PSoC5/CapSense_CSHL.c **** /*******************************************************************************
 271:.\Generated_Source\PSoC5/CapSense_CSHL.c **** * Function Name: CapSense_InitializeEnabledBaselines
 272:.\Generated_Source\PSoC5/CapSense_CSHL.c **** ********************************************************************************
 273:.\Generated_Source\PSoC5/CapSense_CSHL.c **** *
 274:.\Generated_Source\PSoC5/CapSense_CSHL.c **** * Summary:
 275:.\Generated_Source\PSoC5/CapSense_CSHL.c **** *  Scans all enabled widgets and the raw count values are copied into the 
 276:.\Generated_Source\PSoC5/CapSense_CSHL.c **** *  baseline array for all sensors enabled in scanning process. Baselines 
 277:.\Generated_Source\PSoC5/CapSense_CSHL.c **** *  initialize with zero values for sensors disabled from scanning process. 
 278:.\Generated_Source\PSoC5/CapSense_CSHL.c **** *  The raw data filters are initialized if enabled.
 279:.\Generated_Source\PSoC5/CapSense_CSHL.c **** *
 280:.\Generated_Source\PSoC5/CapSense_CSHL.c **** * Parameters:
 281:.\Generated_Source\PSoC5/CapSense_CSHL.c **** *  None
 282:.\Generated_Source\PSoC5/CapSense_CSHL.c **** *
 283:.\Generated_Source\PSoC5/CapSense_CSHL.c **** * Return:
 284:.\Generated_Source\PSoC5/CapSense_CSHL.c **** *  None
 285:.\Generated_Source\PSoC5/CapSense_CSHL.c **** *
 286:.\Generated_Source\PSoC5/CapSense_CSHL.c **** * Reentrant:
 287:.\Generated_Source\PSoC5/CapSense_CSHL.c **** *  No
ARM GAS  C:\Users\lenovo\AppData\Local\Temp\ccnUwRoN.s 			page 9


 288:.\Generated_Source\PSoC5/CapSense_CSHL.c **** *
 289:.\Generated_Source\PSoC5/CapSense_CSHL.c **** *******************************************************************************/
 290:.\Generated_Source\PSoC5/CapSense_CSHL.c **** void CapSense_InitializeEnabledBaselines(void)
 291:.\Generated_Source\PSoC5/CapSense_CSHL.c ****                              
 292:.\Generated_Source\PSoC5/CapSense_CSHL.c **** {
 168              		.loc 1 292 0
 169              		.cfi_startproc
 170              		@ args = 0, pretend = 0, frame = 0
 171              		@ frame_needed = 0, uses_anonymous_args = 0
 172 0000 10B5     		push	{r4, lr}
 173              		.cfi_def_cfa_offset 8
 174              		.cfi_offset 4, -8
 175              		.cfi_offset 14, -4
 293:.\Generated_Source\PSoC5/CapSense_CSHL.c ****     uint8 i;
 294:.\Generated_Source\PSoC5/CapSense_CSHL.c ****     uint8 pos;
 295:.\Generated_Source\PSoC5/CapSense_CSHL.c ****     uint8 enMask;
 296:.\Generated_Source\PSoC5/CapSense_CSHL.c ****     
 297:.\Generated_Source\PSoC5/CapSense_CSHL.c ****     CapSense_ScanEnabledWidgets();
 176              		.loc 1 297 0
 177 0002 FFF7FEFF 		bl	CapSense_ScanEnabledWidgets
 178              	.LVL13:
 179              	.L14:
 298:.\Generated_Source\PSoC5/CapSense_CSHL.c ****     while(CapSense_IsBusy() != 0u)
 180              		.loc 1 298 0 discriminator 1
 181 0006 FFF7FEFF 		bl	CapSense_IsBusy
 182              	.LVL14:
 183 000a 0028     		cmp	r0, #0
 184 000c FBD1     		bne	.L14
 185 000e 0024     		movs	r4, #0
 186 0010 11E0     		b	.L15
 187              	.LVL15:
 188              	.L17:
 299:.\Generated_Source\PSoC5/CapSense_CSHL.c ****     {
 300:.\Generated_Source\PSoC5/CapSense_CSHL.c ****         /* Wait while busy */
 301:.\Generated_Source\PSoC5/CapSense_CSHL.c ****     }
 302:.\Generated_Source\PSoC5/CapSense_CSHL.c ****     
 303:.\Generated_Source\PSoC5/CapSense_CSHL.c ****     for(i = 0u; i < CapSense_TOTAL_SENSOR_COUNT; i++)
 304:.\Generated_Source\PSoC5/CapSense_CSHL.c ****     {
 305:.\Generated_Source\PSoC5/CapSense_CSHL.c ****         pos = (i >> 3u);
 189              		.loc 1 305 0
 190 0012 E208     		lsrs	r2, r4, #3
 306:.\Generated_Source\PSoC5/CapSense_CSHL.c ****         enMask = 0x01u << (i & 0x07u);
 191              		.loc 1 306 0
 192 0014 04F00701 		and	r1, r4, #7
 193 0018 0123     		movs	r3, #1
 194 001a 8B40     		lsls	r3, r3, r1
 195              	.LVL16:
 307:.\Generated_Source\PSoC5/CapSense_CSHL.c ****         
 308:.\Generated_Source\PSoC5/CapSense_CSHL.c ****         /* Clear raw data if sensor is disabled from scanning process */
 309:.\Generated_Source\PSoC5/CapSense_CSHL.c ****         if((CapSense_sensorEnableMask[pos] & enMask) == 0u)
 196              		.loc 1 309 0
 197 001c 0749     		ldr	r1, .L19
 198 001e 8A5C     		ldrb	r2, [r1, r2]	@ zero_extendqisi2
 199 0020 1342     		tst	r3, r2
 200 0022 03D1     		bne	.L16
 310:.\Generated_Source\PSoC5/CapSense_CSHL.c ****         {
 311:.\Generated_Source\PSoC5/CapSense_CSHL.c ****             CapSense_sensorRaw[i] = 0u;
ARM GAS  C:\Users\lenovo\AppData\Local\Temp\ccnUwRoN.s 			page 10


 201              		.loc 1 311 0
 202 0024 0022     		movs	r2, #0
 203 0026 064B     		ldr	r3, .L19+4
 204              	.LVL17:
 205 0028 23F81420 		strh	r2, [r3, r4, lsl #1]	@ movhi
 206              	.L16:
 312:.\Generated_Source\PSoC5/CapSense_CSHL.c ****         }
 313:.\Generated_Source\PSoC5/CapSense_CSHL.c ****         
 314:.\Generated_Source\PSoC5/CapSense_CSHL.c ****         /* Initialize baselines */
 315:.\Generated_Source\PSoC5/CapSense_CSHL.c ****         CapSense_BaseInit(i);
 207              		.loc 1 315 0 discriminator 2
 208 002c 2046     		mov	r0, r4
 209 002e FFF7FEFF 		bl	CapSense_BaseInit
 210              	.LVL18:
 303:.\Generated_Source\PSoC5/CapSense_CSHL.c ****     {
 211              		.loc 1 303 0 discriminator 2
 212 0032 0134     		adds	r4, r4, #1
 213              	.LVL19:
 214 0034 E4B2     		uxtb	r4, r4
 215              	.LVL20:
 216              	.L15:
 303:.\Generated_Source\PSoC5/CapSense_CSHL.c ****     {
 217              		.loc 1 303 0 is_stmt 0 discriminator 1
 218 0036 062C     		cmp	r4, #6
 219 0038 EBD9     		bls	.L17
 316:.\Generated_Source\PSoC5/CapSense_CSHL.c ****     }
 317:.\Generated_Source\PSoC5/CapSense_CSHL.c **** }  
 220              		.loc 1 317 0 is_stmt 1
 221 003a 10BD     		pop	{r4, pc}
 222              	.LVL21:
 223              	.L20:
 224              		.align	2
 225              	.L19:
 226 003c 00000000 		.word	CapSense_sensorEnableMask
 227 0040 00000000 		.word	CapSense_sensorRaw
 228              		.cfi_endproc
 229              	.LFE3:
 230              		.size	CapSense_InitializeEnabledBaselines, .-CapSense_InitializeEnabledBaselines
 231              		.section	.text.CapSense_CheckIsSensorActive,"ax",%progbits
 232              		.align	2
 233              		.global	CapSense_CheckIsSensorActive
 234              		.thumb
 235              		.thumb_func
 236              		.type	CapSense_CheckIsSensorActive, %function
 237              	CapSense_CheckIsSensorActive:
 238              	.LFB6:
 318:.\Generated_Source\PSoC5/CapSense_CSHL.c **** 
 319:.\Generated_Source\PSoC5/CapSense_CSHL.c **** 
 320:.\Generated_Source\PSoC5/CapSense_CSHL.c **** /*******************************************************************************
 321:.\Generated_Source\PSoC5/CapSense_CSHL.c **** * Function Name: CapSense_UpdateSensorBaseline
 322:.\Generated_Source\PSoC5/CapSense_CSHL.c **** ********************************************************************************
 323:.\Generated_Source\PSoC5/CapSense_CSHL.c **** *
 324:.\Generated_Source\PSoC5/CapSense_CSHL.c **** * Summary:
 325:.\Generated_Source\PSoC5/CapSense_CSHL.c **** *  Updates the CapSense_sensorBaseline[sensor] array element using the 
 326:.\Generated_Source\PSoC5/CapSense_CSHL.c **** *  LP filter with k = 256. The signal calculates the difference of count by 
 327:.\Generated_Source\PSoC5/CapSense_CSHL.c **** *  subtracting the previous baseline from the current raw count value and stores
 328:.\Generated_Source\PSoC5/CapSense_CSHL.c **** *  it in CapSense_SensorSignal[sensor]. 
ARM GAS  C:\Users\lenovo\AppData\Local\Temp\ccnUwRoN.s 			page 11


 329:.\Generated_Source\PSoC5/CapSense_CSHL.c **** *  If auto reset option is enabled the baseline updated regards noise threshold. 
 330:.\Generated_Source\PSoC5/CapSense_CSHL.c **** *  If auto reset option is disabled the baseline stops updating if signal is 
 331:.\Generated_Source\PSoC5/CapSense_CSHL.c **** *  greater that zero and baseline loads with raw count value if signal is less 
 332:.\Generated_Source\PSoC5/CapSense_CSHL.c **** *  that noise threshold.
 333:.\Generated_Source\PSoC5/CapSense_CSHL.c **** *  Raw data filters are applied to the values if enabled before baseline 
 334:.\Generated_Source\PSoC5/CapSense_CSHL.c **** *  calculation.
 335:.\Generated_Source\PSoC5/CapSense_CSHL.c **** *
 336:.\Generated_Source\PSoC5/CapSense_CSHL.c **** * Parameters:
 337:.\Generated_Source\PSoC5/CapSense_CSHL.c **** *  sensor:  Sensor number.
 338:.\Generated_Source\PSoC5/CapSense_CSHL.c **** *
 339:.\Generated_Source\PSoC5/CapSense_CSHL.c **** * Return:
 340:.\Generated_Source\PSoC5/CapSense_CSHL.c **** *  None
 341:.\Generated_Source\PSoC5/CapSense_CSHL.c **** *
 342:.\Generated_Source\PSoC5/CapSense_CSHL.c **** * Global Variables:
 343:.\Generated_Source\PSoC5/CapSense_CSHL.c **** *  CapSense_sensorBaseline[]    - used to store baseline value.
 344:.\Generated_Source\PSoC5/CapSense_CSHL.c **** *  CapSense_sensorBaselineLow[] - used to store fraction byte of 
 345:.\Generated_Source\PSoC5/CapSense_CSHL.c **** *  baseline value.
 346:.\Generated_Source\PSoC5/CapSense_CSHL.c **** *  CapSense_sensorSignal[]      - used to store diffence between 
 347:.\Generated_Source\PSoC5/CapSense_CSHL.c **** *  current value of raw data and previous value of baseline.
 348:.\Generated_Source\PSoC5/CapSense_CSHL.c **** *  CapSense_rawFilterData1[]    - used to store previous sample of 
 349:.\Generated_Source\PSoC5/CapSense_CSHL.c **** *  any enabled raw data filter.
 350:.\Generated_Source\PSoC5/CapSense_CSHL.c **** *  CapSense_rawFilterData2[]    - used to store before previous sample
 351:.\Generated_Source\PSoC5/CapSense_CSHL.c **** *  of enabled raw data filter. Only required for median or average filters.
 352:.\Generated_Source\PSoC5/CapSense_CSHL.c **** *
 353:.\Generated_Source\PSoC5/CapSense_CSHL.c **** * Reentrant:
 354:.\Generated_Source\PSoC5/CapSense_CSHL.c **** *  No
 355:.\Generated_Source\PSoC5/CapSense_CSHL.c **** *
 356:.\Generated_Source\PSoC5/CapSense_CSHL.c **** *******************************************************************************/
 357:.\Generated_Source\PSoC5/CapSense_CSHL.c ****  void CapSense_UpdateSensorBaseline(uint8 sensor)
 358:.\Generated_Source\PSoC5/CapSense_CSHL.c ****                                  
 359:.\Generated_Source\PSoC5/CapSense_CSHL.c **** {
 360:.\Generated_Source\PSoC5/CapSense_CSHL.c ****     uint32 calc;
 361:.\Generated_Source\PSoC5/CapSense_CSHL.c ****     uint16 tempRaw;
 362:.\Generated_Source\PSoC5/CapSense_CSHL.c ****     uint16 filteredRawData;
 363:.\Generated_Source\PSoC5/CapSense_CSHL.c ****     uint8 widget = CapSense_widgetNumber[sensor];
 364:.\Generated_Source\PSoC5/CapSense_CSHL.c ****     uint8 noiseThreshold = CapSense_noiseThreshold[widget];
 365:.\Generated_Source\PSoC5/CapSense_CSHL.c ****     
 366:.\Generated_Source\PSoC5/CapSense_CSHL.c ****     #if (CapSense_TOTAL_GENERICS_COUNT)
 367:.\Generated_Source\PSoC5/CapSense_CSHL.c ****         /* Exclude generic widget */
 368:.\Generated_Source\PSoC5/CapSense_CSHL.c ****         if(widget < CapSense_END_OF_WIDGETS_INDEX)
 369:.\Generated_Source\PSoC5/CapSense_CSHL.c ****         {
 370:.\Generated_Source\PSoC5/CapSense_CSHL.c ****     #endif  /* CapSense_TOTAL_GENERICS_COUNT */
 371:.\Generated_Source\PSoC5/CapSense_CSHL.c ****     
 372:.\Generated_Source\PSoC5/CapSense_CSHL.c ****     filteredRawData = CapSense_sensorRaw[sensor];
 373:.\Generated_Source\PSoC5/CapSense_CSHL.c ****     
 374:.\Generated_Source\PSoC5/CapSense_CSHL.c ****     #if (CapSense_RAW_FILTER_MASK & CapSense_MEDIAN_FILTER)
 375:.\Generated_Source\PSoC5/CapSense_CSHL.c ****         tempRaw = filteredRawData;
 376:.\Generated_Source\PSoC5/CapSense_CSHL.c ****         filteredRawData = CapSense_MedianFilter(filteredRawData, CapSense_rawFilterData1[sensor], 
 377:.\Generated_Source\PSoC5/CapSense_CSHL.c ****                                                         CapSense_rawFilterData2[sensor]);
 378:.\Generated_Source\PSoC5/CapSense_CSHL.c ****         CapSense_rawFilterData2[sensor] = CapSense_rawFilterData1[sensor];
 379:.\Generated_Source\PSoC5/CapSense_CSHL.c ****         CapSense_rawFilterData1[sensor] = tempRaw;
 380:.\Generated_Source\PSoC5/CapSense_CSHL.c ****         
 381:.\Generated_Source\PSoC5/CapSense_CSHL.c ****     #elif (CapSense_RAW_FILTER_MASK & CapSense_AVERAGING_FILTER)
 382:.\Generated_Source\PSoC5/CapSense_CSHL.c ****         tempRaw = filteredRawData;
 383:.\Generated_Source\PSoC5/CapSense_CSHL.c ****         filteredRawData = CapSense_AveragingFilter(filteredRawData, CapSense_rawFilterData1[sensor]
 384:.\Generated_Source\PSoC5/CapSense_CSHL.c ****                                                            CapSense_rawFilterData2[sensor]);
 385:.\Generated_Source\PSoC5/CapSense_CSHL.c ****         CapSense_rawFilterData2[sensor] = CapSense_rawFilterData1[sensor];
ARM GAS  C:\Users\lenovo\AppData\Local\Temp\ccnUwRoN.s 			page 12


 386:.\Generated_Source\PSoC5/CapSense_CSHL.c ****         CapSense_rawFilterData1[sensor] = tempRaw;
 387:.\Generated_Source\PSoC5/CapSense_CSHL.c ****         
 388:.\Generated_Source\PSoC5/CapSense_CSHL.c ****     #elif (CapSense_RAW_FILTER_MASK & CapSense_IIR2_FILTER)
 389:.\Generated_Source\PSoC5/CapSense_CSHL.c ****         filteredRawData = CapSense_IIR2Filter(filteredRawData, CapSense_rawFilterData1[sensor]);
 390:.\Generated_Source\PSoC5/CapSense_CSHL.c ****         CapSense_rawFilterData1[sensor] = filteredRawData;
 391:.\Generated_Source\PSoC5/CapSense_CSHL.c ****         
 392:.\Generated_Source\PSoC5/CapSense_CSHL.c ****     #elif (CapSense_RAW_FILTER_MASK & CapSense_IIR4_FILTER)
 393:.\Generated_Source\PSoC5/CapSense_CSHL.c ****         filteredRawData = CapSense_IIR4Filter(filteredRawData, CapSense_rawFilterData1[sensor]);
 394:.\Generated_Source\PSoC5/CapSense_CSHL.c ****         CapSense_rawFilterData1[sensor] = filteredRawData;
 395:.\Generated_Source\PSoC5/CapSense_CSHL.c ****             
 396:.\Generated_Source\PSoC5/CapSense_CSHL.c ****     #elif (CapSense_RAW_FILTER_MASK & CapSense_JITTER_FILTER)
 397:.\Generated_Source\PSoC5/CapSense_CSHL.c ****         filteredRawData = CapSense_JitterFilter(filteredRawData, CapSense_rawFilterData1[sensor]);
 398:.\Generated_Source\PSoC5/CapSense_CSHL.c ****         CapSense_rawFilterData1[sensor] = filteredRawData;
 399:.\Generated_Source\PSoC5/CapSense_CSHL.c ****         
 400:.\Generated_Source\PSoC5/CapSense_CSHL.c ****     #elif (CapSense_RAW_FILTER_MASK & CapSense_IIR8_FILTER)
 401:.\Generated_Source\PSoC5/CapSense_CSHL.c ****         filteredRawData = CapSense_IIR8Filter(filteredRawData, CapSense_rawFilterData1[sensor]);
 402:.\Generated_Source\PSoC5/CapSense_CSHL.c ****         CapSense_rawFilterData1[sensor] = filteredRawData;
 403:.\Generated_Source\PSoC5/CapSense_CSHL.c ****         
 404:.\Generated_Source\PSoC5/CapSense_CSHL.c ****     #elif (CapSense_RAW_FILTER_MASK & CapSense_IIR16_FILTER)
 405:.\Generated_Source\PSoC5/CapSense_CSHL.c ****         filteredRawData = CapSense_IIR16Filter(filteredRawData, CapSense_rawFilterData1[sensor]);
 406:.\Generated_Source\PSoC5/CapSense_CSHL.c ****         CapSense_rawFilterData1[sensor] = filteredRawData;
 407:.\Generated_Source\PSoC5/CapSense_CSHL.c ****         
 408:.\Generated_Source\PSoC5/CapSense_CSHL.c ****     #else
 409:.\Generated_Source\PSoC5/CapSense_CSHL.c ****         /* No Raw filters */
 410:.\Generated_Source\PSoC5/CapSense_CSHL.c ****     #endif  /* (CapSense_RAW_FILTER_MASK & CapSense_MEDIAN_FILTER) */
 411:.\Generated_Source\PSoC5/CapSense_CSHL.c ****     
 412:.\Generated_Source\PSoC5/CapSense_CSHL.c ****     #if (CapSense_TUNING_METHOD == CapSense_AUTO_TUNING)
 413:.\Generated_Source\PSoC5/CapSense_CSHL.c ****         CapSense_CalculateThresholds(sensor);
 414:.\Generated_Source\PSoC5/CapSense_CSHL.c ****     #endif /* (CapSense_TUNING_METHOD == CapSense_AUTO_TUNING) */
 415:.\Generated_Source\PSoC5/CapSense_CSHL.c **** 
 416:.\Generated_Source\PSoC5/CapSense_CSHL.c **** 
 417:.\Generated_Source\PSoC5/CapSense_CSHL.c ****     /* Baseline calculation */
 418:.\Generated_Source\PSoC5/CapSense_CSHL.c ****     /* Calculate difference RawData[cur] - Baseline[prev] */
 419:.\Generated_Source\PSoC5/CapSense_CSHL.c ****     if(filteredRawData >= CapSense_sensorBaseline[sensor])
 420:.\Generated_Source\PSoC5/CapSense_CSHL.c ****     {
 421:.\Generated_Source\PSoC5/CapSense_CSHL.c ****         tempRaw = filteredRawData - CapSense_sensorBaseline[sensor];
 422:.\Generated_Source\PSoC5/CapSense_CSHL.c ****         widget = 1u;    /* Positive difference - Calculate the Signal */
 423:.\Generated_Source\PSoC5/CapSense_CSHL.c ****     }
 424:.\Generated_Source\PSoC5/CapSense_CSHL.c ****     else
 425:.\Generated_Source\PSoC5/CapSense_CSHL.c ****     {
 426:.\Generated_Source\PSoC5/CapSense_CSHL.c ****         tempRaw = CapSense_sensorBaseline[sensor] - filteredRawData;
 427:.\Generated_Source\PSoC5/CapSense_CSHL.c ****         widget = 0u;    /* Negative difference - Do NOT calculate the Signal */
 428:.\Generated_Source\PSoC5/CapSense_CSHL.c ****     }
 429:.\Generated_Source\PSoC5/CapSense_CSHL.c **** 
 430:.\Generated_Source\PSoC5/CapSense_CSHL.c ****     if((widget == 0u) && (tempRaw > (uint16) CapSense_NEGATIVE_NOISE_THRESHOLD))
 431:.\Generated_Source\PSoC5/CapSense_CSHL.c ****     {
 432:.\Generated_Source\PSoC5/CapSense_CSHL.c ****         if(CapSense_lowBaselineResetCnt[sensor] >= CapSense_LOW_BASELINE_RESET)
 433:.\Generated_Source\PSoC5/CapSense_CSHL.c ****         {
 434:.\Generated_Source\PSoC5/CapSense_CSHL.c ****             CapSense_BaseInit(sensor);
 435:.\Generated_Source\PSoC5/CapSense_CSHL.c ****             CapSense_lowBaselineResetCnt[sensor] = 0u;
 436:.\Generated_Source\PSoC5/CapSense_CSHL.c ****         }
 437:.\Generated_Source\PSoC5/CapSense_CSHL.c ****         else
 438:.\Generated_Source\PSoC5/CapSense_CSHL.c ****         {
 439:.\Generated_Source\PSoC5/CapSense_CSHL.c ****             CapSense_lowBaselineResetCnt[sensor]++;
 440:.\Generated_Source\PSoC5/CapSense_CSHL.c ****         }
 441:.\Generated_Source\PSoC5/CapSense_CSHL.c ****     }
 442:.\Generated_Source\PSoC5/CapSense_CSHL.c ****     else
ARM GAS  C:\Users\lenovo\AppData\Local\Temp\ccnUwRoN.s 			page 13


 443:.\Generated_Source\PSoC5/CapSense_CSHL.c ****     {
 444:.\Generated_Source\PSoC5/CapSense_CSHL.c ****         #if (CapSense_AUTO_RESET == CapSense_AUTO_RESET_DISABLE)
 445:.\Generated_Source\PSoC5/CapSense_CSHL.c ****             /* Update Baseline if lower that noiseThreshold */
 446:.\Generated_Source\PSoC5/CapSense_CSHL.c ****             if ( (tempRaw <= (uint16) noiseThreshold) || 
 447:.\Generated_Source\PSoC5/CapSense_CSHL.c ****                  ((tempRaw < (uint16) CapSense_NEGATIVE_NOISE_THRESHOLD)
 448:.\Generated_Source\PSoC5/CapSense_CSHL.c ****                    && (widget == 0u)))
 449:.\Generated_Source\PSoC5/CapSense_CSHL.c ****             {
 450:.\Generated_Source\PSoC5/CapSense_CSHL.c ****         #endif /* (CapSense_AUTO_RESET == CapSense_AUTO_RESET_DISABLE) */
 451:.\Generated_Source\PSoC5/CapSense_CSHL.c ****                 /* Make full Baseline 23 bits */
 452:.\Generated_Source\PSoC5/CapSense_CSHL.c ****                 calc = (uint32) CapSense_sensorBaseline[sensor] << 8u;
 453:.\Generated_Source\PSoC5/CapSense_CSHL.c ****                 calc |= (uint32) CapSense_sensorBaselineLow[sensor];
 454:.\Generated_Source\PSoC5/CapSense_CSHL.c **** 
 455:.\Generated_Source\PSoC5/CapSense_CSHL.c ****                 /* Add Raw Data to Baseline */
 456:.\Generated_Source\PSoC5/CapSense_CSHL.c ****                 calc += filteredRawData;
 457:.\Generated_Source\PSoC5/CapSense_CSHL.c **** 
 458:.\Generated_Source\PSoC5/CapSense_CSHL.c ****                 /* Sub the high Baseline */
 459:.\Generated_Source\PSoC5/CapSense_CSHL.c ****                 calc -= CapSense_sensorBaseline[sensor];
 460:.\Generated_Source\PSoC5/CapSense_CSHL.c **** 
 461:.\Generated_Source\PSoC5/CapSense_CSHL.c ****                 /* Put Baseline and BaselineLow */
 462:.\Generated_Source\PSoC5/CapSense_CSHL.c ****                 CapSense_sensorBaseline[sensor] = ((uint16) (calc >> 8u));
 463:.\Generated_Source\PSoC5/CapSense_CSHL.c ****                 CapSense_sensorBaselineLow[sensor] = ((uint8) calc);
 464:.\Generated_Source\PSoC5/CapSense_CSHL.c **** 
 465:.\Generated_Source\PSoC5/CapSense_CSHL.c ****                 CapSense_lowBaselineResetCnt[sensor] = 0u;
 466:.\Generated_Source\PSoC5/CapSense_CSHL.c ****         #if (CapSense_AUTO_RESET == CapSense_AUTO_RESET_DISABLE)
 467:.\Generated_Source\PSoC5/CapSense_CSHL.c ****             }
 468:.\Generated_Source\PSoC5/CapSense_CSHL.c ****         #endif /* (CapSense_AUTO_RESET == CapSense_AUTO_RESET_DISABLE) */
 469:.\Generated_Source\PSoC5/CapSense_CSHL.c ****     }
 470:.\Generated_Source\PSoC5/CapSense_CSHL.c **** 
 471:.\Generated_Source\PSoC5/CapSense_CSHL.c ****     /* Calculate Signal if possitive difference > noiseThreshold */
 472:.\Generated_Source\PSoC5/CapSense_CSHL.c ****     if((tempRaw > (uint16) noiseThreshold) && (widget != 0u))
 473:.\Generated_Source\PSoC5/CapSense_CSHL.c ****     {
 474:.\Generated_Source\PSoC5/CapSense_CSHL.c ****         #if (CapSense_SIGNAL_SIZE == CapSense_SIGNAL_SIZE_UINT8)
 475:.\Generated_Source\PSoC5/CapSense_CSHL.c ****             /* Over flow defence for uint8 */
 476:.\Generated_Source\PSoC5/CapSense_CSHL.c ****             if (tempRaw > 0xFFu)
 477:.\Generated_Source\PSoC5/CapSense_CSHL.c ****             {
 478:.\Generated_Source\PSoC5/CapSense_CSHL.c ****                 CapSense_sensorSignal[sensor] = 0xFFu;
 479:.\Generated_Source\PSoC5/CapSense_CSHL.c ****             }    
 480:.\Generated_Source\PSoC5/CapSense_CSHL.c ****             else 
 481:.\Generated_Source\PSoC5/CapSense_CSHL.c ****             {
 482:.\Generated_Source\PSoC5/CapSense_CSHL.c ****                 CapSense_sensorSignal[sensor] = ((uint8) tempRaw);
 483:.\Generated_Source\PSoC5/CapSense_CSHL.c ****             }
 484:.\Generated_Source\PSoC5/CapSense_CSHL.c ****         #else
 485:.\Generated_Source\PSoC5/CapSense_CSHL.c ****             CapSense_sensorSignal[sensor] = ((uint16) tempRaw);
 486:.\Generated_Source\PSoC5/CapSense_CSHL.c ****         #endif  /* (CapSense_SIGNAL_SIZE == CapSense_SIGNAL_SIZE_UINT8) */
 487:.\Generated_Source\PSoC5/CapSense_CSHL.c ****     }
 488:.\Generated_Source\PSoC5/CapSense_CSHL.c ****     else
 489:.\Generated_Source\PSoC5/CapSense_CSHL.c ****     {
 490:.\Generated_Source\PSoC5/CapSense_CSHL.c ****         /* Signal is zero */
 491:.\Generated_Source\PSoC5/CapSense_CSHL.c ****         CapSense_sensorSignal[sensor] = 0u;
 492:.\Generated_Source\PSoC5/CapSense_CSHL.c ****     }
 493:.\Generated_Source\PSoC5/CapSense_CSHL.c **** 
 494:.\Generated_Source\PSoC5/CapSense_CSHL.c ****     #if (CapSense_TOTAL_GENERICS_COUNT)
 495:.\Generated_Source\PSoC5/CapSense_CSHL.c ****         /* Exclude generic widget */
 496:.\Generated_Source\PSoC5/CapSense_CSHL.c ****         }
 497:.\Generated_Source\PSoC5/CapSense_CSHL.c ****     #endif  /* CapSense_TOTAL_GENERICS_COUNT */
 498:.\Generated_Source\PSoC5/CapSense_CSHL.c **** }
 499:.\Generated_Source\PSoC5/CapSense_CSHL.c **** 
ARM GAS  C:\Users\lenovo\AppData\Local\Temp\ccnUwRoN.s 			page 14


 500:.\Generated_Source\PSoC5/CapSense_CSHL.c **** 
 501:.\Generated_Source\PSoC5/CapSense_CSHL.c **** /*******************************************************************************
 502:.\Generated_Source\PSoC5/CapSense_CSHL.c **** * Function Name: CapSense_UpdateEnabledBaselines
 503:.\Generated_Source\PSoC5/CapSense_CSHL.c **** ********************************************************************************
 504:.\Generated_Source\PSoC5/CapSense_CSHL.c **** *
 505:.\Generated_Source\PSoC5/CapSense_CSHL.c **** * Summary:
 506:.\Generated_Source\PSoC5/CapSense_CSHL.c **** *  Checks CapSense_sensorEnableMask[] array and calls the 
 507:.\Generated_Source\PSoC5/CapSense_CSHL.c **** *  CapSense_UpdateSensorBaseline function to update the baselines 
 508:.\Generated_Source\PSoC5/CapSense_CSHL.c **** *  for enabled sensors.
 509:.\Generated_Source\PSoC5/CapSense_CSHL.c **** *
 510:.\Generated_Source\PSoC5/CapSense_CSHL.c **** * Parameters:
 511:.\Generated_Source\PSoC5/CapSense_CSHL.c **** *  None
 512:.\Generated_Source\PSoC5/CapSense_CSHL.c **** *
 513:.\Generated_Source\PSoC5/CapSense_CSHL.c **** * Return:
 514:.\Generated_Source\PSoC5/CapSense_CSHL.c **** *  None
 515:.\Generated_Source\PSoC5/CapSense_CSHL.c **** *
 516:.\Generated_Source\PSoC5/CapSense_CSHL.c **** * Global Variables:
 517:.\Generated_Source\PSoC5/CapSense_CSHL.c **** *  CapSense_sensorEnableMask[] - used to store the sensor scanning 
 518:.\Generated_Source\PSoC5/CapSense_CSHL.c **** *  state.
 519:.\Generated_Source\PSoC5/CapSense_CSHL.c **** *  CapSense_sensorEnableMask[0] contains the masked bits for sensors 
 520:.\Generated_Source\PSoC5/CapSense_CSHL.c **** *   0 through 7 (sensor 0 is bit 0, sensor 1 is bit 1).
 521:.\Generated_Source\PSoC5/CapSense_CSHL.c **** *  CapSense_sensorEnableMask[1] contains the masked bits for 
 522:.\Generated_Source\PSoC5/CapSense_CSHL.c **** *  sensors 8 through 15 (if needed), and so on.
 523:.\Generated_Source\PSoC5/CapSense_CSHL.c **** *  0 - sensor doesn't scan by CapSense_ScanEnabledWidgets().
 524:.\Generated_Source\PSoC5/CapSense_CSHL.c **** *  1 - sensor scans by CapSense_ScanEnabledWidgets().
 525:.\Generated_Source\PSoC5/CapSense_CSHL.c **** *
 526:.\Generated_Source\PSoC5/CapSense_CSHL.c **** * Reentrant:
 527:.\Generated_Source\PSoC5/CapSense_CSHL.c **** *  No
 528:.\Generated_Source\PSoC5/CapSense_CSHL.c **** *
 529:.\Generated_Source\PSoC5/CapSense_CSHL.c **** *******************************************************************************/
 530:.\Generated_Source\PSoC5/CapSense_CSHL.c ****  void CapSense_UpdateEnabledBaselines(void)
 531:.\Generated_Source\PSoC5/CapSense_CSHL.c ****                                  
 532:.\Generated_Source\PSoC5/CapSense_CSHL.c **** {
 533:.\Generated_Source\PSoC5/CapSense_CSHL.c ****     uint8 i;
 534:.\Generated_Source\PSoC5/CapSense_CSHL.c ****     uint8 pos;
 535:.\Generated_Source\PSoC5/CapSense_CSHL.c ****     uint8 enMask;
 536:.\Generated_Source\PSoC5/CapSense_CSHL.c ****     
 537:.\Generated_Source\PSoC5/CapSense_CSHL.c ****     for(i = 0u; i < CapSense_TOTAL_SENSOR_COUNT; i++)
 538:.\Generated_Source\PSoC5/CapSense_CSHL.c ****     {
 539:.\Generated_Source\PSoC5/CapSense_CSHL.c ****         pos = (i >> 3u);
 540:.\Generated_Source\PSoC5/CapSense_CSHL.c ****         enMask = (uint8)(0x01u << (i & 0x07u));
 541:.\Generated_Source\PSoC5/CapSense_CSHL.c ****         if((CapSense_sensorEnableMask[pos] & enMask) != 0u)
 542:.\Generated_Source\PSoC5/CapSense_CSHL.c ****         {
 543:.\Generated_Source\PSoC5/CapSense_CSHL.c ****             CapSense_UpdateSensorBaseline(i);
 544:.\Generated_Source\PSoC5/CapSense_CSHL.c ****         }
 545:.\Generated_Source\PSoC5/CapSense_CSHL.c ****     }
 546:.\Generated_Source\PSoC5/CapSense_CSHL.c **** }
 547:.\Generated_Source\PSoC5/CapSense_CSHL.c **** 
 548:.\Generated_Source\PSoC5/CapSense_CSHL.c **** 
 549:.\Generated_Source\PSoC5/CapSense_CSHL.c **** /*******************************************************************************
 550:.\Generated_Source\PSoC5/CapSense_CSHL.c **** * Function Name: CapSense_CheckIsSensorActive
 551:.\Generated_Source\PSoC5/CapSense_CSHL.c **** ********************************************************************************
 552:.\Generated_Source\PSoC5/CapSense_CSHL.c **** *
 553:.\Generated_Source\PSoC5/CapSense_CSHL.c **** * Summary:
 554:.\Generated_Source\PSoC5/CapSense_CSHL.c **** *  Compares the CapSense_SensorSignal[sensor] array element to finger
 555:.\Generated_Source\PSoC5/CapSense_CSHL.c **** *  threshold of widget it belongs to. The hysteresis and debounce are taken into 
 556:.\Generated_Source\PSoC5/CapSense_CSHL.c **** *  account. The hysteresis is added or subtracted from the finger threshold 
ARM GAS  C:\Users\lenovo\AppData\Local\Temp\ccnUwRoN.s 			page 15


 557:.\Generated_Source\PSoC5/CapSense_CSHL.c **** *  based on whether the sensor is currently active. 
 558:.\Generated_Source\PSoC5/CapSense_CSHL.c **** *  If the sensor is active, the threshold is lowered by the hysteresis amount.
 559:.\Generated_Source\PSoC5/CapSense_CSHL.c **** *  If the sensor is inactive, the threshold is raised by the hysteresis amount.
 560:.\Generated_Source\PSoC5/CapSense_CSHL.c **** *  The debounce counter added to the sensor active transition.
 561:.\Generated_Source\PSoC5/CapSense_CSHL.c **** *  This function updates CapSense_SensorOnMask[] array element.
 562:.\Generated_Source\PSoC5/CapSense_CSHL.c **** *
 563:.\Generated_Source\PSoC5/CapSense_CSHL.c **** * Parameters:
 564:.\Generated_Source\PSoC5/CapSense_CSHL.c **** *  sensor:  Sensor number.
 565:.\Generated_Source\PSoC5/CapSense_CSHL.c **** *
 566:.\Generated_Source\PSoC5/CapSense_CSHL.c **** * Return:
 567:.\Generated_Source\PSoC5/CapSense_CSHL.c **** *  Returns sensor state 1 if active, 0 if not active.
 568:.\Generated_Source\PSoC5/CapSense_CSHL.c **** *
 569:.\Generated_Source\PSoC5/CapSense_CSHL.c **** * Global Variables:
 570:.\Generated_Source\PSoC5/CapSense_CSHL.c **** *  CapSense_sensorSignal[]      - used to store diffence between 
 571:.\Generated_Source\PSoC5/CapSense_CSHL.c **** *  current value of raw data and previous value of baseline.
 572:.\Generated_Source\PSoC5/CapSense_CSHL.c **** *  CapSense_debounceCounter[]   - used to store current debounce 
 573:.\Generated_Source\PSoC5/CapSense_CSHL.c **** *  counter of sensor. Widget which has this parameter are buttons, matrix 
 574:.\Generated_Source\PSoC5/CapSense_CSHL.c **** *  buttons, proximity, guard. All other widgets haven't debounce parameter
 575:.\Generated_Source\PSoC5/CapSense_CSHL.c **** *  and use the last element of this array with value 0 (it means no debounce).
 576:.\Generated_Source\PSoC5/CapSense_CSHL.c **** *  CapSense_sensorOnMask[] - used to store sensors on/off state.
 577:.\Generated_Source\PSoC5/CapSense_CSHL.c **** *  CapSense_sensorOnMask[0] contains the masked bits for sensors 
 578:.\Generated_Source\PSoC5/CapSense_CSHL.c **** *   0 through 7 (sensor 0 is bit 0, sensor 1 is bit 1).
 579:.\Generated_Source\PSoC5/CapSense_CSHL.c **** *  CapSense_sensorEnableMask[1] contains the masked bits for 
 580:.\Generated_Source\PSoC5/CapSense_CSHL.c **** *  sensors 8 through 15 (if needed), and so on.
 581:.\Generated_Source\PSoC5/CapSense_CSHL.c **** *  0 - sensor is inactive.
 582:.\Generated_Source\PSoC5/CapSense_CSHL.c **** *  1 - sensor is active.
 583:.\Generated_Source\PSoC5/CapSense_CSHL.c **** *
 584:.\Generated_Source\PSoC5/CapSense_CSHL.c **** * Reentrant:
 585:.\Generated_Source\PSoC5/CapSense_CSHL.c **** *  No
 586:.\Generated_Source\PSoC5/CapSense_CSHL.c **** *
 587:.\Generated_Source\PSoC5/CapSense_CSHL.c **** *******************************************************************************/
 588:.\Generated_Source\PSoC5/CapSense_CSHL.c **** uint8 CapSense_CheckIsSensorActive(uint8 sensor)
 589:.\Generated_Source\PSoC5/CapSense_CSHL.c ****                                   
 590:.\Generated_Source\PSoC5/CapSense_CSHL.c **** {
 239              		.loc 1 590 0
 240              		.cfi_startproc
 241              		@ args = 0, pretend = 0, frame = 0
 242              		@ frame_needed = 0, uses_anonymous_args = 0
 243              	.LVL22:
 244 0000 F0B5     		push	{r4, r5, r6, r7, lr}
 245              		.cfi_def_cfa_offset 20
 246              		.cfi_offset 4, -20
 247              		.cfi_offset 5, -16
 248              		.cfi_offset 6, -12
 249              		.cfi_offset 7, -8
 250              		.cfi_offset 14, -4
 591:.\Generated_Source\PSoC5/CapSense_CSHL.c ****     uint8 debounceIndex;
 592:.\Generated_Source\PSoC5/CapSense_CSHL.c ****     /* Get On/Off mask */
 593:.\Generated_Source\PSoC5/CapSense_CSHL.c ****     uint8 pos = (sensor >> 3u);
 251              		.loc 1 593 0
 252 0002 C408     		lsrs	r4, r0, #3
 253              	.LVL23:
 594:.\Generated_Source\PSoC5/CapSense_CSHL.c ****     uint8 onMask = 0x01u << (sensor & 0x07u);
 254              		.loc 1 594 0
 255 0004 00F00702 		and	r2, r0, #7
 256 0008 0123     		movs	r3, #1
 257 000a 9340     		lsls	r3, r3, r2
ARM GAS  C:\Users\lenovo\AppData\Local\Temp\ccnUwRoN.s 			page 16


 258 000c DBB2     		uxtb	r3, r3
 259              	.LVL24:
 595:.\Generated_Source\PSoC5/CapSense_CSHL.c ****     /* Prepare to find debounce counter index */
 596:.\Generated_Source\PSoC5/CapSense_CSHL.c ****     uint8 widget = CapSense_widgetNumber[sensor];
 260              		.loc 1 596 0
 261 000e 1E4A     		ldr	r2, .L30
 262 0010 125C     		ldrb	r2, [r2, r0]	@ zero_extendqisi2
 263              	.LVL25:
 597:.\Generated_Source\PSoC5/CapSense_CSHL.c ****     uint8 fingerThreshold = CapSense_fingerThreshold[widget];
 264              		.loc 1 597 0
 265 0012 1E4D     		ldr	r5, .L30+4
 266 0014 AE18     		adds	r6, r5, r2
 267 0016 3779     		ldrb	r7, [r6, #4]	@ zero_extendqisi2
 268              	.LVL26:
 598:.\Generated_Source\PSoC5/CapSense_CSHL.c ****     uint8 hysteresis = CapSense_hysteresis[widget];
 269              		.loc 1 598 0
 270 0018 317A     		ldrb	r1, [r6, #8]	@ zero_extendqisi2
 271              	.LVL27:
 599:.\Generated_Source\PSoC5/CapSense_CSHL.c ****     uint8 debounce = CapSense_debounce[widget];
 272              		.loc 1 599 0
 273 001a AE5C     		ldrb	r6, [r5, r2]	@ zero_extendqisi2
 274              	.LVL28:
 600:.\Generated_Source\PSoC5/CapSense_CSHL.c ****     
 601:.\Generated_Source\PSoC5/CapSense_CSHL.c ****     if (widget < CapSense_TOTAL_CENTROIDS_COUNT)
 275              		.loc 1 601 0
 276 001c 22B9     		cbnz	r2, .L22
 277              	.LVL29:
 602:.\Generated_Source\PSoC5/CapSense_CSHL.c ****     {
 603:.\Generated_Source\PSoC5/CapSense_CSHL.c ****         debounceIndex = CapSense_UNUSED_DEBOUNCE_COUNTER_INDEX;
 604:.\Generated_Source\PSoC5/CapSense_CSHL.c ****         CapSense_debounceCounter[debounceIndex] = 1u;
 278              		.loc 1 604 0
 279 001e 0125     		movs	r5, #1
 280 0020 1B4A     		ldr	r2, .L30+8
 281              	.LVL30:
 282 0022 9570     		strb	r5, [r2, #2]
 603:.\Generated_Source\PSoC5/CapSense_CSHL.c ****         CapSense_debounceCounter[debounceIndex] = 1u;
 283              		.loc 1 603 0
 284 0024 0222     		movs	r2, #2
 285 0026 01E0     		b	.L23
 286              	.LVL31:
 287              	.L22:
 605:.\Generated_Source\PSoC5/CapSense_CSHL.c ****     }
 606:.\Generated_Source\PSoC5/CapSense_CSHL.c ****     else
 607:.\Generated_Source\PSoC5/CapSense_CSHL.c ****     {
 608:.\Generated_Source\PSoC5/CapSense_CSHL.c ****         debounceIndex = widget - (CapSense_END_OF_TOUCH_PAD_INDEX + 1);
 288              		.loc 1 608 0
 289 0028 013A     		subs	r2, r2, #1
 290              	.LVL32:
 291 002a D2B2     		uxtb	r2, r2
 292              	.LVL33:
 293              	.L23:
 609:.\Generated_Source\PSoC5/CapSense_CSHL.c ****     }
 610:.\Generated_Source\PSoC5/CapSense_CSHL.c **** 
 611:.\Generated_Source\PSoC5/CapSense_CSHL.c ****     
 612:.\Generated_Source\PSoC5/CapSense_CSHL.c ****     /* Was on */
 613:.\Generated_Source\PSoC5/CapSense_CSHL.c ****     if (0u != (CapSense_sensorOnMask[pos] & onMask))
 294              		.loc 1 613 0
ARM GAS  C:\Users\lenovo\AppData\Local\Temp\ccnUwRoN.s 			page 17


 295 002c 194D     		ldr	r5, .L30+12
 296 002e 2D5D     		ldrb	r5, [r5, r4]	@ zero_extendqisi2
 297 0030 1D42     		tst	r5, r3
 298 0032 0DD0     		beq	.L24
 614:.\Generated_Source\PSoC5/CapSense_CSHL.c ****     {
 615:.\Generated_Source\PSoC5/CapSense_CSHL.c ****         /* Hysteresis minus */
 616:.\Generated_Source\PSoC5/CapSense_CSHL.c ****         if (CapSense_sensorSignal[sensor] < (fingerThreshold - hysteresis))
 299              		.loc 1 616 0
 300 0034 DFF860E0 		ldr	lr, .L30+16
 301 0038 1EF80000 		ldrb	r0, [lr, r0]	@ zero_extendqisi2
 302              	.LVL34:
 303 003c 791A     		subs	r1, r7, r1
 304              	.LVL35:
 305 003e 8842     		cmp	r0, r1
 306 0040 1BDA     		bge	.L25
 617:.\Generated_Source\PSoC5/CapSense_CSHL.c ****         {
 618:.\Generated_Source\PSoC5/CapSense_CSHL.c ****             CapSense_sensorOnMask[pos] &= (uint8)~onMask;
 307              		.loc 1 618 0
 308 0042 25EA0305 		bic	r5, r5, r3
 309 0046 1349     		ldr	r1, .L30+12
 310 0048 0D55     		strb	r5, [r1, r4]
 619:.\Generated_Source\PSoC5/CapSense_CSHL.c ****             CapSense_debounceCounter[debounceIndex] = debounce; 
 311              		.loc 1 619 0
 312 004a 1149     		ldr	r1, .L30+8
 313 004c 8E54     		strb	r6, [r1, r2]
 314 004e 14E0     		b	.L25
 315              	.LVL36:
 316              	.L24:
 620:.\Generated_Source\PSoC5/CapSense_CSHL.c ****         }
 621:.\Generated_Source\PSoC5/CapSense_CSHL.c ****     }
 622:.\Generated_Source\PSoC5/CapSense_CSHL.c ****     else    /* Was off */
 623:.\Generated_Source\PSoC5/CapSense_CSHL.c ****     {
 624:.\Generated_Source\PSoC5/CapSense_CSHL.c ****         /* Hysteresis plus */
 625:.\Generated_Source\PSoC5/CapSense_CSHL.c ****         if (CapSense_sensorSignal[sensor] > (fingerThreshold + hysteresis))
 317              		.loc 1 625 0
 318 0050 DFF844E0 		ldr	lr, .L30+16
 319 0054 1EF80000 		ldrb	r0, [lr, r0]	@ zero_extendqisi2
 320              	.LVL37:
 321 0058 3944     		add	r1, r1, r7
 322              	.LVL38:
 323 005a 8842     		cmp	r0, r1
 324 005c 0BDD     		ble	.L26
 626:.\Generated_Source\PSoC5/CapSense_CSHL.c ****         {
 627:.\Generated_Source\PSoC5/CapSense_CSHL.c ****             /* Sensor active, decrement debounce counter */
 628:.\Generated_Source\PSoC5/CapSense_CSHL.c ****             if (CapSense_debounceCounter[debounceIndex] <= 1u)
 325              		.loc 1 628 0
 326 005e 1146     		mov	r1, r2
 327 0060 0B48     		ldr	r0, .L30+8
 328 0062 825C     		ldrb	r2, [r0, r2]	@ zero_extendqisi2
 329              	.LVL39:
 330 0064 012A     		cmp	r2, #1
 331 0066 02D8     		bhi	.L27
 629:.\Generated_Source\PSoC5/CapSense_CSHL.c ****             {
 630:.\Generated_Source\PSoC5/CapSense_CSHL.c ****                 CapSense_sensorOnMask[pos] |= onMask; 
 332              		.loc 1 630 0
 333 0068 1D43     		orrs	r5, r5, r3
 334 006a 0A48     		ldr	r0, .L30+12
ARM GAS  C:\Users\lenovo\AppData\Local\Temp\ccnUwRoN.s 			page 18


 335 006c 0555     		strb	r5, [r0, r4]
 336              	.L27:
 631:.\Generated_Source\PSoC5/CapSense_CSHL.c ****             }
 632:.\Generated_Source\PSoC5/CapSense_CSHL.c ****             CapSense_debounceCounter[debounceIndex]--;
 337              		.loc 1 632 0
 338 006e 013A     		subs	r2, r2, #1
 339 0070 0748     		ldr	r0, .L30+8
 340 0072 4254     		strb	r2, [r0, r1]
 341 0074 01E0     		b	.L25
 342              	.LVL40:
 343              	.L26:
 633:.\Generated_Source\PSoC5/CapSense_CSHL.c ****         }
 634:.\Generated_Source\PSoC5/CapSense_CSHL.c ****         else
 635:.\Generated_Source\PSoC5/CapSense_CSHL.c ****         {
 636:.\Generated_Source\PSoC5/CapSense_CSHL.c ****             /* Sensor inactive - reset Debounce counter */
 637:.\Generated_Source\PSoC5/CapSense_CSHL.c ****             CapSense_debounceCounter[debounceIndex] = debounce;
 344              		.loc 1 637 0
 345 0076 0649     		ldr	r1, .L30+8
 346 0078 8E54     		strb	r6, [r1, r2]
 347              	.LVL41:
 348              	.L25:
 638:.\Generated_Source\PSoC5/CapSense_CSHL.c ****         }
 639:.\Generated_Source\PSoC5/CapSense_CSHL.c ****     }
 640:.\Generated_Source\PSoC5/CapSense_CSHL.c ****     
 641:.\Generated_Source\PSoC5/CapSense_CSHL.c ****     return (((CapSense_sensorOnMask[pos] & onMask) != 0u) ? 1u : 0u);
 349              		.loc 1 641 0
 350 007a 064A     		ldr	r2, .L30+12
 351 007c 105D     		ldrb	r0, [r2, r4]	@ zero_extendqisi2
 352 007e 1840     		ands	r0, r0, r3
 353 0080 00D0     		beq	.L28
 354 0082 0120     		movs	r0, #1
 355              	.L28:
 642:.\Generated_Source\PSoC5/CapSense_CSHL.c **** }
 356              		.loc 1 642 0 discriminator 4
 357 0084 F0BD     		pop	{r4, r5, r6, r7, pc}
 358              	.LVL42:
 359              	.L31:
 360 0086 00BF     		.align	2
 361              	.L30:
 362 0088 00000000 		.word	CapSense_widgetNumber
 363 008c 00000000 		.word	.LANCHOR0
 364 0090 00000000 		.word	.LANCHOR1
 365 0094 00000000 		.word	CapSense_sensorOnMask
 366 0098 00000000 		.word	CapSense_sensorSignal
 367              		.cfi_endproc
 368              	.LFE6:
 369              		.size	CapSense_CheckIsSensorActive, .-CapSense_CheckIsSensorActive
 370              		.section	.text.CapSense_CheckIsWidgetActive,"ax",%progbits
 371              		.align	2
 372              		.global	CapSense_CheckIsWidgetActive
 373              		.thumb
 374              		.thumb_func
 375              		.type	CapSense_CheckIsWidgetActive, %function
 376              	CapSense_CheckIsWidgetActive:
 377              	.LFB7:
 643:.\Generated_Source\PSoC5/CapSense_CSHL.c **** 
 644:.\Generated_Source\PSoC5/CapSense_CSHL.c **** 
ARM GAS  C:\Users\lenovo\AppData\Local\Temp\ccnUwRoN.s 			page 19


 645:.\Generated_Source\PSoC5/CapSense_CSHL.c **** /*******************************************************************************
 646:.\Generated_Source\PSoC5/CapSense_CSHL.c **** * Function Name: CapSense_CheckIsWidgetActive
 647:.\Generated_Source\PSoC5/CapSense_CSHL.c **** ********************************************************************************
 648:.\Generated_Source\PSoC5/CapSense_CSHL.c **** *
 649:.\Generated_Source\PSoC5/CapSense_CSHL.c **** * Summary:
 650:.\Generated_Source\PSoC5/CapSense_CSHL.c **** *  Use function CapSense_CheckIsSensorActive() to update 
 651:.\Generated_Source\PSoC5/CapSense_CSHL.c **** *  CapSense_sensorOnMask[] for all sensors within the widget.
 652:.\Generated_Source\PSoC5/CapSense_CSHL.c **** *  If one of sensors within widget is active the function return that widget is 
 653:.\Generated_Source\PSoC5/CapSense_CSHL.c **** *  active.
 654:.\Generated_Source\PSoC5/CapSense_CSHL.c **** *  The touch pad and matrix buttons widgets need to have active sensor within 
 655:.\Generated_Source\PSoC5/CapSense_CSHL.c **** *  col and row to return widget active status.
 656:.\Generated_Source\PSoC5/CapSense_CSHL.c **** *
 657:.\Generated_Source\PSoC5/CapSense_CSHL.c **** * Parameters:
 658:.\Generated_Source\PSoC5/CapSense_CSHL.c **** *  widget:  widget number.
 659:.\Generated_Source\PSoC5/CapSense_CSHL.c **** *
 660:.\Generated_Source\PSoC5/CapSense_CSHL.c **** * Return:
 661:.\Generated_Source\PSoC5/CapSense_CSHL.c **** *  Returns widget sensor state 1 if one or more sensors within widget is/are 
 662:.\Generated_Source\PSoC5/CapSense_CSHL.c **** *  active, 0 if all sensors within widget are inactive.
 663:.\Generated_Source\PSoC5/CapSense_CSHL.c **** *
 664:.\Generated_Source\PSoC5/CapSense_CSHL.c **** * Reentrant:
 665:.\Generated_Source\PSoC5/CapSense_CSHL.c **** *  No
 666:.\Generated_Source\PSoC5/CapSense_CSHL.c **** *
 667:.\Generated_Source\PSoC5/CapSense_CSHL.c **** *******************************************************************************/
 668:.\Generated_Source\PSoC5/CapSense_CSHL.c **** uint8 CapSense_CheckIsWidgetActive(uint8 widget)
 669:.\Generated_Source\PSoC5/CapSense_CSHL.c ****                                  
 670:.\Generated_Source\PSoC5/CapSense_CSHL.c **** {
 378              		.loc 1 670 0
 379              		.cfi_startproc
 380              		@ args = 0, pretend = 0, frame = 0
 381              		@ frame_needed = 0, uses_anonymous_args = 0
 382              	.LVL43:
 383 0000 70B5     		push	{r4, r5, r6, lr}
 384              		.cfi_def_cfa_offset 16
 385              		.cfi_offset 4, -16
 386              		.cfi_offset 5, -12
 387              		.cfi_offset 6, -8
 388              		.cfi_offset 14, -4
 671:.\Generated_Source\PSoC5/CapSense_CSHL.c ****     uint8 rawIndex = CapSense_rawDataIndex[widget];
 389              		.loc 1 671 0
 390 0002 094B     		ldr	r3, .L37
 391 0004 1C5C     		ldrb	r4, [r3, r0]	@ zero_extendqisi2
 392              	.LVL44:
 672:.\Generated_Source\PSoC5/CapSense_CSHL.c ****     uint8 numberOfSensors = CapSense_numberOfSensors[widget] + rawIndex;
 393              		.loc 1 672 0
 394 0006 1844     		add	r0, r0, r3
 395              	.LVL45:
 396 0008 0579     		ldrb	r5, [r0, #4]	@ zero_extendqisi2
 397 000a 2544     		add	r5, r5, r4
 398 000c EDB2     		uxtb	r5, r5
 399              	.LVL46:
 673:.\Generated_Source\PSoC5/CapSense_CSHL.c ****     uint8 state = 0u;
 400              		.loc 1 673 0
 401 000e 0026     		movs	r6, #0
 402              	.LVL47:
 403              	.L34:
 674:.\Generated_Source\PSoC5/CapSense_CSHL.c **** 
 675:.\Generated_Source\PSoC5/CapSense_CSHL.c ****     /* Check all sensors of the widget */
ARM GAS  C:\Users\lenovo\AppData\Local\Temp\ccnUwRoN.s 			page 20


 676:.\Generated_Source\PSoC5/CapSense_CSHL.c ****     do
 677:.\Generated_Source\PSoC5/CapSense_CSHL.c ****     {
 678:.\Generated_Source\PSoC5/CapSense_CSHL.c ****         if(CapSense_CheckIsSensorActive(rawIndex) != 0u)
 404              		.loc 1 678 0
 405 0010 2046     		mov	r0, r4
 406 0012 FFF7FEFF 		bl	CapSense_CheckIsSensorActive
 407              	.LVL48:
 408 0016 00B1     		cbz	r0, .L33
 679:.\Generated_Source\PSoC5/CapSense_CSHL.c ****         {
 680:.\Generated_Source\PSoC5/CapSense_CSHL.c ****             state = CapSense_SENSOR_1_IS_ACTIVE;
 409              		.loc 1 680 0
 410 0018 0126     		movs	r6, #1
 411              	.LVL49:
 412              	.L33:
 681:.\Generated_Source\PSoC5/CapSense_CSHL.c ****         }
 682:.\Generated_Source\PSoC5/CapSense_CSHL.c ****         rawIndex++;
 413              		.loc 1 682 0
 414 001a 0134     		adds	r4, r4, #1
 415              	.LVL50:
 416 001c E4B2     		uxtb	r4, r4
 417              	.LVL51:
 683:.\Generated_Source\PSoC5/CapSense_CSHL.c ****     }
 684:.\Generated_Source\PSoC5/CapSense_CSHL.c ****     while(rawIndex < numberOfSensors);
 418              		.loc 1 684 0
 419 001e AC42     		cmp	r4, r5
 420 0020 F6D3     		bcc	.L34
 685:.\Generated_Source\PSoC5/CapSense_CSHL.c ****     
 686:.\Generated_Source\PSoC5/CapSense_CSHL.c **** 
 687:.\Generated_Source\PSoC5/CapSense_CSHL.c ****     
 688:.\Generated_Source\PSoC5/CapSense_CSHL.c ****     return (state);
 689:.\Generated_Source\PSoC5/CapSense_CSHL.c **** }
 421              		.loc 1 689 0
 422 0022 3046     		mov	r0, r6
 423 0024 70BD     		pop	{r4, r5, r6, pc}
 424              	.LVL52:
 425              	.L38:
 426 0026 00BF     		.align	2
 427              	.L37:
 428 0028 00000000 		.word	.LANCHOR2
 429              		.cfi_endproc
 430              	.LFE7:
 431              		.size	CapSense_CheckIsWidgetActive, .-CapSense_CheckIsWidgetActive
 432              		.section	.text.CapSense_CheckIsAnyWidgetActive,"ax",%progbits
 433              		.align	2
 434              		.global	CapSense_CheckIsAnyWidgetActive
 435              		.thumb
 436              		.thumb_func
 437              		.type	CapSense_CheckIsAnyWidgetActive, %function
 438              	CapSense_CheckIsAnyWidgetActive:
 439              	.LFB8:
 690:.\Generated_Source\PSoC5/CapSense_CSHL.c **** 
 691:.\Generated_Source\PSoC5/CapSense_CSHL.c **** 
 692:.\Generated_Source\PSoC5/CapSense_CSHL.c **** /*******************************************************************************
 693:.\Generated_Source\PSoC5/CapSense_CSHL.c **** * Function Name: CapSense_CheckIsAnyWidgetActive
 694:.\Generated_Source\PSoC5/CapSense_CSHL.c **** ********************************************************************************
 695:.\Generated_Source\PSoC5/CapSense_CSHL.c **** *
 696:.\Generated_Source\PSoC5/CapSense_CSHL.c **** * Summary:
ARM GAS  C:\Users\lenovo\AppData\Local\Temp\ccnUwRoN.s 			page 21


 697:.\Generated_Source\PSoC5/CapSense_CSHL.c **** *  Compares all sensors of the CapSense_signal[] array to their finger 
 698:.\Generated_Source\PSoC5/CapSense_CSHL.c **** *  threshold. Calls CapSense_CheckIsWidgetActive() for each widget so 
 699:.\Generated_Source\PSoC5/CapSense_CSHL.c **** *  the CapSense_SensorOnMask[] array is up to date after calling this 
 700:.\Generated_Source\PSoC5/CapSense_CSHL.c **** *  function.
 701:.\Generated_Source\PSoC5/CapSense_CSHL.c **** *
 702:.\Generated_Source\PSoC5/CapSense_CSHL.c **** * Parameters:
 703:.\Generated_Source\PSoC5/CapSense_CSHL.c **** *  widget:  widget number.
 704:.\Generated_Source\PSoC5/CapSense_CSHL.c **** *
 705:.\Generated_Source\PSoC5/CapSense_CSHL.c **** * Return:
 706:.\Generated_Source\PSoC5/CapSense_CSHL.c **** *  Returns 1 if any widget is active, 0 none of widgets are active.
 707:.\Generated_Source\PSoC5/CapSense_CSHL.c **** *
 708:.\Generated_Source\PSoC5/CapSense_CSHL.c **** * Reentrant:
 709:.\Generated_Source\PSoC5/CapSense_CSHL.c **** *  No
 710:.\Generated_Source\PSoC5/CapSense_CSHL.c **** *
 711:.\Generated_Source\PSoC5/CapSense_CSHL.c **** *******************************************************************************/
 712:.\Generated_Source\PSoC5/CapSense_CSHL.c **** uint8 CapSense_CheckIsAnyWidgetActive(void)
 713:.\Generated_Source\PSoC5/CapSense_CSHL.c ****                                  
 714:.\Generated_Source\PSoC5/CapSense_CSHL.c **** {
 440              		.loc 1 714 0
 441              		.cfi_startproc
 442              		@ args = 0, pretend = 0, frame = 0
 443              		@ frame_needed = 0, uses_anonymous_args = 0
 444 0000 38B5     		push	{r3, r4, r5, lr}
 445              		.cfi_def_cfa_offset 16
 446              		.cfi_offset 3, -16
 447              		.cfi_offset 4, -12
 448              		.cfi_offset 5, -8
 449              		.cfi_offset 14, -4
 450              	.LVL53:
 715:.\Generated_Source\PSoC5/CapSense_CSHL.c ****     uint8 i;
 716:.\Generated_Source\PSoC5/CapSense_CSHL.c ****     uint8 state = 0u;
 451              		.loc 1 716 0
 452 0002 0025     		movs	r5, #0
 717:.\Generated_Source\PSoC5/CapSense_CSHL.c ****     
 718:.\Generated_Source\PSoC5/CapSense_CSHL.c ****     for(i = 0u; i < CapSense_TOTAL_WIDGET_COUNT; i++)
 453              		.loc 1 718 0
 454 0004 2C46     		mov	r4, r5
 455 0006 06E0     		b	.L40
 456              	.LVL54:
 457              	.L42:
 719:.\Generated_Source\PSoC5/CapSense_CSHL.c ****     {
 720:.\Generated_Source\PSoC5/CapSense_CSHL.c ****         if (CapSense_CheckIsWidgetActive(i) != 0u)
 458              		.loc 1 720 0
 459 0008 2046     		mov	r0, r4
 460 000a FFF7FEFF 		bl	CapSense_CheckIsWidgetActive
 461              	.LVL55:
 462 000e 00B1     		cbz	r0, .L41
 721:.\Generated_Source\PSoC5/CapSense_CSHL.c ****         {
 722:.\Generated_Source\PSoC5/CapSense_CSHL.c ****             state = CapSense_WIDGET_IS_ACTIVE;
 463              		.loc 1 722 0
 464 0010 0125     		movs	r5, #1
 465              	.LVL56:
 466              	.L41:
 718:.\Generated_Source\PSoC5/CapSense_CSHL.c ****     {
 467              		.loc 1 718 0 discriminator 2
 468 0012 0134     		adds	r4, r4, #1
 469              	.LVL57:
ARM GAS  C:\Users\lenovo\AppData\Local\Temp\ccnUwRoN.s 			page 22


 470 0014 E4B2     		uxtb	r4, r4
 471              	.LVL58:
 472              	.L40:
 718:.\Generated_Source\PSoC5/CapSense_CSHL.c ****     {
 473              		.loc 1 718 0 is_stmt 0 discriminator 1
 474 0016 022C     		cmp	r4, #2
 475 0018 F6D9     		bls	.L42
 723:.\Generated_Source\PSoC5/CapSense_CSHL.c ****         }
 724:.\Generated_Source\PSoC5/CapSense_CSHL.c ****     }
 725:.\Generated_Source\PSoC5/CapSense_CSHL.c ****     
 726:.\Generated_Source\PSoC5/CapSense_CSHL.c **** 
 727:.\Generated_Source\PSoC5/CapSense_CSHL.c ****     return (state);
 728:.\Generated_Source\PSoC5/CapSense_CSHL.c **** }
 476              		.loc 1 728 0 is_stmt 1
 477 001a 2846     		mov	r0, r5
 478 001c 38BD     		pop	{r3, r4, r5, pc}
 479              		.cfi_endproc
 480              	.LFE8:
 481              		.size	CapSense_CheckIsAnyWidgetActive, .-CapSense_CheckIsAnyWidgetActive
 482 001e 00BF     		.section	.text.CapSense_EnableWidget,"ax",%progbits
 483              		.align	2
 484              		.global	CapSense_EnableWidget
 485              		.thumb
 486              		.thumb_func
 487              		.type	CapSense_EnableWidget, %function
 488              	CapSense_EnableWidget:
 489              	.LFB9:
 729:.\Generated_Source\PSoC5/CapSense_CSHL.c **** 
 730:.\Generated_Source\PSoC5/CapSense_CSHL.c **** 
 731:.\Generated_Source\PSoC5/CapSense_CSHL.c **** /*******************************************************************************
 732:.\Generated_Source\PSoC5/CapSense_CSHL.c **** * Function Name: CapSense_EnableWidget
 733:.\Generated_Source\PSoC5/CapSense_CSHL.c **** ********************************************************************************
 734:.\Generated_Source\PSoC5/CapSense_CSHL.c **** *
 735:.\Generated_Source\PSoC5/CapSense_CSHL.c **** * Summary:
 736:.\Generated_Source\PSoC5/CapSense_CSHL.c **** *  Enable all widget elements (sensors) to scanning process.
 737:.\Generated_Source\PSoC5/CapSense_CSHL.c **** *
 738:.\Generated_Source\PSoC5/CapSense_CSHL.c **** * Parameters:
 739:.\Generated_Source\PSoC5/CapSense_CSHL.c **** *  widget:  widget number.
 740:.\Generated_Source\PSoC5/CapSense_CSHL.c **** *
 741:.\Generated_Source\PSoC5/CapSense_CSHL.c **** * Return:
 742:.\Generated_Source\PSoC5/CapSense_CSHL.c **** *  None
 743:.\Generated_Source\PSoC5/CapSense_CSHL.c **** *
 744:.\Generated_Source\PSoC5/CapSense_CSHL.c **** * Global Variables:
 745:.\Generated_Source\PSoC5/CapSense_CSHL.c **** *  CapSense_sensorEnableMask[] - used to store the sensor scanning 
 746:.\Generated_Source\PSoC5/CapSense_CSHL.c **** *  state.
 747:.\Generated_Source\PSoC5/CapSense_CSHL.c **** *  CapSense_sensorEnableMask[0] contains the masked bits for sensors 
 748:.\Generated_Source\PSoC5/CapSense_CSHL.c **** *  0 through 7 (sensor 0 is bit 0, sensor 1 is bit 1).
 749:.\Generated_Source\PSoC5/CapSense_CSHL.c **** *  CapSense_sensorEnableMask[1] contains the masked bits for 
 750:.\Generated_Source\PSoC5/CapSense_CSHL.c **** *  sensors 8 through 15 (if needed), and so on.
 751:.\Generated_Source\PSoC5/CapSense_CSHL.c **** *  0 - sensor doesn't scan by CapSense_ScanEnabledWidgets().
 752:.\Generated_Source\PSoC5/CapSense_CSHL.c **** *  1 - sensor scans by CapSense_ScanEnabledWidgets().
 753:.\Generated_Source\PSoC5/CapSense_CSHL.c **** *
 754:.\Generated_Source\PSoC5/CapSense_CSHL.c **** * Reentrant:
 755:.\Generated_Source\PSoC5/CapSense_CSHL.c **** *  No
 756:.\Generated_Source\PSoC5/CapSense_CSHL.c **** *
 757:.\Generated_Source\PSoC5/CapSense_CSHL.c **** *******************************************************************************/
 758:.\Generated_Source\PSoC5/CapSense_CSHL.c **** void CapSense_EnableWidget(uint8 widget)
ARM GAS  C:\Users\lenovo\AppData\Local\Temp\ccnUwRoN.s 			page 23


 759:.\Generated_Source\PSoC5/CapSense_CSHL.c ****                                    
 760:.\Generated_Source\PSoC5/CapSense_CSHL.c **** {
 490              		.loc 1 760 0
 491              		.cfi_startproc
 492              		@ args = 0, pretend = 0, frame = 0
 493              		@ frame_needed = 0, uses_anonymous_args = 0
 494              		@ link register save eliminated.
 495              	.LVL59:
 496 0000 30B4     		push	{r4, r5}
 497              		.cfi_def_cfa_offset 8
 498              		.cfi_offset 4, -8
 499              		.cfi_offset 5, -4
 761:.\Generated_Source\PSoC5/CapSense_CSHL.c ****     uint8 pos;
 762:.\Generated_Source\PSoC5/CapSense_CSHL.c ****     uint8 enMask;
 763:.\Generated_Source\PSoC5/CapSense_CSHL.c ****     uint8 rawIndex = CapSense_rawDataIndex[widget];
 500              		.loc 1 763 0
 501 0002 0A4A     		ldr	r2, .L48
 502 0004 135C     		ldrb	r3, [r2, r0]	@ zero_extendqisi2
 503              	.LVL60:
 764:.\Generated_Source\PSoC5/CapSense_CSHL.c ****     uint8 numberOfSensors = CapSense_numberOfSensors[widget] + rawIndex;
 504              		.loc 1 764 0
 505 0006 1044     		add	r0, r0, r2
 506              	.LVL61:
 507 0008 0579     		ldrb	r5, [r0, #4]	@ zero_extendqisi2
 508 000a 1D44     		add	r5, r5, r3
 509 000c EDB2     		uxtb	r5, r5
 510              	.LVL62:
 511              	.L46:
 765:.\Generated_Source\PSoC5/CapSense_CSHL.c ****     
 766:.\Generated_Source\PSoC5/CapSense_CSHL.c ****     /* Enable all sensors of the widget */
 767:.\Generated_Source\PSoC5/CapSense_CSHL.c ****     do
 768:.\Generated_Source\PSoC5/CapSense_CSHL.c ****     {
 769:.\Generated_Source\PSoC5/CapSense_CSHL.c ****         pos = (rawIndex >> 3u);
 512              		.loc 1 769 0 discriminator 1
 513 000e D808     		lsrs	r0, r3, #3
 514              	.LVL63:
 770:.\Generated_Source\PSoC5/CapSense_CSHL.c ****         enMask = 0x01u << (rawIndex & 0x07u);
 515              		.loc 1 770 0 discriminator 1
 516 0010 03F00701 		and	r1, r3, #7
 517 0014 0122     		movs	r2, #1
 518 0016 8A40     		lsls	r2, r2, r1
 519              	.LVL64:
 771:.\Generated_Source\PSoC5/CapSense_CSHL.c ****         
 772:.\Generated_Source\PSoC5/CapSense_CSHL.c ****         CapSense_sensorEnableMask[pos] |= enMask;
 520              		.loc 1 772 0 discriminator 1
 521 0018 054C     		ldr	r4, .L48+4
 522 001a 215C     		ldrb	r1, [r4, r0]	@ zero_extendqisi2
 523 001c 0A43     		orrs	r2, r2, r1
 524              	.LVL65:
 525 001e 2254     		strb	r2, [r4, r0]
 773:.\Generated_Source\PSoC5/CapSense_CSHL.c ****         rawIndex++;
 526              		.loc 1 773 0 discriminator 1
 527 0020 0133     		adds	r3, r3, #1
 528              	.LVL66:
 529 0022 DBB2     		uxtb	r3, r3
 530              	.LVL67:
 774:.\Generated_Source\PSoC5/CapSense_CSHL.c ****     }
ARM GAS  C:\Users\lenovo\AppData\Local\Temp\ccnUwRoN.s 			page 24


 775:.\Generated_Source\PSoC5/CapSense_CSHL.c ****     while(rawIndex < numberOfSensors);
 531              		.loc 1 775 0 discriminator 1
 532 0024 AB42     		cmp	r3, r5
 533 0026 F2D3     		bcc	.L46
 776:.\Generated_Source\PSoC5/CapSense_CSHL.c ****     
 777:.\Generated_Source\PSoC5/CapSense_CSHL.c **** 
 778:.\Generated_Source\PSoC5/CapSense_CSHL.c **** }
 534              		.loc 1 778 0
 535 0028 30BC     		pop	{r4, r5}
 536              		.cfi_restore 5
 537              		.cfi_restore 4
 538              		.cfi_def_cfa_offset 0
 539              	.LVL68:
 540 002a 7047     		bx	lr
 541              	.L49:
 542              		.align	2
 543              	.L48:
 544 002c 00000000 		.word	.LANCHOR2
 545 0030 00000000 		.word	CapSense_sensorEnableMask
 546              		.cfi_endproc
 547              	.LFE9:
 548              		.size	CapSense_EnableWidget, .-CapSense_EnableWidget
 549              		.section	.text.CapSense_DisableWidget,"ax",%progbits
 550              		.align	2
 551              		.global	CapSense_DisableWidget
 552              		.thumb
 553              		.thumb_func
 554              		.type	CapSense_DisableWidget, %function
 555              	CapSense_DisableWidget:
 556              	.LFB10:
 779:.\Generated_Source\PSoC5/CapSense_CSHL.c **** 
 780:.\Generated_Source\PSoC5/CapSense_CSHL.c **** 
 781:.\Generated_Source\PSoC5/CapSense_CSHL.c **** /*******************************************************************************
 782:.\Generated_Source\PSoC5/CapSense_CSHL.c **** * Function Name: CapSense_DisableWidget
 783:.\Generated_Source\PSoC5/CapSense_CSHL.c **** ********************************************************************************
 784:.\Generated_Source\PSoC5/CapSense_CSHL.c **** *
 785:.\Generated_Source\PSoC5/CapSense_CSHL.c **** * Summary:
 786:.\Generated_Source\PSoC5/CapSense_CSHL.c **** *  Disable all widget elements (sensors) from scanning process.
 787:.\Generated_Source\PSoC5/CapSense_CSHL.c **** *
 788:.\Generated_Source\PSoC5/CapSense_CSHL.c **** * Parameters:
 789:.\Generated_Source\PSoC5/CapSense_CSHL.c **** *  widget:  widget number.
 790:.\Generated_Source\PSoC5/CapSense_CSHL.c **** *
 791:.\Generated_Source\PSoC5/CapSense_CSHL.c **** * Return:
 792:.\Generated_Source\PSoC5/CapSense_CSHL.c **** *  None
 793:.\Generated_Source\PSoC5/CapSense_CSHL.c **** *
 794:.\Generated_Source\PSoC5/CapSense_CSHL.c **** * Global Variables:
 795:.\Generated_Source\PSoC5/CapSense_CSHL.c **** *  CapSense_sensorEnableMask[] - used to store the sensor scanning 
 796:.\Generated_Source\PSoC5/CapSense_CSHL.c **** *  state.
 797:.\Generated_Source\PSoC5/CapSense_CSHL.c **** *  CapSense_sensorEnableMask[0] contains the masked bits for sensors 
 798:.\Generated_Source\PSoC5/CapSense_CSHL.c **** *  0 through 7 (sensor 0 is bit 0, sensor 1 is bit 1).
 799:.\Generated_Source\PSoC5/CapSense_CSHL.c **** *  CapSense_sensorEnableMask[1] contains the masked bits for 
 800:.\Generated_Source\PSoC5/CapSense_CSHL.c **** *  sensors 8 through 15 (if needed), and so on.
 801:.\Generated_Source\PSoC5/CapSense_CSHL.c **** *  0 - sensor doesn't scan by CapSense_ScanEnabledWidgets().
 802:.\Generated_Source\PSoC5/CapSense_CSHL.c **** *  1 - sensor scans by CapSense_ScanEnabledWidgets().
 803:.\Generated_Source\PSoC5/CapSense_CSHL.c **** *
 804:.\Generated_Source\PSoC5/CapSense_CSHL.c **** * Reentrant:
 805:.\Generated_Source\PSoC5/CapSense_CSHL.c **** *  No
ARM GAS  C:\Users\lenovo\AppData\Local\Temp\ccnUwRoN.s 			page 25


 806:.\Generated_Source\PSoC5/CapSense_CSHL.c **** *
 807:.\Generated_Source\PSoC5/CapSense_CSHL.c **** *******************************************************************************/
 808:.\Generated_Source\PSoC5/CapSense_CSHL.c **** void CapSense_DisableWidget(uint8 widget)
 809:.\Generated_Source\PSoC5/CapSense_CSHL.c ****                                     
 810:.\Generated_Source\PSoC5/CapSense_CSHL.c **** {
 557              		.loc 1 810 0
 558              		.cfi_startproc
 559              		@ args = 0, pretend = 0, frame = 0
 560              		@ frame_needed = 0, uses_anonymous_args = 0
 561              		@ link register save eliminated.
 562              	.LVL69:
 563 0000 30B4     		push	{r4, r5}
 564              		.cfi_def_cfa_offset 8
 565              		.cfi_offset 4, -8
 566              		.cfi_offset 5, -4
 811:.\Generated_Source\PSoC5/CapSense_CSHL.c ****     uint8 pos;
 812:.\Generated_Source\PSoC5/CapSense_CSHL.c ****     uint8 enMask;
 813:.\Generated_Source\PSoC5/CapSense_CSHL.c ****     uint8 rawIndex = CapSense_rawDataIndex[widget];
 567              		.loc 1 813 0
 568 0002 0B4A     		ldr	r2, .L53
 569 0004 135C     		ldrb	r3, [r2, r0]	@ zero_extendqisi2
 570              	.LVL70:
 814:.\Generated_Source\PSoC5/CapSense_CSHL.c ****     uint8 numberOfSensors = CapSense_numberOfSensors[widget] + rawIndex;
 571              		.loc 1 814 0
 572 0006 1044     		add	r0, r0, r2
 573              	.LVL71:
 574 0008 0579     		ldrb	r5, [r0, #4]	@ zero_extendqisi2
 575 000a 1D44     		add	r5, r5, r3
 576 000c EDB2     		uxtb	r5, r5
 577              	.LVL72:
 578              	.L51:
 815:.\Generated_Source\PSoC5/CapSense_CSHL.c ****    
 816:.\Generated_Source\PSoC5/CapSense_CSHL.c ****     /* Disable all sensors of the widget */
 817:.\Generated_Source\PSoC5/CapSense_CSHL.c ****     do
 818:.\Generated_Source\PSoC5/CapSense_CSHL.c ****     {
 819:.\Generated_Source\PSoC5/CapSense_CSHL.c ****         pos = (rawIndex >> 3u);
 579              		.loc 1 819 0 discriminator 1
 580 000e D808     		lsrs	r0, r3, #3
 581              	.LVL73:
 820:.\Generated_Source\PSoC5/CapSense_CSHL.c ****         enMask = 0x01u << (rawIndex & 0x07u);
 582              		.loc 1 820 0 discriminator 1
 583 0010 03F00701 		and	r1, r3, #7
 584 0014 0122     		movs	r2, #1
 585 0016 8A40     		lsls	r2, r2, r1
 586              	.LVL74:
 821:.\Generated_Source\PSoC5/CapSense_CSHL.c ****         
 822:.\Generated_Source\PSoC5/CapSense_CSHL.c ****         CapSense_sensorEnableMask[pos] &= (uint8)~enMask;
 587              		.loc 1 822 0 discriminator 1
 588 0018 064C     		ldr	r4, .L53+4
 589 001a 215C     		ldrb	r1, [r4, r0]	@ zero_extendqisi2
 590 001c 21EA0202 		bic	r2, r1, r2
 591              	.LVL75:
 592 0020 2254     		strb	r2, [r4, r0]
 823:.\Generated_Source\PSoC5/CapSense_CSHL.c ****         rawIndex++;
 593              		.loc 1 823 0 discriminator 1
 594 0022 0133     		adds	r3, r3, #1
 595              	.LVL76:
ARM GAS  C:\Users\lenovo\AppData\Local\Temp\ccnUwRoN.s 			page 26


 596 0024 DBB2     		uxtb	r3, r3
 597              	.LVL77:
 824:.\Generated_Source\PSoC5/CapSense_CSHL.c ****     }
 825:.\Generated_Source\PSoC5/CapSense_CSHL.c ****     while(rawIndex < numberOfSensors);
 598              		.loc 1 825 0 discriminator 1
 599 0026 AB42     		cmp	r3, r5
 600 0028 F1D3     		bcc	.L51
 826:.\Generated_Source\PSoC5/CapSense_CSHL.c ****     
 827:.\Generated_Source\PSoC5/CapSense_CSHL.c **** 
 828:.\Generated_Source\PSoC5/CapSense_CSHL.c **** }
 601              		.loc 1 828 0
 602 002a 30BC     		pop	{r4, r5}
 603              		.cfi_restore 5
 604              		.cfi_restore 4
 605              		.cfi_def_cfa_offset 0
 606              	.LVL78:
 607 002c 7047     		bx	lr
 608              	.L54:
 609 002e 00BF     		.align	2
 610              	.L53:
 611 0030 00000000 		.word	.LANCHOR2
 612 0034 00000000 		.word	CapSense_sensorEnableMask
 613              		.cfi_endproc
 614              	.LFE10:
 615              		.size	CapSense_DisableWidget, .-CapSense_DisableWidget
 616              		.section	.text.CapSense_FindMaximum,"ax",%progbits
 617              		.align	2
 618              		.global	CapSense_FindMaximum
 619              		.thumb
 620              		.thumb_func
 621              		.type	CapSense_FindMaximum, %function
 622              	CapSense_FindMaximum:
 623              	.LFB11:
 829:.\Generated_Source\PSoC5/CapSense_CSHL.c **** #if(CapSense_TOTAL_CENTROIDS_COUNT)
 830:.\Generated_Source\PSoC5/CapSense_CSHL.c ****     /*******************************************************************************
 831:.\Generated_Source\PSoC5/CapSense_CSHL.c ****     * Function Name: CapSense_FindMaximum
 832:.\Generated_Source\PSoC5/CapSense_CSHL.c ****     ********************************************************************************
 833:.\Generated_Source\PSoC5/CapSense_CSHL.c ****     *
 834:.\Generated_Source\PSoC5/CapSense_CSHL.c ****     * Summary:
 835:.\Generated_Source\PSoC5/CapSense_CSHL.c ****     *  Finds index of maximum element within defined centroid. Checks 
 836:.\Generated_Source\PSoC5/CapSense_CSHL.c ****     *  CapSense_SensorSignal[] within defined cenrtoid and 
 837:.\Generated_Source\PSoC5/CapSense_CSHL.c ****     *  returns index of maximum element. The values below finger threshold are 
 838:.\Generated_Source\PSoC5/CapSense_CSHL.c ****     *  ignored.
 839:.\Generated_Source\PSoC5/CapSense_CSHL.c ****     *  The centrod defines by offset of first element and number of elements - count.
 840:.\Generated_Source\PSoC5/CapSense_CSHL.c ****     *  The diplexed centroid requires at least consecutive two elements above
 841:.\Generated_Source\PSoC5/CapSense_CSHL.c ****     *  FingerThreshold to find index of maximum element.
 842:.\Generated_Source\PSoC5/CapSense_CSHL.c ****     * 
 843:.\Generated_Source\PSoC5/CapSense_CSHL.c ****     * Parameters:
 844:.\Generated_Source\PSoC5/CapSense_CSHL.c ****     *  offset:  Start index of cetroid in CapSense_sensorSignal[] array.
 845:.\Generated_Source\PSoC5/CapSense_CSHL.c ****     *  count:   number of elements within centroid.
 846:.\Generated_Source\PSoC5/CapSense_CSHL.c ****     *  fingerThreshold:  Finger threshould.
 847:.\Generated_Source\PSoC5/CapSense_CSHL.c ****     *  diplex:   pointer to diplex table.
 848:.\Generated_Source\PSoC5/CapSense_CSHL.c ****     * 
 849:.\Generated_Source\PSoC5/CapSense_CSHL.c ****     * Return:
 850:.\Generated_Source\PSoC5/CapSense_CSHL.c ****     *  Returns index of maximum element within defined centroid.
 851:.\Generated_Source\PSoC5/CapSense_CSHL.c ****     *  If index of maximum element doesn't find the 0xFF returns.
 852:.\Generated_Source\PSoC5/CapSense_CSHL.c ****     * 
ARM GAS  C:\Users\lenovo\AppData\Local\Temp\ccnUwRoN.s 			page 27


 853:.\Generated_Source\PSoC5/CapSense_CSHL.c ****     *******************************************************************************/
 854:.\Generated_Source\PSoC5/CapSense_CSHL.c ****     #if (CapSense_IS_DIPLEX_SLIDER)
 855:.\Generated_Source\PSoC5/CapSense_CSHL.c ****         uint8 CapSense_FindMaximum(uint8 offset, uint8 count, uint8 fingerThreshold, const uint8 CY
 856:.\Generated_Source\PSoC5/CapSense_CSHL.c **** 	                                       
 857:.\Generated_Source\PSoC5/CapSense_CSHL.c ****     #else 
 858:.\Generated_Source\PSoC5/CapSense_CSHL.c ****         uint8 CapSense_FindMaximum(uint8 offset, uint8 count, uint8 fingerThreshold)
 859:.\Generated_Source\PSoC5/CapSense_CSHL.c **** 	                                       
 860:.\Generated_Source\PSoC5/CapSense_CSHL.c ****     #endif /* (CapSense_IS_DIPLEX_SLIDER) */
 861:.\Generated_Source\PSoC5/CapSense_CSHL.c ****     {
 624              		.loc 1 861 0
 625              		.cfi_startproc
 626              		@ args = 0, pretend = 0, frame = 0
 627              		@ frame_needed = 0, uses_anonymous_args = 0
 628              		@ link register save eliminated.
 629              	.LVL79:
 630 0000 70B4     		push	{r4, r5, r6}
 631              		.cfi_def_cfa_offset 12
 632              		.cfi_offset 4, -12
 633              		.cfi_offset 5, -8
 634              		.cfi_offset 6, -4
 635              	.LVL80:
 862:.\Generated_Source\PSoC5/CapSense_CSHL.c ****         uint8 i;
 863:.\Generated_Source\PSoC5/CapSense_CSHL.c ****         #if (CapSense_IS_DIPLEX_SLIDER)        
 864:.\Generated_Source\PSoC5/CapSense_CSHL.c ****             uint8 curPos = 0u;
 865:.\Generated_Source\PSoC5/CapSense_CSHL.c ****             /* No centroid at the Start */
 866:.\Generated_Source\PSoC5/CapSense_CSHL.c ****             uint8 curCntrdSize = 0u;
 867:.\Generated_Source\PSoC5/CapSense_CSHL.c ****             uint8 curCtrdStartPos = 0xFFu;
 868:.\Generated_Source\PSoC5/CapSense_CSHL.c ****             /* The biggset centroid is zero */
 869:.\Generated_Source\PSoC5/CapSense_CSHL.c ****             uint8 biggestCtrdSize = 0u;
 870:.\Generated_Source\PSoC5/CapSense_CSHL.c ****             uint8 biggestCtrdStartPos = 0u;
 871:.\Generated_Source\PSoC5/CapSense_CSHL.c ****         #endif /* (CapSense_IS_DIPLEX_SLIDER) */
 872:.\Generated_Source\PSoC5/CapSense_CSHL.c ****         uint8 maximum = 0xFFu;
 873:.\Generated_Source\PSoC5/CapSense_CSHL.c ****         uint8 temp = 0u;
 874:.\Generated_Source\PSoC5/CapSense_CSHL.c ****         uint8 *startOfSlider = &CapSense_sensorSignal[offset]; 
 636              		.loc 1 874 0
 637 0002 094D     		ldr	r5, .L61
 638 0004 0544     		add	r5, r5, r0
 639              	.LVL81:
 873:.\Generated_Source\PSoC5/CapSense_CSHL.c ****         uint8 *startOfSlider = &CapSense_sensorSignal[offset]; 
 640              		.loc 1 873 0
 641 0006 0026     		movs	r6, #0
 872:.\Generated_Source\PSoC5/CapSense_CSHL.c ****         uint8 temp = 0u;
 642              		.loc 1 872 0
 643 0008 FF20     		movs	r0, #255
 644              	.LVL82:
 875:.\Generated_Source\PSoC5/CapSense_CSHL.c **** 
 876:.\Generated_Source\PSoC5/CapSense_CSHL.c ****         #if (CapSense_IS_DIPLEX_SLIDER)        
 877:.\Generated_Source\PSoC5/CapSense_CSHL.c ****             if(diplex != 0u)
 878:.\Generated_Source\PSoC5/CapSense_CSHL.c ****             {
 879:.\Generated_Source\PSoC5/CapSense_CSHL.c ****                 /* Initialize */
 880:.\Generated_Source\PSoC5/CapSense_CSHL.c ****                 i = 0u;
 881:.\Generated_Source\PSoC5/CapSense_CSHL.c ****                 
 882:.\Generated_Source\PSoC5/CapSense_CSHL.c ****                 /* Make slider x2 as Diplexed */
 883:.\Generated_Source\PSoC5/CapSense_CSHL.c ****                 count <<= 1u;
 884:.\Generated_Source\PSoC5/CapSense_CSHL.c ****                 while(1u)
 885:.\Generated_Source\PSoC5/CapSense_CSHL.c ****                 { 
 886:.\Generated_Source\PSoC5/CapSense_CSHL.c ****                     if (startOfSlider[curPos] > 0u)    /* Looking for centroids */
ARM GAS  C:\Users\lenovo\AppData\Local\Temp\ccnUwRoN.s 			page 28


 887:.\Generated_Source\PSoC5/CapSense_CSHL.c ****                     {
 888:.\Generated_Source\PSoC5/CapSense_CSHL.c ****                         if (curCtrdStartPos == 0xFFu)
 889:.\Generated_Source\PSoC5/CapSense_CSHL.c ****                         {
 890:.\Generated_Source\PSoC5/CapSense_CSHL.c ****                             /* Start of centroid */
 891:.\Generated_Source\PSoC5/CapSense_CSHL.c ****                             curCtrdStartPos = i;
 892:.\Generated_Source\PSoC5/CapSense_CSHL.c ****                             curCntrdSize++;
 893:.\Generated_Source\PSoC5/CapSense_CSHL.c ****                         }
 894:.\Generated_Source\PSoC5/CapSense_CSHL.c ****                         else
 895:.\Generated_Source\PSoC5/CapSense_CSHL.c ****                         {
 896:.\Generated_Source\PSoC5/CapSense_CSHL.c ****                             curCntrdSize++;
 897:.\Generated_Source\PSoC5/CapSense_CSHL.c ****                         }
 898:.\Generated_Source\PSoC5/CapSense_CSHL.c ****                     }
 899:.\Generated_Source\PSoC5/CapSense_CSHL.c ****                     else   /* Select the bigest and indicate zero start */
 900:.\Generated_Source\PSoC5/CapSense_CSHL.c ****                     {          
 901:.\Generated_Source\PSoC5/CapSense_CSHL.c ****                         if(curCntrdSize > 0u)
 902:.\Generated_Source\PSoC5/CapSense_CSHL.c ****                         {
 903:.\Generated_Source\PSoC5/CapSense_CSHL.c ****                             /* We are in the end of current */
 904:.\Generated_Source\PSoC5/CapSense_CSHL.c ****                             if(curCntrdSize > biggestCtrdSize)
 905:.\Generated_Source\PSoC5/CapSense_CSHL.c ****                             {
 906:.\Generated_Source\PSoC5/CapSense_CSHL.c ****                                 biggestCtrdSize = curCntrdSize;
 907:.\Generated_Source\PSoC5/CapSense_CSHL.c ****                                 biggestCtrdStartPos = curCtrdStartPos;
 908:.\Generated_Source\PSoC5/CapSense_CSHL.c ****                             }
 909:.\Generated_Source\PSoC5/CapSense_CSHL.c ****                             
 910:.\Generated_Source\PSoC5/CapSense_CSHL.c ****                             curCntrdSize = 0u;
 911:.\Generated_Source\PSoC5/CapSense_CSHL.c ****                             curCtrdStartPos = 0xFFu;
 912:.\Generated_Source\PSoC5/CapSense_CSHL.c ****                         }
 913:.\Generated_Source\PSoC5/CapSense_CSHL.c ****                     }
 914:.\Generated_Source\PSoC5/CapSense_CSHL.c ****                     
 915:.\Generated_Source\PSoC5/CapSense_CSHL.c ****                     i++; 
 916:.\Generated_Source\PSoC5/CapSense_CSHL.c ****                     curPos = diplex[i];
 917:.\Generated_Source\PSoC5/CapSense_CSHL.c ****                     if(i == count)
 918:.\Generated_Source\PSoC5/CapSense_CSHL.c ****                     {
 919:.\Generated_Source\PSoC5/CapSense_CSHL.c ****                         break;
 920:.\Generated_Source\PSoC5/CapSense_CSHL.c ****                     }            
 921:.\Generated_Source\PSoC5/CapSense_CSHL.c ****                 }
 922:.\Generated_Source\PSoC5/CapSense_CSHL.c ****                     
 923:.\Generated_Source\PSoC5/CapSense_CSHL.c ****                     /* Find the biggest centroid if two are the same size, last one wins
 924:.\Generated_Source\PSoC5/CapSense_CSHL.c ****                        We are in the end of current */
 925:.\Generated_Source\PSoC5/CapSense_CSHL.c ****                 if (curCntrdSize >= biggestCtrdSize) 
 926:.\Generated_Source\PSoC5/CapSense_CSHL.c ****                 {
 927:.\Generated_Source\PSoC5/CapSense_CSHL.c ****                     biggestCtrdSize = curCntrdSize;
 928:.\Generated_Source\PSoC5/CapSense_CSHL.c ****                     biggestCtrdStartPos = curCtrdStartPos;
 929:.\Generated_Source\PSoC5/CapSense_CSHL.c ****                 }
 930:.\Generated_Source\PSoC5/CapSense_CSHL.c ****             }
 931:.\Generated_Source\PSoC5/CapSense_CSHL.c ****             else
 932:.\Generated_Source\PSoC5/CapSense_CSHL.c ****             {
 933:.\Generated_Source\PSoC5/CapSense_CSHL.c ****                 /* Without diplexing */ 
 934:.\Generated_Source\PSoC5/CapSense_CSHL.c ****                 biggestCtrdSize = count;
 935:.\Generated_Source\PSoC5/CapSense_CSHL.c ****             }
 936:.\Generated_Source\PSoC5/CapSense_CSHL.c ****                         
 937:.\Generated_Source\PSoC5/CapSense_CSHL.c **** 
 938:.\Generated_Source\PSoC5/CapSense_CSHL.c ****             /* Check centroid size */
 939:.\Generated_Source\PSoC5/CapSense_CSHL.c ****             #if (CapSense_IS_NON_DIPLEX_SLIDER)
 940:.\Generated_Source\PSoC5/CapSense_CSHL.c ****                 if((biggestCtrdSize >= 2u) || ((biggestCtrdSize == 1u) && (diplex == 0u)))
 941:.\Generated_Source\PSoC5/CapSense_CSHL.c ****             #else                    
 942:.\Generated_Source\PSoC5/CapSense_CSHL.c ****                 if(biggestCtrdSize >= 2u)
 943:.\Generated_Source\PSoC5/CapSense_CSHL.c ****             #endif /* (CapSense_IS_NON_DIPLEX_SLIDER) */
ARM GAS  C:\Users\lenovo\AppData\Local\Temp\ccnUwRoN.s 			page 29


 944:.\Generated_Source\PSoC5/CapSense_CSHL.c ****                 {
 945:.\Generated_Source\PSoC5/CapSense_CSHL.c ****                     for (i = biggestCtrdStartPos; i < (biggestCtrdStartPos + biggestCtrdSize); i++)
 946:.\Generated_Source\PSoC5/CapSense_CSHL.c ****                     {
 947:.\Generated_Source\PSoC5/CapSense_CSHL.c ****                         #if (CapSense_IS_DIPLEX_SLIDER && CapSense_IS_NON_DIPLEX_SLIDER)
 948:.\Generated_Source\PSoC5/CapSense_CSHL.c ****                             if (diplex == 0u)
 949:.\Generated_Source\PSoC5/CapSense_CSHL.c ****                             {
 950:.\Generated_Source\PSoC5/CapSense_CSHL.c ****                                 curPos = i;
 951:.\Generated_Source\PSoC5/CapSense_CSHL.c ****                             }
 952:.\Generated_Source\PSoC5/CapSense_CSHL.c ****                             else
 953:.\Generated_Source\PSoC5/CapSense_CSHL.c ****                             {
 954:.\Generated_Source\PSoC5/CapSense_CSHL.c ****                                 curPos = diplex[i];
 955:.\Generated_Source\PSoC5/CapSense_CSHL.c ****                             }                    
 956:.\Generated_Source\PSoC5/CapSense_CSHL.c ****                         #elif (CapSense_IS_DIPLEX_SLIDER)                    
 957:.\Generated_Source\PSoC5/CapSense_CSHL.c ****                             curPos = diplex[i];                    
 958:.\Generated_Source\PSoC5/CapSense_CSHL.c ****                         #endif /* (CapSense_IS_DIPLEX_SLIDER && CapSense_IS_NON_DIPLEX_SLIDER) */
 959:.\Generated_Source\PSoC5/CapSense_CSHL.c ****                         /* Looking for the grater element within centroid */
 960:.\Generated_Source\PSoC5/CapSense_CSHL.c ****                         if(startOfSlider[curPos] > fingerThreshold)
 961:.\Generated_Source\PSoC5/CapSense_CSHL.c ****                         {
 962:.\Generated_Source\PSoC5/CapSense_CSHL.c ****                             if(startOfSlider[curPos] > temp)
 963:.\Generated_Source\PSoC5/CapSense_CSHL.c ****                             {
 964:.\Generated_Source\PSoC5/CapSense_CSHL.c ****                                 maximum = i;
 965:.\Generated_Source\PSoC5/CapSense_CSHL.c ****                                 temp = startOfSlider[curPos];
 966:.\Generated_Source\PSoC5/CapSense_CSHL.c ****                             }
 967:.\Generated_Source\PSoC5/CapSense_CSHL.c ****                         }
 968:.\Generated_Source\PSoC5/CapSense_CSHL.c ****                     }
 969:.\Generated_Source\PSoC5/CapSense_CSHL.c ****                 } 
 970:.\Generated_Source\PSoC5/CapSense_CSHL.c ****         #else
 971:.\Generated_Source\PSoC5/CapSense_CSHL.c ****             for (i = 0u; i < count; i++)
 645              		.loc 1 971 0
 646 000a 3346     		mov	r3, r6
 647 000c 08E0     		b	.L56
 648              	.LVL83:
 649              	.L58:
 972:.\Generated_Source\PSoC5/CapSense_CSHL.c ****             {                      
 973:.\Generated_Source\PSoC5/CapSense_CSHL.c ****                 /* Looking for the grater element within centroid */
 974:.\Generated_Source\PSoC5/CapSense_CSHL.c ****                 if(startOfSlider[i] > fingerThreshold)
 650              		.loc 1 974 0
 651 000e EC5C     		ldrb	r4, [r5, r3]	@ zero_extendqisi2
 652 0010 9442     		cmp	r4, r2
 653 0012 03D9     		bls	.L57
 975:.\Generated_Source\PSoC5/CapSense_CSHL.c ****                 {
 976:.\Generated_Source\PSoC5/CapSense_CSHL.c ****                     if(startOfSlider[i] > temp)
 654              		.loc 1 976 0
 655 0014 A642     		cmp	r6, r4
 656 0016 01D2     		bcs	.L57
 977:.\Generated_Source\PSoC5/CapSense_CSHL.c ****                     {
 978:.\Generated_Source\PSoC5/CapSense_CSHL.c ****                         maximum = i;
 979:.\Generated_Source\PSoC5/CapSense_CSHL.c ****                         temp = startOfSlider[i];
 657              		.loc 1 979 0
 658 0018 2646     		mov	r6, r4
 659              	.LVL84:
 978:.\Generated_Source\PSoC5/CapSense_CSHL.c ****                         temp = startOfSlider[i];
 660              		.loc 1 978 0
 661 001a 1846     		mov	r0, r3
 662              	.LVL85:
 663              	.L57:
 971:.\Generated_Source\PSoC5/CapSense_CSHL.c ****             {                      
ARM GAS  C:\Users\lenovo\AppData\Local\Temp\ccnUwRoN.s 			page 30


 664              		.loc 1 971 0 discriminator 2
 665 001c 0133     		adds	r3, r3, #1
 666              	.LVL86:
 667 001e DBB2     		uxtb	r3, r3
 668              	.LVL87:
 669              	.L56:
 971:.\Generated_Source\PSoC5/CapSense_CSHL.c ****             {                      
 670              		.loc 1 971 0 is_stmt 0 discriminator 1
 671 0020 8B42     		cmp	r3, r1
 672 0022 F4D3     		bcc	.L58
 980:.\Generated_Source\PSoC5/CapSense_CSHL.c ****                     }
 981:.\Generated_Source\PSoC5/CapSense_CSHL.c ****                 }
 982:.\Generated_Source\PSoC5/CapSense_CSHL.c ****             }    
 983:.\Generated_Source\PSoC5/CapSense_CSHL.c ****         #endif /* (CapSense_IS_DIPLEX_SLIDER) */
 984:.\Generated_Source\PSoC5/CapSense_CSHL.c ****         return (maximum);
 985:.\Generated_Source\PSoC5/CapSense_CSHL.c ****     }
 673              		.loc 1 985 0 is_stmt 1
 674 0024 70BC     		pop	{r4, r5, r6}
 675              		.cfi_restore 6
 676              		.cfi_restore 5
 677              		.cfi_restore 4
 678              		.cfi_def_cfa_offset 0
 679              	.LVL88:
 680 0026 7047     		bx	lr
 681              	.L62:
 682              		.align	2
 683              	.L61:
 684 0028 00000000 		.word	CapSense_sensorSignal
 685              		.cfi_endproc
 686              	.LFE11:
 687              		.size	CapSense_FindMaximum, .-CapSense_FindMaximum
 688              		.section	.text.CapSense_CalcCentroid,"ax",%progbits
 689              		.align	2
 690              		.global	CapSense_CalcCentroid
 691              		.thumb
 692              		.thumb_func
 693              		.type	CapSense_CalcCentroid, %function
 694              	CapSense_CalcCentroid:
 695              	.LFB12:
 986:.\Generated_Source\PSoC5/CapSense_CSHL.c ****     
 987:.\Generated_Source\PSoC5/CapSense_CSHL.c ****     
 988:.\Generated_Source\PSoC5/CapSense_CSHL.c ****     /*******************************************************************************
 989:.\Generated_Source\PSoC5/CapSense_CSHL.c ****     * Function Name: CapSense_CalcCentroid
 990:.\Generated_Source\PSoC5/CapSense_CSHL.c ****     ********************************************************************************
 991:.\Generated_Source\PSoC5/CapSense_CSHL.c ****     *
 992:.\Generated_Source\PSoC5/CapSense_CSHL.c ****     * Summary:
 993:.\Generated_Source\PSoC5/CapSense_CSHL.c ****     *  Returns position value calculated accoring index of maximum element and API
 994:.\Generated_Source\PSoC5/CapSense_CSHL.c ****     *  resolution.
 995:.\Generated_Source\PSoC5/CapSense_CSHL.c ****     *
 996:.\Generated_Source\PSoC5/CapSense_CSHL.c ****     * Parameters:
 997:.\Generated_Source\PSoC5/CapSense_CSHL.c ****     *  type:  widget type.
 998:.\Generated_Source\PSoC5/CapSense_CSHL.c ****     *  diplex:  pointer to diplex table.
 999:.\Generated_Source\PSoC5/CapSense_CSHL.c ****     *  maximum:  Index of maximum element within centroid.
1000:.\Generated_Source\PSoC5/CapSense_CSHL.c ****     *  offset:   Start index of cetroid in CapSense_SensorSignal[] array.
1001:.\Generated_Source\PSoC5/CapSense_CSHL.c ****     *  count:    Number of elements within centroid.
1002:.\Generated_Source\PSoC5/CapSense_CSHL.c ****     *  resolution:  multiplicator calculated according to centroid type and
1003:.\Generated_Source\PSoC5/CapSense_CSHL.c ****     *  API resolution.
ARM GAS  C:\Users\lenovo\AppData\Local\Temp\ccnUwRoN.s 			page 31


1004:.\Generated_Source\PSoC5/CapSense_CSHL.c ****     *  noiseThreshold:  Noise threshould.
1005:.\Generated_Source\PSoC5/CapSense_CSHL.c ****     * 
1006:.\Generated_Source\PSoC5/CapSense_CSHL.c ****     * Return:
1007:.\Generated_Source\PSoC5/CapSense_CSHL.c ****     *  Returns position value of the slider.
1008:.\Generated_Source\PSoC5/CapSense_CSHL.c ****     * 
1009:.\Generated_Source\PSoC5/CapSense_CSHL.c ****     *
1010:.\Generated_Source\PSoC5/CapSense_CSHL.c ****     * Reentrant:
1011:.\Generated_Source\PSoC5/CapSense_CSHL.c ****     *  No.
1012:.\Generated_Source\PSoC5/CapSense_CSHL.c ****     *
1013:.\Generated_Source\PSoC5/CapSense_CSHL.c ****     *******************************************************************************/
1014:.\Generated_Source\PSoC5/CapSense_CSHL.c ****     uint8 CapSense_CalcCentroid(uint8 maximum, uint8 offset, 
1015:.\Generated_Source\PSoC5/CapSense_CSHL.c ****                                         uint8 count, uint16 resolution, uint8 noiseThreshold)
1016:.\Generated_Source\PSoC5/CapSense_CSHL.c **** 	                                    
1017:.\Generated_Source\PSoC5/CapSense_CSHL.c ****     {
 696              		.loc 1 1017 0
 697              		.cfi_startproc
 698              		@ args = 4, pretend = 0, frame = 0
 699              		@ frame_needed = 0, uses_anonymous_args = 0
 700              	.LVL89:
 701 0000 F0B5     		push	{r4, r5, r6, r7, lr}
 702              		.cfi_def_cfa_offset 20
 703              		.cfi_offset 4, -20
 704              		.cfi_offset 5, -16
 705              		.cfi_offset 6, -12
 706              		.cfi_offset 7, -8
 707              		.cfi_offset 14, -4
 708 0002 9DF81450 		ldrb	r5, [sp, #20]	@ zero_extendqisi2
 709              	.LVL90:
1018:.\Generated_Source\PSoC5/CapSense_CSHL.c ****         #if ((CapSense_TOTAL_LINEAR_SLIDERS_COUNT > 0u) || (CapSense_TOTAL_TOUCH_PADS_COUNT > 0u))
1019:.\Generated_Source\PSoC5/CapSense_CSHL.c ****             uint8 posPrev = 0u;
1020:.\Generated_Source\PSoC5/CapSense_CSHL.c ****             uint8 posNext = 0u;
1021:.\Generated_Source\PSoC5/CapSense_CSHL.c ****         #endif /* ((CapSense_TOTAL_LINEAR_SLIDERS_COUNT>0u) || (CapSense_TOTAL_TOUCH_PADS_COUNT>0u)
1022:.\Generated_Source\PSoC5/CapSense_CSHL.c ****                
1023:.\Generated_Source\PSoC5/CapSense_CSHL.c ****         #if (CapSense_IS_DIPLEX_SLIDER)                
1024:.\Generated_Source\PSoC5/CapSense_CSHL.c ****             uint8 pos;
1025:.\Generated_Source\PSoC5/CapSense_CSHL.c ****         #endif /* (CapSense_IS_DIPLEX_SLIDER) */
1026:.\Generated_Source\PSoC5/CapSense_CSHL.c ****         
1027:.\Generated_Source\PSoC5/CapSense_CSHL.c ****         /* Helps while centroid calulation */
1028:.\Generated_Source\PSoC5/CapSense_CSHL.c ****         static uint8 CapSense_centroid[3u];
1029:.\Generated_Source\PSoC5/CapSense_CSHL.c **** 
1030:.\Generated_Source\PSoC5/CapSense_CSHL.c ****         uint8 position;
1031:.\Generated_Source\PSoC5/CapSense_CSHL.c ****         uint32 numerator;
1032:.\Generated_Source\PSoC5/CapSense_CSHL.c ****         int32 denominator;
1033:.\Generated_Source\PSoC5/CapSense_CSHL.c ****         uint8 *startOfSlider = &CapSense_sensorSignal[offset];
 710              		.loc 1 1033 0
 711 0006 284C     		ldr	r4, .L74
 712 0008 2144     		add	r1, r1, r4
 713              	.LVL91:
1034:.\Generated_Source\PSoC5/CapSense_CSHL.c ****                     
1035:.\Generated_Source\PSoC5/CapSense_CSHL.c ****         #if (CapSense_ADD_SLIDER_TYPE)
1036:.\Generated_Source\PSoC5/CapSense_CSHL.c ****             if(type == CapSense_TYPE_RADIAL_SLIDER)
1037:.\Generated_Source\PSoC5/CapSense_CSHL.c ****             {
1038:.\Generated_Source\PSoC5/CapSense_CSHL.c ****         #endif /* (CapSense_ADD_SLIDER_TYPE) */
1039:.\Generated_Source\PSoC5/CapSense_CSHL.c **** 
1040:.\Generated_Source\PSoC5/CapSense_CSHL.c ****             #if (CapSense_TOTAL_RADIAL_SLIDERS_COUNT > 0u)                
1041:.\Generated_Source\PSoC5/CapSense_CSHL.c ****                 /* Copy Signal for found centriod */
1042:.\Generated_Source\PSoC5/CapSense_CSHL.c ****                 CapSense_centroid[CapSense_POS] = startOfSlider[maximum];
ARM GAS  C:\Users\lenovo\AppData\Local\Temp\ccnUwRoN.s 			page 32


1043:.\Generated_Source\PSoC5/CapSense_CSHL.c ****                  
1044:.\Generated_Source\PSoC5/CapSense_CSHL.c ****                 /* Check borders for ROTARY Slider */
1045:.\Generated_Source\PSoC5/CapSense_CSHL.c ****                 if (maximum == 0u)                   /* Start of centroid */
1046:.\Generated_Source\PSoC5/CapSense_CSHL.c ****                 { 
1047:.\Generated_Source\PSoC5/CapSense_CSHL.c ****                     CapSense_centroid[CapSense_POS_PREV] = startOfSlider[count - 1u];
1048:.\Generated_Source\PSoC5/CapSense_CSHL.c ****                     CapSense_centroid[CapSense_POS_NEXT] = startOfSlider[1u];
1049:.\Generated_Source\PSoC5/CapSense_CSHL.c ****                 }
1050:.\Generated_Source\PSoC5/CapSense_CSHL.c ****                 else if (maximum == (count - 1u))    /* End of centroid */
1051:.\Generated_Source\PSoC5/CapSense_CSHL.c ****                 {
1052:.\Generated_Source\PSoC5/CapSense_CSHL.c ****                     CapSense_centroid[CapSense_POS_PREV] = startOfSlider[maximum - 1u];
1053:.\Generated_Source\PSoC5/CapSense_CSHL.c ****                     CapSense_centroid[CapSense_POS_NEXT] = startOfSlider[0u];
1054:.\Generated_Source\PSoC5/CapSense_CSHL.c ****                 }
1055:.\Generated_Source\PSoC5/CapSense_CSHL.c ****                 else                                /* Not first Not last */
1056:.\Generated_Source\PSoC5/CapSense_CSHL.c ****                 {
1057:.\Generated_Source\PSoC5/CapSense_CSHL.c ****                     CapSense_centroid[CapSense_POS_PREV] = startOfSlider[maximum - 1u];
1058:.\Generated_Source\PSoC5/CapSense_CSHL.c ****                     CapSense_centroid[CapSense_POS_NEXT] = startOfSlider[maximum + 1u];
1059:.\Generated_Source\PSoC5/CapSense_CSHL.c ****                 }
1060:.\Generated_Source\PSoC5/CapSense_CSHL.c ****             #endif /* (CapSense_TOTAL_RADIAL_SLIDERS_COUNT > 0u) */
1061:.\Generated_Source\PSoC5/CapSense_CSHL.c **** 
1062:.\Generated_Source\PSoC5/CapSense_CSHL.c ****         #if (CapSense_ADD_SLIDER_TYPE)
1063:.\Generated_Source\PSoC5/CapSense_CSHL.c ****             }
1064:.\Generated_Source\PSoC5/CapSense_CSHL.c ****             else
1065:.\Generated_Source\PSoC5/CapSense_CSHL.c ****             {
1066:.\Generated_Source\PSoC5/CapSense_CSHL.c ****         #endif /* (CapSense_ADD_SLIDER_TYPE) */
1067:.\Generated_Source\PSoC5/CapSense_CSHL.c **** 
1068:.\Generated_Source\PSoC5/CapSense_CSHL.c ****             #if ((CapSense_TOTAL_LINEAR_SLIDERS_COUNT > 0u) || (CapSense_TOTAL_TOUCH_PADS_COUNT > 0
1069:.\Generated_Source\PSoC5/CapSense_CSHL.c ****                 #if (CapSense_IS_DIPLEX_SLIDER && CapSense_IS_NON_DIPLEX_SLIDER)                   
1070:.\Generated_Source\PSoC5/CapSense_CSHL.c ****                     /* Calculate next and previous near to maximum */
1071:.\Generated_Source\PSoC5/CapSense_CSHL.c ****                     if(diplex == 0u)
1072:.\Generated_Source\PSoC5/CapSense_CSHL.c ****                     {
1073:.\Generated_Source\PSoC5/CapSense_CSHL.c ****                         pos     = maximum;
1074:.\Generated_Source\PSoC5/CapSense_CSHL.c ****                         posPrev = maximum - 1u;
1075:.\Generated_Source\PSoC5/CapSense_CSHL.c ****                         posNext = maximum + 1u; 
1076:.\Generated_Source\PSoC5/CapSense_CSHL.c ****                     }
1077:.\Generated_Source\PSoC5/CapSense_CSHL.c ****                     else
1078:.\Generated_Source\PSoC5/CapSense_CSHL.c ****                     {
1079:.\Generated_Source\PSoC5/CapSense_CSHL.c ****                         pos     = diplex[maximum];
1080:.\Generated_Source\PSoC5/CapSense_CSHL.c ****                         posPrev = diplex[maximum - 1u];
1081:.\Generated_Source\PSoC5/CapSense_CSHL.c ****                         posNext = diplex[maximum + 1u];
1082:.\Generated_Source\PSoC5/CapSense_CSHL.c ****                         count <<= 1u;
1083:.\Generated_Source\PSoC5/CapSense_CSHL.c ****                     }                    
1084:.\Generated_Source\PSoC5/CapSense_CSHL.c ****                 #elif (CapSense_IS_DIPLEX_SLIDER)
1085:.\Generated_Source\PSoC5/CapSense_CSHL.c ****                     /* Calculate next and previous near to maximum */
1086:.\Generated_Source\PSoC5/CapSense_CSHL.c ****                     pos     = diplex[maximum];
1087:.\Generated_Source\PSoC5/CapSense_CSHL.c ****                     posPrev = diplex[maximum - 1u];
1088:.\Generated_Source\PSoC5/CapSense_CSHL.c ****                     posNext = diplex[maximum + 1u];
1089:.\Generated_Source\PSoC5/CapSense_CSHL.c ****                     count <<= 1u;                    
1090:.\Generated_Source\PSoC5/CapSense_CSHL.c ****                 #else                    
1091:.\Generated_Source\PSoC5/CapSense_CSHL.c ****                     /* Calculate next and previous near to maximum */
1092:.\Generated_Source\PSoC5/CapSense_CSHL.c ****                     if (maximum >= 1u)
 714              		.loc 1 1092 0
 715 000a 0446     		mov	r4, r0
 716 000c 10B1     		cbz	r0, .L72
1093:.\Generated_Source\PSoC5/CapSense_CSHL.c ****                     {
1094:.\Generated_Source\PSoC5/CapSense_CSHL.c ****                         posPrev = maximum - 1u;
 717              		.loc 1 1094 0
 718 000e 461E     		subs	r6, r0, #1
ARM GAS  C:\Users\lenovo\AppData\Local\Temp\ccnUwRoN.s 			page 33


 719 0010 F6B2     		uxtb	r6, r6
 720              	.LVL92:
 721 0012 00E0     		b	.L64
 722              	.LVL93:
 723              	.L72:
1019:.\Generated_Source\PSoC5/CapSense_CSHL.c ****             uint8 posNext = 0u;
 724              		.loc 1 1019 0
 725 0014 0026     		movs	r6, #0
 726              	.LVL94:
 727              	.L64:
1095:.\Generated_Source\PSoC5/CapSense_CSHL.c ****                     }
1096:.\Generated_Source\PSoC5/CapSense_CSHL.c ****                     posNext = maximum + 1u; 
 728              		.loc 1 1096 0
 729 0016 601C     		adds	r0, r4, #1
 730              	.LVL95:
 731 0018 C0B2     		uxtb	r0, r0
 732              	.LVL96:
1097:.\Generated_Source\PSoC5/CapSense_CSHL.c ****                 #endif /* (CapSense_IS_DIPLEX_SLIDER && CapSense_IS_NON_DIPLEX_SLIDER) */
1098:.\Generated_Source\PSoC5/CapSense_CSHL.c ****                         
1099:.\Generated_Source\PSoC5/CapSense_CSHL.c ****                 /* Copy Signal for found centriod */
1100:.\Generated_Source\PSoC5/CapSense_CSHL.c ****                 #if (CapSense_IS_DIPLEX_SLIDER)
1101:.\Generated_Source\PSoC5/CapSense_CSHL.c ****                     CapSense_centroid[CapSense_POS] = startOfSlider[pos];
1102:.\Generated_Source\PSoC5/CapSense_CSHL.c ****                 #else
1103:.\Generated_Source\PSoC5/CapSense_CSHL.c ****                     CapSense_centroid[CapSense_POS] = startOfSlider[maximum];
 733              		.loc 1 1103 0
 734 001a 11F804E0 		ldrb	lr, [r1, r4]	@ zero_extendqisi2
 735 001e 234F     		ldr	r7, .L74+4
 736 0020 87F805E0 		strb	lr, [r7, #5]
1104:.\Generated_Source\PSoC5/CapSense_CSHL.c ****                 #endif /* (CapSense_IS_DIPLEX_SLIDER) */
1105:.\Generated_Source\PSoC5/CapSense_CSHL.c ****                     
1106:.\Generated_Source\PSoC5/CapSense_CSHL.c ****                 /* Check borders for LINEAR Slider */
1107:.\Generated_Source\PSoC5/CapSense_CSHL.c ****                 if (maximum == 0u)                   /* Start of centroid */
 737              		.loc 1 1107 0
 738 0024 24B9     		cbnz	r4, .L65
1108:.\Generated_Source\PSoC5/CapSense_CSHL.c ****                 { 
1109:.\Generated_Source\PSoC5/CapSense_CSHL.c ****                     CapSense_centroid[CapSense_POS_PREV] = 0u;
 739              		.loc 1 1109 0
 740 0026 0026     		movs	r6, #0
 741              	.LVL97:
 742 0028 3E71     		strb	r6, [r7, #4]
1110:.\Generated_Source\PSoC5/CapSense_CSHL.c ****                     CapSense_centroid[CapSense_POS_NEXT] = startOfSlider[posNext];
 743              		.loc 1 1110 0
 744 002a 095C     		ldrb	r1, [r1, r0]	@ zero_extendqisi2
 745              	.LVL98:
 746 002c B971     		strb	r1, [r7, #6]
 747 002e 0DE0     		b	.L66
 748              	.LVL99:
 749              	.L65:
1111:.\Generated_Source\PSoC5/CapSense_CSHL.c ****                 }
1112:.\Generated_Source\PSoC5/CapSense_CSHL.c ****                 else if (maximum == ((count) - 1u)) /* End of centroid */
 750              		.loc 1 1112 0
 751 0030 013A     		subs	r2, r2, #1
 752              	.LVL100:
 753 0032 9442     		cmp	r4, r2
 754 0034 05D1     		bne	.L67
1113:.\Generated_Source\PSoC5/CapSense_CSHL.c ****                 {
1114:.\Generated_Source\PSoC5/CapSense_CSHL.c ****                     CapSense_centroid[CapSense_POS_PREV] = startOfSlider[posPrev];
ARM GAS  C:\Users\lenovo\AppData\Local\Temp\ccnUwRoN.s 			page 34


 755              		.loc 1 1114 0
 756 0036 895D     		ldrb	r1, [r1, r6]	@ zero_extendqisi2
 757              	.LVL101:
 758 0038 1C4A     		ldr	r2, .L74+4
 759 003a 1171     		strb	r1, [r2, #4]
1115:.\Generated_Source\PSoC5/CapSense_CSHL.c ****                     CapSense_centroid[CapSense_POS_NEXT] = 0u;
 760              		.loc 1 1115 0
 761 003c 0021     		movs	r1, #0
 762 003e 9171     		strb	r1, [r2, #6]
 763 0040 04E0     		b	.L66
 764              	.LVL102:
 765              	.L67:
1116:.\Generated_Source\PSoC5/CapSense_CSHL.c ****                 }
1117:.\Generated_Source\PSoC5/CapSense_CSHL.c ****                 else                                /* Not first Not last */
1118:.\Generated_Source\PSoC5/CapSense_CSHL.c ****                 {
1119:.\Generated_Source\PSoC5/CapSense_CSHL.c ****                     CapSense_centroid[CapSense_POS_PREV] = startOfSlider[posPrev];
 766              		.loc 1 1119 0
 767 0042 8E5D     		ldrb	r6, [r1, r6]	@ zero_extendqisi2
 768              	.LVL103:
 769 0044 194A     		ldr	r2, .L74+4
 770 0046 1671     		strb	r6, [r2, #4]
1120:.\Generated_Source\PSoC5/CapSense_CSHL.c ****                     CapSense_centroid[CapSense_POS_NEXT] = startOfSlider[posNext];
 771              		.loc 1 1120 0
 772 0048 095C     		ldrb	r1, [r1, r0]	@ zero_extendqisi2
 773              	.LVL104:
 774 004a 9171     		strb	r1, [r2, #6]
 775              	.L66:
1121:.\Generated_Source\PSoC5/CapSense_CSHL.c ****                 }
1122:.\Generated_Source\PSoC5/CapSense_CSHL.c ****             #endif /* ((CapSense_TOTAL_LINEAR_SLIDERS_COUNT>0u)||(CapSense_TOTAL_TOUCH_PADS_COUNT>0
1123:.\Generated_Source\PSoC5/CapSense_CSHL.c **** 
1124:.\Generated_Source\PSoC5/CapSense_CSHL.c ****         #if (CapSense_ADD_SLIDER_TYPE)
1125:.\Generated_Source\PSoC5/CapSense_CSHL.c ****             }
1126:.\Generated_Source\PSoC5/CapSense_CSHL.c ****         #endif /* (CapSense_ADD_SLIDER_TYPE) */
1127:.\Generated_Source\PSoC5/CapSense_CSHL.c ****     
1128:.\Generated_Source\PSoC5/CapSense_CSHL.c ****         /* Subtract noiseThreshold */
1129:.\Generated_Source\PSoC5/CapSense_CSHL.c ****         if(CapSense_centroid[CapSense_POS_PREV] > noiseThreshold)
 776              		.loc 1 1129 0
 777 004c 174A     		ldr	r2, .L74+4
 778 004e 1279     		ldrb	r2, [r2, #4]	@ zero_extendqisi2
 779 0050 AA42     		cmp	r2, r5
 780 0052 03D9     		bls	.L68
1130:.\Generated_Source\PSoC5/CapSense_CSHL.c ****         {
1131:.\Generated_Source\PSoC5/CapSense_CSHL.c ****             CapSense_centroid[CapSense_POS_PREV] -= noiseThreshold;
 781              		.loc 1 1131 0
 782 0054 521B     		subs	r2, r2, r5
 783 0056 1549     		ldr	r1, .L74+4
 784 0058 0A71     		strb	r2, [r1, #4]
 785 005a 02E0     		b	.L69
 786              	.L68:
1132:.\Generated_Source\PSoC5/CapSense_CSHL.c ****         }
1133:.\Generated_Source\PSoC5/CapSense_CSHL.c ****         else
1134:.\Generated_Source\PSoC5/CapSense_CSHL.c ****         {
1135:.\Generated_Source\PSoC5/CapSense_CSHL.c ****             CapSense_centroid[CapSense_POS_PREV] = 0u;
 787              		.loc 1 1135 0
 788 005c 0021     		movs	r1, #0
 789 005e 134A     		ldr	r2, .L74+4
 790 0060 1171     		strb	r1, [r2, #4]
ARM GAS  C:\Users\lenovo\AppData\Local\Temp\ccnUwRoN.s 			page 35


 791              	.L69:
1136:.\Generated_Source\PSoC5/CapSense_CSHL.c ****         }
1137:.\Generated_Source\PSoC5/CapSense_CSHL.c ****         
1138:.\Generated_Source\PSoC5/CapSense_CSHL.c ****         /* Maximum always grater than fingerThreshold, so grate than noiseThreshold */
1139:.\Generated_Source\PSoC5/CapSense_CSHL.c ****         CapSense_centroid[CapSense_POS] -= noiseThreshold;
 792              		.loc 1 1139 0
 793 0062 124A     		ldr	r2, .L74+4
 794 0064 5179     		ldrb	r1, [r2, #5]	@ zero_extendqisi2
 795 0066 491B     		subs	r1, r1, r5
 796 0068 C9B2     		uxtb	r1, r1
 797 006a 5171     		strb	r1, [r2, #5]
1140:.\Generated_Source\PSoC5/CapSense_CSHL.c ****         
1141:.\Generated_Source\PSoC5/CapSense_CSHL.c ****         /* Subtract noiseThreshold */
1142:.\Generated_Source\PSoC5/CapSense_CSHL.c ****         if(CapSense_centroid[CapSense_POS_NEXT] > noiseThreshold)
 798              		.loc 1 1142 0
 799 006c 9279     		ldrb	r2, [r2, #6]	@ zero_extendqisi2
 800 006e AA42     		cmp	r2, r5
 801 0070 03D9     		bls	.L70
1143:.\Generated_Source\PSoC5/CapSense_CSHL.c ****         {
1144:.\Generated_Source\PSoC5/CapSense_CSHL.c ****             CapSense_centroid[CapSense_POS_NEXT] -= noiseThreshold;
 802              		.loc 1 1144 0
 803 0072 551B     		subs	r5, r2, r5
 804 0074 0D4A     		ldr	r2, .L74+4
 805 0076 9571     		strb	r5, [r2, #6]
 806 0078 02E0     		b	.L71
 807              	.L70:
1145:.\Generated_Source\PSoC5/CapSense_CSHL.c ****         }
1146:.\Generated_Source\PSoC5/CapSense_CSHL.c ****         else
1147:.\Generated_Source\PSoC5/CapSense_CSHL.c ****         {
1148:.\Generated_Source\PSoC5/CapSense_CSHL.c ****             CapSense_centroid[CapSense_POS_NEXT] = 0u;
 808              		.loc 1 1148 0
 809 007a 0020     		movs	r0, #0
 810              	.LVL105:
 811 007c 0B4A     		ldr	r2, .L74+4
 812 007e 9071     		strb	r0, [r2, #6]
 813              	.L71:
1149:.\Generated_Source\PSoC5/CapSense_CSHL.c ****         }
1150:.\Generated_Source\PSoC5/CapSense_CSHL.c ****         
1151:.\Generated_Source\PSoC5/CapSense_CSHL.c ****         
1152:.\Generated_Source\PSoC5/CapSense_CSHL.c ****         /* Si+1 - Si-1 */
1153:.\Generated_Source\PSoC5/CapSense_CSHL.c ****         numerator = (uint32) CapSense_centroid[CapSense_POS_NEXT] -
 814              		.loc 1 1153 0
 815 0080 0A4A     		ldr	r2, .L74+4
 816 0082 9079     		ldrb	r0, [r2, #6]	@ zero_extendqisi2
1154:.\Generated_Source\PSoC5/CapSense_CSHL.c ****                     (uint32) CapSense_centroid[CapSense_POS_PREV];
 817              		.loc 1 1154 0
 818 0084 1579     		ldrb	r5, [r2, #4]	@ zero_extendqisi2
1153:.\Generated_Source\PSoC5/CapSense_CSHL.c ****                     (uint32) CapSense_centroid[CapSense_POS_PREV];
 819              		.loc 1 1153 0
 820 0086 421B     		subs	r2, r0, r5
 821              	.LVL106:
1155:.\Generated_Source\PSoC5/CapSense_CSHL.c **** 
1156:.\Generated_Source\PSoC5/CapSense_CSHL.c ****         /* Si+1 + Si + Si-1 */
1157:.\Generated_Source\PSoC5/CapSense_CSHL.c ****         denominator = (int32) CapSense_centroid[CapSense_POS_PREV] + 
 822              		.loc 1 1157 0
 823 0088 2944     		add	r1, r1, r5
 824 008a 0844     		add	r0, r0, r1
ARM GAS  C:\Users\lenovo\AppData\Local\Temp\ccnUwRoN.s 			page 36


 825              	.LVL107:
1158:.\Generated_Source\PSoC5/CapSense_CSHL.c ****                       (int32) CapSense_centroid[CapSense_POS] + 
1159:.\Generated_Source\PSoC5/CapSense_CSHL.c ****                       (int32) CapSense_centroid[CapSense_POS_NEXT];
1160:.\Generated_Source\PSoC5/CapSense_CSHL.c ****         
1161:.\Generated_Source\PSoC5/CapSense_CSHL.c ****         /* (numerator/denominator) + maximum */
1162:.\Generated_Source\PSoC5/CapSense_CSHL.c ****         denominator = (((int32)(uint32)((uint32)numerator << 8u)/denominator) + (int32)(uint32)((ui
 826              		.loc 1 1162 0
 827 008c 1202     		lsls	r2, r2, #8
 828              	.LVL108:
 829 008e 92FBF0F0 		sdiv	r0, r2, r0
 830              	.LVL109:
 831 0092 00EB0420 		add	r0, r0, r4, lsl #8
 832              	.LVL110:
1163:.\Generated_Source\PSoC5/CapSense_CSHL.c **** 
1164:.\Generated_Source\PSoC5/CapSense_CSHL.c ****         #if(CapSense_TOTAL_RADIAL_SLIDERS_COUNT > 0u)
1165:.\Generated_Source\PSoC5/CapSense_CSHL.c ****             /* Only required for RADIAL Slider */
1166:.\Generated_Source\PSoC5/CapSense_CSHL.c ****             if(denominator < 0)
1167:.\Generated_Source\PSoC5/CapSense_CSHL.c ****             {
1168:.\Generated_Source\PSoC5/CapSense_CSHL.c ****                 denominator += (int32)((uint16)((uint16) count << 8u));
1169:.\Generated_Source\PSoC5/CapSense_CSHL.c ****             }
1170:.\Generated_Source\PSoC5/CapSense_CSHL.c ****         #endif /* (CapSense_TOTAL_RADIAL_SLIDERS_COUNT > 0u) */
1171:.\Generated_Source\PSoC5/CapSense_CSHL.c **** 
1172:.\Generated_Source\PSoC5/CapSense_CSHL.c ****         denominator *= (int16)resolution;
 833              		.loc 1 1172 0
 834 0096 1BB2     		sxth	r3, r3
 835 0098 00FB03F0 		mul	r0, r0, r3
 836              	.LVL111:
1173:.\Generated_Source\PSoC5/CapSense_CSHL.c **** 
1174:.\Generated_Source\PSoC5/CapSense_CSHL.c ****         /* Round the relust and put it to uint8 */
1175:.\Generated_Source\PSoC5/CapSense_CSHL.c ****         position = ((uint8) HI16((uint32)denominator + CapSense_CENTROID_ROUND_VALUE));
 837              		.loc 1 1175 0
 838 009c 00F5FE40 		add	r0, r0, #32512
 839              	.LVL112:
1176:.\Generated_Source\PSoC5/CapSense_CSHL.c **** 
1177:.\Generated_Source\PSoC5/CapSense_CSHL.c ****         return (position);
1178:.\Generated_Source\PSoC5/CapSense_CSHL.c ****     }    
 840              		.loc 1 1178 0
 841 00a0 C0F30740 		ubfx	r0, r0, #16, #8
 842              	.LVL113:
 843 00a4 F0BD     		pop	{r4, r5, r6, r7, pc}
 844              	.LVL114:
 845              	.L75:
 846 00a6 00BF     		.align	2
 847              	.L74:
 848 00a8 00000000 		.word	CapSense_sensorSignal
 849 00ac 00000000 		.word	.LANCHOR1
 850              		.cfi_endproc
 851              	.LFE12:
 852              		.size	CapSense_CalcCentroid, .-CapSense_CalcCentroid
 853              		.section	.text.CapSense_GetCentroidPos,"ax",%progbits
 854              		.align	2
 855              		.global	CapSense_GetCentroidPos
 856              		.thumb
 857              		.thumb_func
 858              		.type	CapSense_GetCentroidPos, %function
 859              	CapSense_GetCentroidPos:
 860              	.LFB13:
ARM GAS  C:\Users\lenovo\AppData\Local\Temp\ccnUwRoN.s 			page 37


1179:.\Generated_Source\PSoC5/CapSense_CSHL.c **** #endif /* (CapSense_TOTAL_CENTROIDS_COUNT) */
1180:.\Generated_Source\PSoC5/CapSense_CSHL.c **** 
1181:.\Generated_Source\PSoC5/CapSense_CSHL.c **** 
1182:.\Generated_Source\PSoC5/CapSense_CSHL.c **** #if(CapSense_TOTAL_LINEAR_SLIDERS_COUNT > 0u)
1183:.\Generated_Source\PSoC5/CapSense_CSHL.c ****     /*******************************************************************************
1184:.\Generated_Source\PSoC5/CapSense_CSHL.c ****     * Function Name: CapSense_GetCentroidPos
1185:.\Generated_Source\PSoC5/CapSense_CSHL.c ****     ********************************************************************************
1186:.\Generated_Source\PSoC5/CapSense_CSHL.c ****     *
1187:.\Generated_Source\PSoC5/CapSense_CSHL.c ****     * Summary:
1188:.\Generated_Source\PSoC5/CapSense_CSHL.c ****     *  Checks the CapSense_Signal[ ] array for a centroid within
1189:.\Generated_Source\PSoC5/CapSense_CSHL.c ****     *  slider specified range. The centroid position is calculated to the resolution
1190:.\Generated_Source\PSoC5/CapSense_CSHL.c ****     *  specified in the CapSense customizer. The position filters are applied to the
1191:.\Generated_Source\PSoC5/CapSense_CSHL.c ****     *  result if enabled.
1192:.\Generated_Source\PSoC5/CapSense_CSHL.c ****     *
1193:.\Generated_Source\PSoC5/CapSense_CSHL.c ****     * Parameters:
1194:.\Generated_Source\PSoC5/CapSense_CSHL.c ****     *  widget:  Widget number.
1195:.\Generated_Source\PSoC5/CapSense_CSHL.c ****     *  For every linear slider widget there are defines in this format:
1196:.\Generated_Source\PSoC5/CapSense_CSHL.c ****     *  #define CapSense_LS__"widget_name"            5
1197:.\Generated_Source\PSoC5/CapSense_CSHL.c ****     * 
1198:.\Generated_Source\PSoC5/CapSense_CSHL.c ****     * Return:
1199:.\Generated_Source\PSoC5/CapSense_CSHL.c ****     *  Returns position value of the linear slider.
1200:.\Generated_Source\PSoC5/CapSense_CSHL.c ****     *
1201:.\Generated_Source\PSoC5/CapSense_CSHL.c ****     * Side Effects:
1202:.\Generated_Source\PSoC5/CapSense_CSHL.c ****     *  If any sensor within the slider widget is active, the function returns values
1203:.\Generated_Source\PSoC5/CapSense_CSHL.c ****     *  from zero to the API resolution value set in the CapSense customizer. If no
1204:.\Generated_Source\PSoC5/CapSense_CSHL.c ****     *  sensors are active, the function returns 0xFFFF. If an error occurs during
1205:.\Generated_Source\PSoC5/CapSense_CSHL.c ****     *  execution of the centroid/diplexing algorithm, the function returns 0xFFFF.
1206:.\Generated_Source\PSoC5/CapSense_CSHL.c ****     *  There are no checks of widget type argument provided to this function.
1207:.\Generated_Source\PSoC5/CapSense_CSHL.c ****     *  The unproper widget type provided will cause unexpected position calculations.
1208:.\Generated_Source\PSoC5/CapSense_CSHL.c ****     *
1209:.\Generated_Source\PSoC5/CapSense_CSHL.c ****     * Note:
1210:.\Generated_Source\PSoC5/CapSense_CSHL.c ****     *  If noise counts on the slider segments are greater than the noise
1211:.\Generated_Source\PSoC5/CapSense_CSHL.c ****     *  threshold, this subroutine may generate a false centroid result. The noise
1212:.\Generated_Source\PSoC5/CapSense_CSHL.c ****     *  threshold should be set carefully (high enough above the noise level) so
1213:.\Generated_Source\PSoC5/CapSense_CSHL.c ****     *  that noise will not generate a false centroid.
1214:.\Generated_Source\PSoC5/CapSense_CSHL.c ****     *
1215:.\Generated_Source\PSoC5/CapSense_CSHL.c ****     * Reentrant:
1216:.\Generated_Source\PSoC5/CapSense_CSHL.c ****     *  No.
1217:.\Generated_Source\PSoC5/CapSense_CSHL.c ****     *
1218:.\Generated_Source\PSoC5/CapSense_CSHL.c ****     *******************************************************************************/
1219:.\Generated_Source\PSoC5/CapSense_CSHL.c ****     uint16 CapSense_GetCentroidPos(uint8 widget) 
1220:.\Generated_Source\PSoC5/CapSense_CSHL.c ****     {
 861              		.loc 1 1220 0
 862              		.cfi_startproc
 863              		@ args = 0, pretend = 0, frame = 0
 864              		@ frame_needed = 0, uses_anonymous_args = 0
 865              	.LVL115:
 866 0000 70B5     		push	{r4, r5, r6, lr}
 867              		.cfi_def_cfa_offset 16
 868              		.cfi_offset 4, -16
 869              		.cfi_offset 5, -12
 870              		.cfi_offset 6, -8
 871              		.cfi_offset 14, -4
 872 0002 82B0     		sub	sp, sp, #8
 873              		.cfi_def_cfa_offset 24
 874 0004 0446     		mov	r4, r0
1221:.\Generated_Source\PSoC5/CapSense_CSHL.c ****         #if (CapSense_IS_DIPLEX_SLIDER)
ARM GAS  C:\Users\lenovo\AppData\Local\Temp\ccnUwRoN.s 			page 38


1222:.\Generated_Source\PSoC5/CapSense_CSHL.c ****             const uint8 CYCODE *diplex;
1223:.\Generated_Source\PSoC5/CapSense_CSHL.c ****         #endif /* (CapSense_IS_DIPLEX_SLIDER) */
1224:.\Generated_Source\PSoC5/CapSense_CSHL.c ****                 
1225:.\Generated_Source\PSoC5/CapSense_CSHL.c ****         #if (0u != CapSense_LINEAR_SLIDERS_POS_FILTERS_MASK)
1226:.\Generated_Source\PSoC5/CapSense_CSHL.c ****             uint8 posIndex;
1227:.\Generated_Source\PSoC5/CapSense_CSHL.c ****             uint8 firstTimeIndex = CapSense_posFiltersData[widget];
1228:.\Generated_Source\PSoC5/CapSense_CSHL.c ****             uint8 posFiltersMask = CapSense_posFiltersMask[widget];  
1229:.\Generated_Source\PSoC5/CapSense_CSHL.c ****         #endif /* (0u != CapSense_LINEAR_SLIDERS_POS_FILTERS_MASK) */
1230:.\Generated_Source\PSoC5/CapSense_CSHL.c **** 
1231:.\Generated_Source\PSoC5/CapSense_CSHL.c ****         #if ((0u != (CapSense_MEDIAN_FILTER & CapSense_LINEAR_SLIDERS_POS_FILTERS_MASK)) || \
1232:.\Generated_Source\PSoC5/CapSense_CSHL.c ****              (0u != (CapSense_AVERAGING_FILTER & CapSense_LINEAR_SLIDERS_POS_FILTERS_MASK)))
1233:.\Generated_Source\PSoC5/CapSense_CSHL.c ****             uint8 tempPos;
1234:.\Generated_Source\PSoC5/CapSense_CSHL.c ****         #endif /* ((0u != (CapSense_MEDIAN_FILTER & CapSense_LINEAR_SLIDERS_POS_FILTERS_MASK)) || \
1235:.\Generated_Source\PSoC5/CapSense_CSHL.c ****                *   (0u != (CapSense_AVERAGING_FILTER & CapSense_LINEAR_SLIDERS_POS_FILTERS_MASK)))
1236:.\Generated_Source\PSoC5/CapSense_CSHL.c ****                */
1237:.\Generated_Source\PSoC5/CapSense_CSHL.c **** 
1238:.\Generated_Source\PSoC5/CapSense_CSHL.c ****         uint8 maximum;
1239:.\Generated_Source\PSoC5/CapSense_CSHL.c ****         uint16 position;
1240:.\Generated_Source\PSoC5/CapSense_CSHL.c ****         uint8 offset = CapSense_rawDataIndex[widget];
 875              		.loc 1 1240 0
 876 0006 0E4B     		ldr	r3, .L80
 877 0008 1E5C     		ldrb	r6, [r3, r0]	@ zero_extendqisi2
 878              	.LVL116:
1241:.\Generated_Source\PSoC5/CapSense_CSHL.c ****         uint8 count = CapSense_numberOfSensors[widget];
 879              		.loc 1 1241 0
 880 000a 0344     		add	r3, r3, r0
 881 000c 1D79     		ldrb	r5, [r3, #4]	@ zero_extendqisi2
 882              	.LVL117:
1242:.\Generated_Source\PSoC5/CapSense_CSHL.c ****                         
1243:.\Generated_Source\PSoC5/CapSense_CSHL.c ****         #if (CapSense_IS_DIPLEX_SLIDER)
1244:.\Generated_Source\PSoC5/CapSense_CSHL.c ****             if(widget < CapSense_TOTAL_DIPLEXED_SLIDERS_COUNT)
1245:.\Generated_Source\PSoC5/CapSense_CSHL.c ****             {
1246:.\Generated_Source\PSoC5/CapSense_CSHL.c ****                 maximum = CapSense_diplexTable[widget];
1247:.\Generated_Source\PSoC5/CapSense_CSHL.c ****                 diplex = &CapSense_diplexTable[maximum];
1248:.\Generated_Source\PSoC5/CapSense_CSHL.c ****             }
1249:.\Generated_Source\PSoC5/CapSense_CSHL.c ****             else
1250:.\Generated_Source\PSoC5/CapSense_CSHL.c ****             {
1251:.\Generated_Source\PSoC5/CapSense_CSHL.c ****                 diplex = 0u;
1252:.\Generated_Source\PSoC5/CapSense_CSHL.c ****             }
1253:.\Generated_Source\PSoC5/CapSense_CSHL.c ****         #endif /* (CapSense_IS_DIPLEX_SLIDER) */
1254:.\Generated_Source\PSoC5/CapSense_CSHL.c **** 
1255:.\Generated_Source\PSoC5/CapSense_CSHL.c ****         /* Find Maximum within centroid */      
1256:.\Generated_Source\PSoC5/CapSense_CSHL.c ****         #if (CapSense_IS_DIPLEX_SLIDER)        
1257:.\Generated_Source\PSoC5/CapSense_CSHL.c ****             maximum = CapSense_FindMaximum(offset, count, CapSense_fingerThreshold[widget], diplex)
1258:.\Generated_Source\PSoC5/CapSense_CSHL.c ****         #else
1259:.\Generated_Source\PSoC5/CapSense_CSHL.c ****             maximum = CapSense_FindMaximum(offset, count, CapSense_fingerThreshold[widget]);
 883              		.loc 1 1259 0
 884 000e 0D4B     		ldr	r3, .L80+4
 885 0010 0344     		add	r3, r3, r0
 886 0012 3046     		mov	r0, r6
 887              	.LVL118:
 888 0014 2946     		mov	r1, r5
 889 0016 1A79     		ldrb	r2, [r3, #4]	@ zero_extendqisi2
 890 0018 FFF7FEFF 		bl	CapSense_FindMaximum
 891              	.LVL119:
1260:.\Generated_Source\PSoC5/CapSense_CSHL.c ****         #endif /* (CapSense_IS_DIPLEX_SLIDER) */
1261:.\Generated_Source\PSoC5/CapSense_CSHL.c **** 
ARM GAS  C:\Users\lenovo\AppData\Local\Temp\ccnUwRoN.s 			page 39


1262:.\Generated_Source\PSoC5/CapSense_CSHL.c ****         if (maximum != 0xFFu)
 892              		.loc 1 1262 0
 893 001c FF28     		cmp	r0, #255
 894 001e 0BD0     		beq	.L78
1263:.\Generated_Source\PSoC5/CapSense_CSHL.c ****         {
1264:.\Generated_Source\PSoC5/CapSense_CSHL.c ****             /* Calculate centroid */
1265:.\Generated_Source\PSoC5/CapSense_CSHL.c ****             position = (uint16) CapSense_CalcCentroid(maximum, 
 895              		.loc 1 1265 0
 896 0020 084B     		ldr	r3, .L80+4
 897 0022 1C44     		add	r4, r4, r3
 898 0024 237B     		ldrb	r3, [r4, #12]	@ zero_extendqisi2
 899 0026 0093     		str	r3, [sp]
 900 0028 3146     		mov	r1, r6
 901 002a 2A46     		mov	r2, r5
 902 002c 4FF4C853 		mov	r3, #6400
 903 0030 FFF7FEFF 		bl	CapSense_CalcCentroid
 904              	.LVL120:
 905 0034 80B2     		uxth	r0, r0
 906              	.LVL121:
 907 0036 01E0     		b	.L77
 908              	.LVL122:
 909              	.L78:
1266:.\Generated_Source\PSoC5/CapSense_CSHL.c ****                          offset, count, CapSense_centroidMult[widget], CapSense_noiseThreshold[widg
1267:.\Generated_Source\PSoC5/CapSense_CSHL.c **** 
1268:.\Generated_Source\PSoC5/CapSense_CSHL.c ****             #if (0u != CapSense_LINEAR_SLIDERS_POS_FILTERS_MASK)
1269:.\Generated_Source\PSoC5/CapSense_CSHL.c ****                 /* Check if this linear slider has enabled filters */
1270:.\Generated_Source\PSoC5/CapSense_CSHL.c ****                 if (0u != (posFiltersMask & CapSense_ANY_POS_FILTER))
1271:.\Generated_Source\PSoC5/CapSense_CSHL.c ****                 {
1272:.\Generated_Source\PSoC5/CapSense_CSHL.c ****                     /* Caluclate position to store filters data */
1273:.\Generated_Source\PSoC5/CapSense_CSHL.c ****                     posIndex  = firstTimeIndex + 1u;
1274:.\Generated_Source\PSoC5/CapSense_CSHL.c ****                     
1275:.\Generated_Source\PSoC5/CapSense_CSHL.c ****                     if (0u == CapSense_posFiltersData[firstTimeIndex])
1276:.\Generated_Source\PSoC5/CapSense_CSHL.c ****                     {
1277:.\Generated_Source\PSoC5/CapSense_CSHL.c ****                         /* Init filters */
1278:.\Generated_Source\PSoC5/CapSense_CSHL.c ****                         CapSense_posFiltersData[posIndex] = (uint8) position;
1279:.\Generated_Source\PSoC5/CapSense_CSHL.c ****                         #if ((0u != (CapSense_MEDIAN_FILTER & \
1280:.\Generated_Source\PSoC5/CapSense_CSHL.c ****                                      CapSense_LINEAR_SLIDERS_POS_FILTERS_MASK)) || \
1281:.\Generated_Source\PSoC5/CapSense_CSHL.c ****                              (0u != (CapSense_AVERAGING_FILTER & \
1282:.\Generated_Source\PSoC5/CapSense_CSHL.c ****                                      CapSense_LINEAR_SLIDERS_POS_FILTERS_MASK)))
1283:.\Generated_Source\PSoC5/CapSense_CSHL.c **** 
1284:.\Generated_Source\PSoC5/CapSense_CSHL.c ****                             if ( (0u != (posFiltersMask & CapSense_MEDIAN_FILTER)) || 
1285:.\Generated_Source\PSoC5/CapSense_CSHL.c ****                                  (0u != (posFiltersMask & CapSense_AVERAGING_FILTER)) )
1286:.\Generated_Source\PSoC5/CapSense_CSHL.c ****                             {
1287:.\Generated_Source\PSoC5/CapSense_CSHL.c ****                                 CapSense_posFiltersData[posIndex + 1u] = (uint8) position;
1288:.\Generated_Source\PSoC5/CapSense_CSHL.c ****                             }
1289:.\Generated_Source\PSoC5/CapSense_CSHL.c ****                         #endif /* ((0u != (CapSense_MEDIAN_FILTER & \
1290:.\Generated_Source\PSoC5/CapSense_CSHL.c ****                                *           CapSense_LINEAR_SLIDERS_POS_FILTERS_MASK)) || \
1291:.\Generated_Source\PSoC5/CapSense_CSHL.c ****                                *   (0u != (CapSense_AVERAGING_FILTER & \
1292:.\Generated_Source\PSoC5/CapSense_CSHL.c ****                                *           CapSense_LINEAR_SLIDERS_POS_FILTERS_MASK)))
1293:.\Generated_Source\PSoC5/CapSense_CSHL.c ****                                */
1294:.\Generated_Source\PSoC5/CapSense_CSHL.c ****                         
1295:.\Generated_Source\PSoC5/CapSense_CSHL.c ****                         CapSense_posFiltersData[firstTimeIndex] = 1u;
1296:.\Generated_Source\PSoC5/CapSense_CSHL.c ****                     }
1297:.\Generated_Source\PSoC5/CapSense_CSHL.c ****                     else
1298:.\Generated_Source\PSoC5/CapSense_CSHL.c ****                     {
1299:.\Generated_Source\PSoC5/CapSense_CSHL.c ****                         /* Do filtering */
1300:.\Generated_Source\PSoC5/CapSense_CSHL.c ****                         #if (0u != (CapSense_MEDIAN_FILTER & CapSense_LINEAR_SLIDERS_POS_FILTERS_MA
ARM GAS  C:\Users\lenovo\AppData\Local\Temp\ccnUwRoN.s 			page 40


1301:.\Generated_Source\PSoC5/CapSense_CSHL.c ****                             if (0u != (posFiltersMask & CapSense_MEDIAN_FILTER))
1302:.\Generated_Source\PSoC5/CapSense_CSHL.c ****                             {
1303:.\Generated_Source\PSoC5/CapSense_CSHL.c ****                                 tempPos = (uint8) position;
1304:.\Generated_Source\PSoC5/CapSense_CSHL.c ****                                 position = CapSense_MedianFilter(position,
1305:.\Generated_Source\PSoC5/CapSense_CSHL.c ****                                                                 (uint16)CapSense_posFiltersData[pos
1306:.\Generated_Source\PSoC5/CapSense_CSHL.c ****                                                                 (uint16)CapSense_posFiltersData[pos
1307:.\Generated_Source\PSoC5/CapSense_CSHL.c ****                                 CapSense_posFiltersData[posIndex + 1u] =
1308:.\Generated_Source\PSoC5/CapSense_CSHL.c ****                                                                              CapSense_posFiltersDat
1309:.\Generated_Source\PSoC5/CapSense_CSHL.c ****                                 CapSense_posFiltersData[posIndex] = tempPos;
1310:.\Generated_Source\PSoC5/CapSense_CSHL.c ****                             }
1311:.\Generated_Source\PSoC5/CapSense_CSHL.c ****                         #endif /*(0u != (CapSense_MEDIAN_FILTER &
1312:.\Generated_Source\PSoC5/CapSense_CSHL.c ****                                *         CapSense_LINEAR_SLIDERS_POS_FILTERS_MASK))
1313:.\Generated_Source\PSoC5/CapSense_CSHL.c ****                                */
1314:.\Generated_Source\PSoC5/CapSense_CSHL.c **** 
1315:.\Generated_Source\PSoC5/CapSense_CSHL.c ****                         #if(0u!=(CapSense_AVERAGING_FILTER & CapSense_LINEAR_SLIDERS_POS_FILTERS_MA
1316:.\Generated_Source\PSoC5/CapSense_CSHL.c ****                             if (0u != (posFiltersMask & CapSense_AVERAGING_FILTER)) 
1317:.\Generated_Source\PSoC5/CapSense_CSHL.c ****                             {
1318:.\Generated_Source\PSoC5/CapSense_CSHL.c ****                                 tempPos = (uint8) position;
1319:.\Generated_Source\PSoC5/CapSense_CSHL.c ****                                 position = CapSense_AveragingFilter(position,
1320:.\Generated_Source\PSoC5/CapSense_CSHL.c ****                                                                 (uint16)CapSense_posFiltersData[pos
1321:.\Generated_Source\PSoC5/CapSense_CSHL.c ****                                                                 (uint16)CapSense_posFiltersData[pos
1322:.\Generated_Source\PSoC5/CapSense_CSHL.c ****                                 CapSense_posFiltersData[posIndex+1u]=CapSense_posFiltersData[posInd
1323:.\Generated_Source\PSoC5/CapSense_CSHL.c ****                                 CapSense_posFiltersData[posIndex] = tempPos;
1324:.\Generated_Source\PSoC5/CapSense_CSHL.c ****                             }
1325:.\Generated_Source\PSoC5/CapSense_CSHL.c ****                         #endif /* (0u != (CapSense_AVERAGING_FILTER & \
1326:.\Generated_Source\PSoC5/CapSense_CSHL.c ****                                *           CapSense_LINEAR_SLIDERS_POS_FILTERS_MASK))
1327:.\Generated_Source\PSoC5/CapSense_CSHL.c ****                                */
1328:.\Generated_Source\PSoC5/CapSense_CSHL.c **** 
1329:.\Generated_Source\PSoC5/CapSense_CSHL.c ****                         #if (0u != (CapSense_IIR2_FILTER & CapSense_LINEAR_SLIDERS_POS_FILTERS_MASK
1330:.\Generated_Source\PSoC5/CapSense_CSHL.c ****                             if (0u != (posFiltersMask & CapSense_IIR2_FILTER)) 
1331:.\Generated_Source\PSoC5/CapSense_CSHL.c ****                             {
1332:.\Generated_Source\PSoC5/CapSense_CSHL.c ****                                 position = CapSense_IIR2Filter(position,
1333:.\Generated_Source\PSoC5/CapSense_CSHL.c ****                                                                     (uint16)CapSense_posFiltersData
1334:.\Generated_Source\PSoC5/CapSense_CSHL.c ****                                 CapSense_posFiltersData[posIndex] = (uint8) position;
1335:.\Generated_Source\PSoC5/CapSense_CSHL.c ****                             }
1336:.\Generated_Source\PSoC5/CapSense_CSHL.c ****                         #endif /* (0u != (CapSense_IIR2_FILTER & \
1337:.\Generated_Source\PSoC5/CapSense_CSHL.c ****                                *          CapSense_LINEAR_SLIDERS_POS_FILTERS_MASK))
1338:.\Generated_Source\PSoC5/CapSense_CSHL.c ****                                */
1339:.\Generated_Source\PSoC5/CapSense_CSHL.c **** 
1340:.\Generated_Source\PSoC5/CapSense_CSHL.c ****                         #if (0u != (CapSense_IIR4_FILTER & CapSense_LINEAR_SLIDERS_POS_FILTERS_MASK
1341:.\Generated_Source\PSoC5/CapSense_CSHL.c ****                             if (0u != (posFiltersMask & CapSense_IIR4_FILTER))
1342:.\Generated_Source\PSoC5/CapSense_CSHL.c ****                             {
1343:.\Generated_Source\PSoC5/CapSense_CSHL.c ****                                 position = CapSense_IIR4Filter(position,
1344:.\Generated_Source\PSoC5/CapSense_CSHL.c ****                                                                     (uint16)CapSense_posFiltersData
1345:.\Generated_Source\PSoC5/CapSense_CSHL.c ****                                 CapSense_posFiltersData[posIndex] = (uint8) position;
1346:.\Generated_Source\PSoC5/CapSense_CSHL.c ****                             }                                
1347:.\Generated_Source\PSoC5/CapSense_CSHL.c ****                         #endif /* (0u != (CapSense_IIR4_FILTER & \
1348:.\Generated_Source\PSoC5/CapSense_CSHL.c ****                                *          CapSense_LINEAR_SLIDERS_POS_FILTERS_MASK))
1349:.\Generated_Source\PSoC5/CapSense_CSHL.c ****                                */
1350:.\Generated_Source\PSoC5/CapSense_CSHL.c **** 
1351:.\Generated_Source\PSoC5/CapSense_CSHL.c ****                         #if (0u != (CapSense_JITTER_FILTER & CapSense_LINEAR_SLIDERS_POS_FILTERS_MA
1352:.\Generated_Source\PSoC5/CapSense_CSHL.c ****                             if (0u != (posFiltersMask & CapSense_JITTER_FILTER))
1353:.\Generated_Source\PSoC5/CapSense_CSHL.c ****                             {
1354:.\Generated_Source\PSoC5/CapSense_CSHL.c ****                                 position = CapSense_JitterFilter(position,
1355:.\Generated_Source\PSoC5/CapSense_CSHL.c ****                                                                     (uint16)CapSense_posFiltersData
1356:.\Generated_Source\PSoC5/CapSense_CSHL.c ****                                 CapSense_posFiltersData[posIndex] = (uint8) position;
1357:.\Generated_Source\PSoC5/CapSense_CSHL.c ****                             }
ARM GAS  C:\Users\lenovo\AppData\Local\Temp\ccnUwRoN.s 			page 41


1358:.\Generated_Source\PSoC5/CapSense_CSHL.c ****                         #endif /* (0u != (CapSense_JITTER_FILTER & \
1359:.\Generated_Source\PSoC5/CapSense_CSHL.c ****                                *           CapSense_LINEAR_SLIDERS_POS_FILTERS_MASK))
1360:.\Generated_Source\PSoC5/CapSense_CSHL.c ****                                */
1361:.\Generated_Source\PSoC5/CapSense_CSHL.c ****                     }
1362:.\Generated_Source\PSoC5/CapSense_CSHL.c ****                 }
1363:.\Generated_Source\PSoC5/CapSense_CSHL.c ****             #endif /* (0u != CapSense_LINEAR_SLIDERS_POS_FILTERS_MASK) */
1364:.\Generated_Source\PSoC5/CapSense_CSHL.c **** 
1365:.\Generated_Source\PSoC5/CapSense_CSHL.c ****         }
1366:.\Generated_Source\PSoC5/CapSense_CSHL.c ****         else
1367:.\Generated_Source\PSoC5/CapSense_CSHL.c ****         {
1368:.\Generated_Source\PSoC5/CapSense_CSHL.c ****             /* The maximum wasn't found */
1369:.\Generated_Source\PSoC5/CapSense_CSHL.c ****             position = 0xFFFFu;
 910              		.loc 1 1369 0
 911 0038 4FF6FF70 		movw	r0, #65535
 912              	.LVL123:
 913              	.L77:
1370:.\Generated_Source\PSoC5/CapSense_CSHL.c **** 
1371:.\Generated_Source\PSoC5/CapSense_CSHL.c ****             #if(0u != CapSense_LINEAR_SLIDERS_POS_FILTERS_MASK)
1372:.\Generated_Source\PSoC5/CapSense_CSHL.c ****                 /* Reset the filters */
1373:.\Generated_Source\PSoC5/CapSense_CSHL.c ****                 if(0u != (posFiltersMask & CapSense_ANY_POS_FILTER))
1374:.\Generated_Source\PSoC5/CapSense_CSHL.c ****                 {
1375:.\Generated_Source\PSoC5/CapSense_CSHL.c ****                     CapSense_posFiltersData[firstTimeIndex] = 0u;
1376:.\Generated_Source\PSoC5/CapSense_CSHL.c ****                 }
1377:.\Generated_Source\PSoC5/CapSense_CSHL.c ****             #endif /* (0u != CapSense_LINEAR_SLIDERS_POS_FILTERS_MASK) */
1378:.\Generated_Source\PSoC5/CapSense_CSHL.c ****         }
1379:.\Generated_Source\PSoC5/CapSense_CSHL.c **** 
1380:.\Generated_Source\PSoC5/CapSense_CSHL.c ****         
1381:.\Generated_Source\PSoC5/CapSense_CSHL.c ****         return (position);
1382:.\Generated_Source\PSoC5/CapSense_CSHL.c ****     }
 914              		.loc 1 1382 0
 915 003c 02B0     		add	sp, sp, #8
 916              		.cfi_def_cfa_offset 16
 917              		@ sp needed
 918 003e 70BD     		pop	{r4, r5, r6, pc}
 919              	.LVL124:
 920              	.L81:
 921              		.align	2
 922              	.L80:
 923 0040 00000000 		.word	.LANCHOR2
 924 0044 00000000 		.word	.LANCHOR0
 925              		.cfi_endproc
 926              	.LFE13:
 927              		.size	CapSense_GetCentroidPos, .-CapSense_GetCentroidPos
 928              		.section	.text.CapSense_IIR2Filter,"ax",%progbits
 929              		.align	2
 930              		.global	CapSense_IIR2Filter
 931              		.thumb
 932              		.thumb_func
 933              		.type	CapSense_IIR2Filter, %function
 934              	CapSense_IIR2Filter:
 935              	.LFB14:
1383:.\Generated_Source\PSoC5/CapSense_CSHL.c **** #endif /* (CapSense_TOTAL_LINEAR_SLIDERS_COUNT > 0u) */
1384:.\Generated_Source\PSoC5/CapSense_CSHL.c **** 
1385:.\Generated_Source\PSoC5/CapSense_CSHL.c **** 
1386:.\Generated_Source\PSoC5/CapSense_CSHL.c **** #if(CapSense_TOTAL_RADIAL_SLIDERS_COUNT > 0u)
1387:.\Generated_Source\PSoC5/CapSense_CSHL.c ****     /*******************************************************************************
1388:.\Generated_Source\PSoC5/CapSense_CSHL.c ****     * Function Name: CapSense_GetRadialCentroidPos
ARM GAS  C:\Users\lenovo\AppData\Local\Temp\ccnUwRoN.s 			page 42


1389:.\Generated_Source\PSoC5/CapSense_CSHL.c ****     ********************************************************************************
1390:.\Generated_Source\PSoC5/CapSense_CSHL.c ****     *
1391:.\Generated_Source\PSoC5/CapSense_CSHL.c ****     * Summary:
1392:.\Generated_Source\PSoC5/CapSense_CSHL.c ****     *  Checks the CapSense_Signal[ ] array for a centroid within
1393:.\Generated_Source\PSoC5/CapSense_CSHL.c ****     *  slider specified range. The centroid position is calculated to the resolution
1394:.\Generated_Source\PSoC5/CapSense_CSHL.c ****     *  specified in the CapSense customizer. The position filters are applied to the
1395:.\Generated_Source\PSoC5/CapSense_CSHL.c ****     *  result if enabled.
1396:.\Generated_Source\PSoC5/CapSense_CSHL.c ****     *
1397:.\Generated_Source\PSoC5/CapSense_CSHL.c ****     * Parameters:
1398:.\Generated_Source\PSoC5/CapSense_CSHL.c ****     *  widget:  Widget number.
1399:.\Generated_Source\PSoC5/CapSense_CSHL.c ****     *  For every radial slider widget there are defines in this format:
1400:.\Generated_Source\PSoC5/CapSense_CSHL.c ****     *  #define CapSense_RS_"widget_name"            5
1401:.\Generated_Source\PSoC5/CapSense_CSHL.c ****     * 
1402:.\Generated_Source\PSoC5/CapSense_CSHL.c ****     * Return:
1403:.\Generated_Source\PSoC5/CapSense_CSHL.c ****     *  Returns position value of the radial slider.
1404:.\Generated_Source\PSoC5/CapSense_CSHL.c ****     *
1405:.\Generated_Source\PSoC5/CapSense_CSHL.c ****     * Side Effects:
1406:.\Generated_Source\PSoC5/CapSense_CSHL.c ****     *  If any sensor within the slider widget is active, the function returns values
1407:.\Generated_Source\PSoC5/CapSense_CSHL.c ****     *  from zero to the API resolution value set in the CapSense customizer. If no
1408:.\Generated_Source\PSoC5/CapSense_CSHL.c ****     *  sensors are active, the function returns 0xFFFF.
1409:.\Generated_Source\PSoC5/CapSense_CSHL.c ****     *  There are no checks of widget type argument provided to this function.
1410:.\Generated_Source\PSoC5/CapSense_CSHL.c ****     *  The unproper widget type provided will cause unexpected position calculations.
1411:.\Generated_Source\PSoC5/CapSense_CSHL.c ****     *
1412:.\Generated_Source\PSoC5/CapSense_CSHL.c ****     * Note:
1413:.\Generated_Source\PSoC5/CapSense_CSHL.c ****     *  If noise counts on the slider segments are greater than the noise
1414:.\Generated_Source\PSoC5/CapSense_CSHL.c ****     *  threshold, this subroutine may generate a false centroid result. The noise
1415:.\Generated_Source\PSoC5/CapSense_CSHL.c ****     *  threshold should be set carefully (high enough above the noise level) so 
1416:.\Generated_Source\PSoC5/CapSense_CSHL.c ****     *  that noise will not generate a false centroid.
1417:.\Generated_Source\PSoC5/CapSense_CSHL.c ****     *
1418:.\Generated_Source\PSoC5/CapSense_CSHL.c ****     *
1419:.\Generated_Source\PSoC5/CapSense_CSHL.c ****     * Reentrant:
1420:.\Generated_Source\PSoC5/CapSense_CSHL.c ****     *  No.
1421:.\Generated_Source\PSoC5/CapSense_CSHL.c ****     *
1422:.\Generated_Source\PSoC5/CapSense_CSHL.c ****     *******************************************************************************/
1423:.\Generated_Source\PSoC5/CapSense_CSHL.c ****      uint16 CapSense_GetRadialCentroidPos(uint8 widget)
1424:.\Generated_Source\PSoC5/CapSense_CSHL.c **** 	                                       
1425:.\Generated_Source\PSoC5/CapSense_CSHL.c ****     {
1426:.\Generated_Source\PSoC5/CapSense_CSHL.c ****         #if (0u != CapSense_RADIAL_SLIDERS_POS_FILTERS_MASK)
1427:.\Generated_Source\PSoC5/CapSense_CSHL.c ****             uint8 posIndex;
1428:.\Generated_Source\PSoC5/CapSense_CSHL.c ****             uint8 firstTimeIndex = CapSense_posFiltersData[widget];
1429:.\Generated_Source\PSoC5/CapSense_CSHL.c ****             uint8 posFiltersMask = CapSense_posFiltersMask[widget]; 
1430:.\Generated_Source\PSoC5/CapSense_CSHL.c ****         #endif /* (0u != CapSense_RADIAL_SLIDERS_POS_FILTERS_MASK) */
1431:.\Generated_Source\PSoC5/CapSense_CSHL.c **** 
1432:.\Generated_Source\PSoC5/CapSense_CSHL.c ****         #if ((0u != (CapSense_MEDIAN_FILTER & CapSense_RADIAL_SLIDERS_POS_FILTERS_MASK)) || \
1433:.\Generated_Source\PSoC5/CapSense_CSHL.c ****              (0u != (CapSense_AVERAGING_FILTER & CapSense_RADIAL_SLIDERS_POS_FILTERS_MASK)))
1434:.\Generated_Source\PSoC5/CapSense_CSHL.c ****             uint8 tempPos;
1435:.\Generated_Source\PSoC5/CapSense_CSHL.c ****         #endif /* ((0u != (CapSense_MEDIAN_FILTER & CapSense_RADIAL_SLIDERS_POS_FILTERS_MASK)) || \
1436:.\Generated_Source\PSoC5/CapSense_CSHL.c ****                *   (0u != (CapSense_AVERAGING_FILTER & CapSense_RADIAL_SLIDERS_POS_FILTERS_MASK)))
1437:.\Generated_Source\PSoC5/CapSense_CSHL.c ****                */
1438:.\Generated_Source\PSoC5/CapSense_CSHL.c **** 
1439:.\Generated_Source\PSoC5/CapSense_CSHL.c ****         uint8 maximum;
1440:.\Generated_Source\PSoC5/CapSense_CSHL.c ****         uint16 position;
1441:.\Generated_Source\PSoC5/CapSense_CSHL.c ****         uint8 offset = CapSense_rawDataIndex[widget];
1442:.\Generated_Source\PSoC5/CapSense_CSHL.c ****         uint8 count = CapSense_numberOfSensors[widget];
1443:.\Generated_Source\PSoC5/CapSense_CSHL.c ****         
1444:.\Generated_Source\PSoC5/CapSense_CSHL.c ****         /* Find Maximum within centroid */        
1445:.\Generated_Source\PSoC5/CapSense_CSHL.c ****         #if (CapSense_IS_DIPLEX_SLIDER)
ARM GAS  C:\Users\lenovo\AppData\Local\Temp\ccnUwRoN.s 			page 43


1446:.\Generated_Source\PSoC5/CapSense_CSHL.c ****             maximum = CapSense_FindMaximum(offset, count, CapSense_fingerThreshold[widget], 0u);
1447:.\Generated_Source\PSoC5/CapSense_CSHL.c ****         #else
1448:.\Generated_Source\PSoC5/CapSense_CSHL.c ****             maximum = CapSense_FindMaximum(offset, count, CapSense_fingerThreshold[widget]);
1449:.\Generated_Source\PSoC5/CapSense_CSHL.c ****         #endif /* (CapSense_IS_DIPLEX_SLIDER) */
1450:.\Generated_Source\PSoC5/CapSense_CSHL.c ****         
1451:.\Generated_Source\PSoC5/CapSense_CSHL.c ****         if (maximum != 0xFFu)
1452:.\Generated_Source\PSoC5/CapSense_CSHL.c ****         {
1453:.\Generated_Source\PSoC5/CapSense_CSHL.c ****             /* Calculate centroid */
1454:.\Generated_Source\PSoC5/CapSense_CSHL.c ****             position = (uint16) CapSense_CalcCentroid(maximum, 
1455:.\Generated_Source\PSoC5/CapSense_CSHL.c ****                          offset, count, CapSense_centroidMult[widget], CapSense_noiseThreshold[widg
1456:.\Generated_Source\PSoC5/CapSense_CSHL.c **** 
1457:.\Generated_Source\PSoC5/CapSense_CSHL.c ****             #if (0u != CapSense_RADIAL_SLIDERS_POS_FILTERS_MASK)
1458:.\Generated_Source\PSoC5/CapSense_CSHL.c ****                 /* Check if this Radial slider has enabled filters */
1459:.\Generated_Source\PSoC5/CapSense_CSHL.c ****                 if (0u != (posFiltersMask & CapSense_ANY_POS_FILTER))
1460:.\Generated_Source\PSoC5/CapSense_CSHL.c ****                 {
1461:.\Generated_Source\PSoC5/CapSense_CSHL.c ****                     /* Caluclate position to store filters data */
1462:.\Generated_Source\PSoC5/CapSense_CSHL.c ****                     posIndex  = firstTimeIndex + 1u;
1463:.\Generated_Source\PSoC5/CapSense_CSHL.c ****                     
1464:.\Generated_Source\PSoC5/CapSense_CSHL.c ****                     if (0u == CapSense_posFiltersData[firstTimeIndex])
1465:.\Generated_Source\PSoC5/CapSense_CSHL.c ****                     {
1466:.\Generated_Source\PSoC5/CapSense_CSHL.c ****                         /* Init filters */
1467:.\Generated_Source\PSoC5/CapSense_CSHL.c ****                         CapSense_posFiltersData[posIndex] = (uint8) position;
1468:.\Generated_Source\PSoC5/CapSense_CSHL.c ****                         #if ((0u != (CapSense_MEDIAN_FILTER & \
1469:.\Generated_Source\PSoC5/CapSense_CSHL.c ****                                      CapSense_RADIAL_SLIDERS_POS_FILTERS_MASK)) || \
1470:.\Generated_Source\PSoC5/CapSense_CSHL.c ****                              (0u != (CapSense_AVERAGING_FILTER & \
1471:.\Generated_Source\PSoC5/CapSense_CSHL.c ****                                      CapSense_RADIAL_SLIDERS_POS_FILTERS_MASK)))
1472:.\Generated_Source\PSoC5/CapSense_CSHL.c **** 
1473:.\Generated_Source\PSoC5/CapSense_CSHL.c ****                             if ( (0u != (posFiltersMask & CapSense_MEDIAN_FILTER))  || 
1474:.\Generated_Source\PSoC5/CapSense_CSHL.c ****                                  (0u != (posFiltersMask & CapSense_AVERAGING_FILTER)) )
1475:.\Generated_Source\PSoC5/CapSense_CSHL.c ****                             {
1476:.\Generated_Source\PSoC5/CapSense_CSHL.c ****                                 CapSense_posFiltersData[posIndex + 1u] = (uint8) position;
1477:.\Generated_Source\PSoC5/CapSense_CSHL.c ****                             }
1478:.\Generated_Source\PSoC5/CapSense_CSHL.c ****                         #endif /* ((0u != (CapSense_MEDIAN_FILTER & \
1479:.\Generated_Source\PSoC5/CapSense_CSHL.c ****                                *           CapSense_RADIAL_SLIDERS_POS_FILTERS_MASK)) || \
1480:.\Generated_Source\PSoC5/CapSense_CSHL.c ****                                *   (0u != (CapSense_AVERAGING_FILTER & \
1481:.\Generated_Source\PSoC5/CapSense_CSHL.c ****                                *           CapSense_RADIAL_SLIDERS_POS_FILTERS_MASK)))
1482:.\Generated_Source\PSoC5/CapSense_CSHL.c ****                                */
1483:.\Generated_Source\PSoC5/CapSense_CSHL.c ****                         
1484:.\Generated_Source\PSoC5/CapSense_CSHL.c ****                         CapSense_posFiltersData[firstTimeIndex] = 1u;
1485:.\Generated_Source\PSoC5/CapSense_CSHL.c ****                     }
1486:.\Generated_Source\PSoC5/CapSense_CSHL.c ****                     else
1487:.\Generated_Source\PSoC5/CapSense_CSHL.c ****                     {
1488:.\Generated_Source\PSoC5/CapSense_CSHL.c ****                         /* Do filtering */
1489:.\Generated_Source\PSoC5/CapSense_CSHL.c ****                         #if (0u != (CapSense_MEDIAN_FILTER & CapSense_RADIAL_SLIDERS_POS_FILTERS_MA
1490:.\Generated_Source\PSoC5/CapSense_CSHL.c ****                             if (0u != (posFiltersMask & CapSense_MEDIAN_FILTER))
1491:.\Generated_Source\PSoC5/CapSense_CSHL.c ****                             {
1492:.\Generated_Source\PSoC5/CapSense_CSHL.c ****                                 tempPos = (uint8) position;
1493:.\Generated_Source\PSoC5/CapSense_CSHL.c ****                                 position = CapSense_MedianFilter(position,
1494:.\Generated_Source\PSoC5/CapSense_CSHL.c ****                                                                         CapSense_posFiltersData[pos
1495:.\Generated_Source\PSoC5/CapSense_CSHL.c ****                                                                         CapSense_posFiltersData[pos
1496:.\Generated_Source\PSoC5/CapSense_CSHL.c ****                                 CapSense_posFiltersData[posIndex + 1u] = 
1497:.\Generated_Source\PSoC5/CapSense_CSHL.c ****                                                                               CapSense_posFiltersDa
1498:.\Generated_Source\PSoC5/CapSense_CSHL.c ****                                 CapSense_posFiltersData[posIndex] = tempPos;
1499:.\Generated_Source\PSoC5/CapSense_CSHL.c ****                             }
1500:.\Generated_Source\PSoC5/CapSense_CSHL.c ****                         #endif /* (0u != (CapSense_MEDIAN_FILTER & 
1501:.\Generated_Source\PSoC5/CapSense_CSHL.c ****                                *          CapSense_RADIAL_SLIDERS_POS_FILTERS_MASK))
1502:.\Generated_Source\PSoC5/CapSense_CSHL.c ****                                */
ARM GAS  C:\Users\lenovo\AppData\Local\Temp\ccnUwRoN.s 			page 44


1503:.\Generated_Source\PSoC5/CapSense_CSHL.c **** 
1504:.\Generated_Source\PSoC5/CapSense_CSHL.c ****                         #if (0u != (CapSense_AVERAGING_FILTER & \
1505:.\Generated_Source\PSoC5/CapSense_CSHL.c ****                                     CapSense_RADIAL_SLIDERS_POS_FILTERS_MASK))
1506:.\Generated_Source\PSoC5/CapSense_CSHL.c ****                             if (0u != (posFiltersMask & CapSense_AVERAGING_FILTER))
1507:.\Generated_Source\PSoC5/CapSense_CSHL.c ****                             {
1508:.\Generated_Source\PSoC5/CapSense_CSHL.c ****                                 tempPos = (uint8) position;
1509:.\Generated_Source\PSoC5/CapSense_CSHL.c ****                                 position = CapSense_AveragingFilter(position, 
1510:.\Generated_Source\PSoC5/CapSense_CSHL.c ****                                                                        CapSense_posFiltersData[posI
1511:.\Generated_Source\PSoC5/CapSense_CSHL.c ****                                                                        CapSense_posFiltersData[posI
1512:.\Generated_Source\PSoC5/CapSense_CSHL.c ****                                 CapSense_posFiltersData[posIndex+1u]= CapSense_posFiltersData[posIn
1513:.\Generated_Source\PSoC5/CapSense_CSHL.c ****                                 CapSense_posFiltersData[posIndex] = tempPos;
1514:.\Generated_Source\PSoC5/CapSense_CSHL.c ****                             }
1515:.\Generated_Source\PSoC5/CapSense_CSHL.c ****                         #endif /* (0u != (CapSense_AVERAGING_FILTER & \
1516:.\Generated_Source\PSoC5/CapSense_CSHL.c ****                                *          CapSense_RADIAL_SLIDERS_POS_FILTERS_MASK))
1517:.\Generated_Source\PSoC5/CapSense_CSHL.c ****                                */
1518:.\Generated_Source\PSoC5/CapSense_CSHL.c **** 
1519:.\Generated_Source\PSoC5/CapSense_CSHL.c ****                         #if (0u != (CapSense_IIR2_FILTER & CapSense_RADIAL_SLIDERS_POS_FILTERS_MASK
1520:.\Generated_Source\PSoC5/CapSense_CSHL.c ****                             if (0u != (posFiltersMask & CapSense_IIR2_FILTER))
1521:.\Generated_Source\PSoC5/CapSense_CSHL.c ****                             {
1522:.\Generated_Source\PSoC5/CapSense_CSHL.c ****                                 position = CapSense_IIR2Filter(position,
1523:.\Generated_Source\PSoC5/CapSense_CSHL.c ****                                                                     (uint16)CapSense_posFiltersData
1524:.\Generated_Source\PSoC5/CapSense_CSHL.c ****                                 CapSense_posFiltersData[posIndex] = (uint8) position;
1525:.\Generated_Source\PSoC5/CapSense_CSHL.c ****                             }
1526:.\Generated_Source\PSoC5/CapSense_CSHL.c ****                         #endif /* (0u != (CapSense_IIR2_FILTER & 
1527:.\Generated_Source\PSoC5/CapSense_CSHL.c ****                                *          CapSense_RADIAL_SLIDERS_POS_FILTERS_MASK))
1528:.\Generated_Source\PSoC5/CapSense_CSHL.c ****                                */
1529:.\Generated_Source\PSoC5/CapSense_CSHL.c **** 
1530:.\Generated_Source\PSoC5/CapSense_CSHL.c ****                         #if (0u != (CapSense_IIR4_FILTER & CapSense_RADIAL_SLIDERS_POS_FILTERS_MASK
1531:.\Generated_Source\PSoC5/CapSense_CSHL.c ****                             if (0u != (posFiltersMask & CapSense_IIR4_FILTER))
1532:.\Generated_Source\PSoC5/CapSense_CSHL.c ****                             {
1533:.\Generated_Source\PSoC5/CapSense_CSHL.c ****                                 position = CapSense_IIR4Filter(position,
1534:.\Generated_Source\PSoC5/CapSense_CSHL.c ****                                                                     (uint16)CapSense_posFiltersData
1535:.\Generated_Source\PSoC5/CapSense_CSHL.c ****                                 CapSense_posFiltersData[posIndex] = (uint8) position;
1536:.\Generated_Source\PSoC5/CapSense_CSHL.c ****                             }
1537:.\Generated_Source\PSoC5/CapSense_CSHL.c ****                         #endif /* (0u != (CapSense_IIR4_FILTER & 
1538:.\Generated_Source\PSoC5/CapSense_CSHL.c ****                                *          CapSense_RADIAL_SLIDERS_POS_FILTERS_MASK))
1539:.\Generated_Source\PSoC5/CapSense_CSHL.c ****                                */
1540:.\Generated_Source\PSoC5/CapSense_CSHL.c **** 
1541:.\Generated_Source\PSoC5/CapSense_CSHL.c ****                         #if (0u != (CapSense_JITTER_FILTER & CapSense_RADIAL_SLIDERS_POS_FILTERS_MA
1542:.\Generated_Source\PSoC5/CapSense_CSHL.c ****                             if (0u != (posFiltersMask & CapSense_JITTER_FILTER))
1543:.\Generated_Source\PSoC5/CapSense_CSHL.c ****                             {
1544:.\Generated_Source\PSoC5/CapSense_CSHL.c ****                                 position = CapSense_JitterFilter(position, 
1545:.\Generated_Source\PSoC5/CapSense_CSHL.c ****                                                                          CapSense_posFiltersData[po
1546:.\Generated_Source\PSoC5/CapSense_CSHL.c ****                                 CapSense_posFiltersData[posIndex] = (uint8) position;
1547:.\Generated_Source\PSoC5/CapSense_CSHL.c ****                             }
1548:.\Generated_Source\PSoC5/CapSense_CSHL.c ****                         #endif /* (0u != (CapSense_JITTER_FILTER &
1549:.\Generated_Source\PSoC5/CapSense_CSHL.c ****                                *           CapSense_RADIAL_SLIDERS_POS_FILTERS_MASK))
1550:.\Generated_Source\PSoC5/CapSense_CSHL.c ****                                */
1551:.\Generated_Source\PSoC5/CapSense_CSHL.c ****                     }
1552:.\Generated_Source\PSoC5/CapSense_CSHL.c ****                 }
1553:.\Generated_Source\PSoC5/CapSense_CSHL.c ****             #endif /* (0u != CapSense_RADIAL_SLIDERS_POS_FILTERS_MASK) */
1554:.\Generated_Source\PSoC5/CapSense_CSHL.c **** 
1555:.\Generated_Source\PSoC5/CapSense_CSHL.c ****         }
1556:.\Generated_Source\PSoC5/CapSense_CSHL.c ****         else
1557:.\Generated_Source\PSoC5/CapSense_CSHL.c ****         {
1558:.\Generated_Source\PSoC5/CapSense_CSHL.c ****             /* The maximum didn't find */
1559:.\Generated_Source\PSoC5/CapSense_CSHL.c ****             position = 0xFFFFu;
ARM GAS  C:\Users\lenovo\AppData\Local\Temp\ccnUwRoN.s 			page 45


1560:.\Generated_Source\PSoC5/CapSense_CSHL.c **** 
1561:.\Generated_Source\PSoC5/CapSense_CSHL.c ****             #if (0u != CapSense_RADIAL_SLIDERS_POS_FILTERS_MASK)
1562:.\Generated_Source\PSoC5/CapSense_CSHL.c ****                 /* Reset the filters */
1563:.\Generated_Source\PSoC5/CapSense_CSHL.c ****                 if((posFiltersMask & CapSense_ANY_POS_FILTER) != 0u)
1564:.\Generated_Source\PSoC5/CapSense_CSHL.c ****                 {
1565:.\Generated_Source\PSoC5/CapSense_CSHL.c ****                     CapSense_posFiltersData[firstTimeIndex] = 0u;
1566:.\Generated_Source\PSoC5/CapSense_CSHL.c ****                 }
1567:.\Generated_Source\PSoC5/CapSense_CSHL.c ****             #endif /* (0u != CapSense_RADIAL_SLIDERS_POS_FILTERS_MASK) */
1568:.\Generated_Source\PSoC5/CapSense_CSHL.c ****         }
1569:.\Generated_Source\PSoC5/CapSense_CSHL.c ****         
1570:.\Generated_Source\PSoC5/CapSense_CSHL.c ****         return (position);
1571:.\Generated_Source\PSoC5/CapSense_CSHL.c ****     }
1572:.\Generated_Source\PSoC5/CapSense_CSHL.c **** #endif
1573:.\Generated_Source\PSoC5/CapSense_CSHL.c **** 
1574:.\Generated_Source\PSoC5/CapSense_CSHL.c **** 
1575:.\Generated_Source\PSoC5/CapSense_CSHL.c **** #if(CapSense_TOTAL_TOUCH_PADS_COUNT > 0u)
1576:.\Generated_Source\PSoC5/CapSense_CSHL.c ****     /*******************************************************************************
1577:.\Generated_Source\PSoC5/CapSense_CSHL.c ****     * Function Name: CapSense_GetTouchCentroidPos
1578:.\Generated_Source\PSoC5/CapSense_CSHL.c ****     ********************************************************************************
1579:.\Generated_Source\PSoC5/CapSense_CSHL.c ****     *
1580:.\Generated_Source\PSoC5/CapSense_CSHL.c ****     * Summary:
1581:.\Generated_Source\PSoC5/CapSense_CSHL.c ****     *  If a finger is present on touch pad, this function calculates the X and Y
1582:.\Generated_Source\PSoC5/CapSense_CSHL.c ****     *  position of the finger by calculating the centroids within touch pad specified
1583:.\Generated_Source\PSoC5/CapSense_CSHL.c ****     *  range. The X and Y positions are calculated to the API resolutions set in the
1584:.\Generated_Source\PSoC5/CapSense_CSHL.c ****     *  CapSense customizer. Returns a 1 if a finger is on the touchpad.
1585:.\Generated_Source\PSoC5/CapSense_CSHL.c ****     *  The position filter is applied to the result if enabled.
1586:.\Generated_Source\PSoC5/CapSense_CSHL.c ****     *  This function is available only if a touch pad is defined by the CapSense
1587:.\Generated_Source\PSoC5/CapSense_CSHL.c ****     *  customizer.
1588:.\Generated_Source\PSoC5/CapSense_CSHL.c ****     *
1589:.\Generated_Source\PSoC5/CapSense_CSHL.c ****     * Parameters:
1590:.\Generated_Source\PSoC5/CapSense_CSHL.c ****     *  widget:  Widget number. 
1591:.\Generated_Source\PSoC5/CapSense_CSHL.c ****     *  For every touchpad widget there are defines in this format:
1592:.\Generated_Source\PSoC5/CapSense_CSHL.c ****     *  #define CapSense_TP_"widget_name"            5
1593:.\Generated_Source\PSoC5/CapSense_CSHL.c ****     *
1594:.\Generated_Source\PSoC5/CapSense_CSHL.c ****     *  pos:     Pointer to the array of two uint16 elements, where result
1595:.\Generated_Source\PSoC5/CapSense_CSHL.c ****     *  result of calculation of X and Y position are stored.
1596:.\Generated_Source\PSoC5/CapSense_CSHL.c ****     *  pos[0u]  - position of X
1597:.\Generated_Source\PSoC5/CapSense_CSHL.c ****     *  pos[1u]  - position of Y
1598:.\Generated_Source\PSoC5/CapSense_CSHL.c ****     *
1599:.\Generated_Source\PSoC5/CapSense_CSHL.c ****     * Return:
1600:.\Generated_Source\PSoC5/CapSense_CSHL.c ****     *  Returns a 1 if a finger is on the touch pad, 0 - if not.
1601:.\Generated_Source\PSoC5/CapSense_CSHL.c ****     *
1602:.\Generated_Source\PSoC5/CapSense_CSHL.c ****     * Side Effects:
1603:.\Generated_Source\PSoC5/CapSense_CSHL.c ****     *   There are no checks of widget type argument provided to this function.
1604:.\Generated_Source\PSoC5/CapSense_CSHL.c ****     *   The unproper widget type provided will cause unexpected position
1605:.\Generated_Source\PSoC5/CapSense_CSHL.c ****     *   calculations.
1606:.\Generated_Source\PSoC5/CapSense_CSHL.c ****     *
1607:.\Generated_Source\PSoC5/CapSense_CSHL.c ****     * Reentrant:
1608:.\Generated_Source\PSoC5/CapSense_CSHL.c ****     *  No.
1609:.\Generated_Source\PSoC5/CapSense_CSHL.c ****     *
1610:.\Generated_Source\PSoC5/CapSense_CSHL.c ****     *******************************************************************************/
1611:.\Generated_Source\PSoC5/CapSense_CSHL.c ****     uint8 CapSense_GetTouchCentroidPos(uint8 widget, uint16* pos)
1612:.\Generated_Source\PSoC5/CapSense_CSHL.c **** 	                                    
1613:.\Generated_Source\PSoC5/CapSense_CSHL.c ****     {
1614:.\Generated_Source\PSoC5/CapSense_CSHL.c ****         #if (0u != CapSense_TOUCH_PADS_POS_FILTERS_MASK)
1615:.\Generated_Source\PSoC5/CapSense_CSHL.c ****             uint8 posXIndex;
1616:.\Generated_Source\PSoC5/CapSense_CSHL.c ****             uint8 posYIndex;
ARM GAS  C:\Users\lenovo\AppData\Local\Temp\ccnUwRoN.s 			page 46


1617:.\Generated_Source\PSoC5/CapSense_CSHL.c ****             uint8 firstTimeIndex = CapSense_posFiltersData[widget];
1618:.\Generated_Source\PSoC5/CapSense_CSHL.c ****             uint8 posFiltersMask = CapSense_posFiltersMask[widget];
1619:.\Generated_Source\PSoC5/CapSense_CSHL.c ****         #endif /* (0u != CapSense_TOUCH_PADS_POS_FILTERS_MASK) */
1620:.\Generated_Source\PSoC5/CapSense_CSHL.c **** 
1621:.\Generated_Source\PSoC5/CapSense_CSHL.c ****         #if ((0u != (CapSense_MEDIAN_FILTER & CapSense_TOUCH_PADS_POS_FILTERS_MASK)) || \
1622:.\Generated_Source\PSoC5/CapSense_CSHL.c ****              (0u != (CapSense_AVERAGING_FILTER & CapSense_TOUCH_PADS_POS_FILTERS_MASK)))
1623:.\Generated_Source\PSoC5/CapSense_CSHL.c ****             uint16 tempPos;
1624:.\Generated_Source\PSoC5/CapSense_CSHL.c ****         #endif /* ((0u != (CapSense_MEDIAN_FILTER & CapSense_TOUCH_PADS_POS_FILTERS_MASK)) || \
1625:.\Generated_Source\PSoC5/CapSense_CSHL.c ****                *   (0u != (CapSense_AVERAGING_FILTER & CapSense_TOUCH_PADS_POS_FILTERS_MASK)))
1626:.\Generated_Source\PSoC5/CapSense_CSHL.c ****                */
1627:.\Generated_Source\PSoC5/CapSense_CSHL.c **** 
1628:.\Generated_Source\PSoC5/CapSense_CSHL.c ****         uint8 maxX;
1629:.\Generated_Source\PSoC5/CapSense_CSHL.c ****         uint8 maxY;
1630:.\Generated_Source\PSoC5/CapSense_CSHL.c ****         uint8 posX;
1631:.\Generated_Source\PSoC5/CapSense_CSHL.c ****         uint8 posY;
1632:.\Generated_Source\PSoC5/CapSense_CSHL.c ****         uint8 touch = 0u;
1633:.\Generated_Source\PSoC5/CapSense_CSHL.c ****         uint8 offset = CapSense_rawDataIndex[widget];
1634:.\Generated_Source\PSoC5/CapSense_CSHL.c ****         uint8 count = CapSense_numberOfSensors[widget];
1635:.\Generated_Source\PSoC5/CapSense_CSHL.c ****         
1636:.\Generated_Source\PSoC5/CapSense_CSHL.c ****         /* Find Maximum within X centroid */
1637:.\Generated_Source\PSoC5/CapSense_CSHL.c ****         #if (CapSense_IS_DIPLEX_SLIDER)
1638:.\Generated_Source\PSoC5/CapSense_CSHL.c ****             maxX = CapSense_FindMaximum(offset, count, CapSense_fingerThreshold[widget], 0u);
1639:.\Generated_Source\PSoC5/CapSense_CSHL.c ****         #else
1640:.\Generated_Source\PSoC5/CapSense_CSHL.c ****             maxX = CapSense_FindMaximum(offset, count, CapSense_fingerThreshold[widget]);
1641:.\Generated_Source\PSoC5/CapSense_CSHL.c ****         #endif /* (CapSense_IS_DIPLEX_SLIDER) */
1642:.\Generated_Source\PSoC5/CapSense_CSHL.c **** 
1643:.\Generated_Source\PSoC5/CapSense_CSHL.c ****         if (maxX != 0xFFu)
1644:.\Generated_Source\PSoC5/CapSense_CSHL.c ****         {
1645:.\Generated_Source\PSoC5/CapSense_CSHL.c ****             offset = CapSense_rawDataIndex[widget + 1u];
1646:.\Generated_Source\PSoC5/CapSense_CSHL.c ****             count = CapSense_numberOfSensors[widget + 1u];
1647:.\Generated_Source\PSoC5/CapSense_CSHL.c **** 
1648:.\Generated_Source\PSoC5/CapSense_CSHL.c ****             /* Find Maximum within Y centroid */
1649:.\Generated_Source\PSoC5/CapSense_CSHL.c ****             #if (CapSense_IS_DIPLEX_SLIDER)
1650:.\Generated_Source\PSoC5/CapSense_CSHL.c ****                 maxY = CapSense_FindMaximum(offset, count, CapSense_fingerThreshold[widget + 1u], 0
1651:.\Generated_Source\PSoC5/CapSense_CSHL.c ****             #else
1652:.\Generated_Source\PSoC5/CapSense_CSHL.c ****                 maxY = CapSense_FindMaximum(offset, count, CapSense_fingerThreshold[widget + 1u]);
1653:.\Generated_Source\PSoC5/CapSense_CSHL.c ****             #endif /* (CapSense_IS_DIPLEX_SLIDER) */
1654:.\Generated_Source\PSoC5/CapSense_CSHL.c **** 
1655:.\Generated_Source\PSoC5/CapSense_CSHL.c ****             if (maxY != 0xFFu)
1656:.\Generated_Source\PSoC5/CapSense_CSHL.c ****             {
1657:.\Generated_Source\PSoC5/CapSense_CSHL.c ****                 /* X and Y maximums are found = true touch */
1658:.\Generated_Source\PSoC5/CapSense_CSHL.c ****                 touch = 1u;
1659:.\Generated_Source\PSoC5/CapSense_CSHL.c ****                 
1660:.\Generated_Source\PSoC5/CapSense_CSHL.c ****                 /* Calculate Y centroid */
1661:.\Generated_Source\PSoC5/CapSense_CSHL.c ****                 posY = CapSense_CalcCentroid(maxY, offset, count, 
1662:.\Generated_Source\PSoC5/CapSense_CSHL.c ****                             CapSense_centroidMult[widget + 1u], CapSense_noiseThreshold[widget + 1u
1663:.\Generated_Source\PSoC5/CapSense_CSHL.c ****                 
1664:.\Generated_Source\PSoC5/CapSense_CSHL.c ****                 /* Calculate X centroid */
1665:.\Generated_Source\PSoC5/CapSense_CSHL.c ****                 offset = CapSense_rawDataIndex[widget];
1666:.\Generated_Source\PSoC5/CapSense_CSHL.c ****                 count = CapSense_numberOfSensors[widget];
1667:.\Generated_Source\PSoC5/CapSense_CSHL.c ****                 
1668:.\Generated_Source\PSoC5/CapSense_CSHL.c ****                 posX = CapSense_CalcCentroid(maxX, offset, count, 
1669:.\Generated_Source\PSoC5/CapSense_CSHL.c ****                             CapSense_centroidMult[widget],CapSense_noiseThreshold[widget]);
1670:.\Generated_Source\PSoC5/CapSense_CSHL.c ****     
1671:.\Generated_Source\PSoC5/CapSense_CSHL.c ****                 #if (0u != CapSense_TOUCH_PADS_POS_FILTERS_MASK)
1672:.\Generated_Source\PSoC5/CapSense_CSHL.c ****                     /* Check if this TP has enabled filters */
1673:.\Generated_Source\PSoC5/CapSense_CSHL.c ****                     if (0u != (posFiltersMask & CapSense_ANY_POS_FILTER))
ARM GAS  C:\Users\lenovo\AppData\Local\Temp\ccnUwRoN.s 			page 47


1674:.\Generated_Source\PSoC5/CapSense_CSHL.c ****                     {
1675:.\Generated_Source\PSoC5/CapSense_CSHL.c ****                         /* Caluclate position to store filters data */
1676:.\Generated_Source\PSoC5/CapSense_CSHL.c ****                         posXIndex  = firstTimeIndex + 1u;
1677:.\Generated_Source\PSoC5/CapSense_CSHL.c ****                         posYIndex  = CapSense_posFiltersData[widget + 1u];
1678:.\Generated_Source\PSoC5/CapSense_CSHL.c ****                         
1679:.\Generated_Source\PSoC5/CapSense_CSHL.c ****                         if (0u == CapSense_posFiltersData[firstTimeIndex])
1680:.\Generated_Source\PSoC5/CapSense_CSHL.c ****                         {
1681:.\Generated_Source\PSoC5/CapSense_CSHL.c ****                             /* Init filters */
1682:.\Generated_Source\PSoC5/CapSense_CSHL.c ****                             CapSense_posFiltersData[posXIndex] = posX;
1683:.\Generated_Source\PSoC5/CapSense_CSHL.c ****                             CapSense_posFiltersData[posYIndex] = posY;
1684:.\Generated_Source\PSoC5/CapSense_CSHL.c **** 
1685:.\Generated_Source\PSoC5/CapSense_CSHL.c ****                             #if((0u != (CapSense_MEDIAN_FILTER & \
1686:.\Generated_Source\PSoC5/CapSense_CSHL.c ****                                         CapSense_TOUCH_PADS_POS_FILTERS_MASK))|| \
1687:.\Generated_Source\PSoC5/CapSense_CSHL.c ****                                 (0u != (CapSense_AVERAGING_FILTER & \
1688:.\Generated_Source\PSoC5/CapSense_CSHL.c ****                                         CapSense_TOUCH_PADS_POS_FILTERS_MASK)))
1689:.\Generated_Source\PSoC5/CapSense_CSHL.c **** 
1690:.\Generated_Source\PSoC5/CapSense_CSHL.c ****                                 if ( (0u != (posFiltersMask & CapSense_MEDIAN_FILTER)) || 
1691:.\Generated_Source\PSoC5/CapSense_CSHL.c ****                                      (0u != (posFiltersMask & CapSense_AVERAGING_FILTER)) )
1692:.\Generated_Source\PSoC5/CapSense_CSHL.c ****                                 {
1693:.\Generated_Source\PSoC5/CapSense_CSHL.c ****                                     CapSense_posFiltersData[posXIndex + 1u] = posX;
1694:.\Generated_Source\PSoC5/CapSense_CSHL.c ****                                     CapSense_posFiltersData[posYIndex + 1u] = posY;
1695:.\Generated_Source\PSoC5/CapSense_CSHL.c ****                                 }
1696:.\Generated_Source\PSoC5/CapSense_CSHL.c ****                             #endif /* ((0u != (CapSense_MEDIAN_FILTER & \
1697:.\Generated_Source\PSoC5/CapSense_CSHL.c ****                                    *           CapSense_TOUCH_PADS_POS_FILTERS_MASK)) || \
1698:.\Generated_Source\PSoC5/CapSense_CSHL.c ****                                    *    (0u != (CapSense_AVERAGING_FILTER & \
1699:.\Generated_Source\PSoC5/CapSense_CSHL.c ****                                    *            CapSense_TOUCH_PADS_POS_FILTERS_MASK)))
1700:.\Generated_Source\PSoC5/CapSense_CSHL.c ****                                    */
1701:.\Generated_Source\PSoC5/CapSense_CSHL.c ****                             
1702:.\Generated_Source\PSoC5/CapSense_CSHL.c ****                             CapSense_posFiltersData[firstTimeIndex] = 1u;
1703:.\Generated_Source\PSoC5/CapSense_CSHL.c ****                         }
1704:.\Generated_Source\PSoC5/CapSense_CSHL.c ****                         else
1705:.\Generated_Source\PSoC5/CapSense_CSHL.c ****                         {
1706:.\Generated_Source\PSoC5/CapSense_CSHL.c ****                             /* Do filtering */
1707:.\Generated_Source\PSoC5/CapSense_CSHL.c ****                             #if (0u != (CapSense_MEDIAN_FILTER & CapSense_TOUCH_PADS_POS_FILTERS_MA
1708:.\Generated_Source\PSoC5/CapSense_CSHL.c ****                                 if (0u != (posFiltersMask & CapSense_MEDIAN_FILTER))
1709:.\Generated_Source\PSoC5/CapSense_CSHL.c ****                                 {
1710:.\Generated_Source\PSoC5/CapSense_CSHL.c ****                                     tempPos = posX;
1711:.\Generated_Source\PSoC5/CapSense_CSHL.c ****                                     posX = (uint8) CapSense_MedianFilter(posX,
1712:.\Generated_Source\PSoC5/CapSense_CSHL.c ****                                                                       CapSense_posFiltersData[posXI
1713:.\Generated_Source\PSoC5/CapSense_CSHL.c ****                                                                       CapSense_posFiltersData[posXI
1714:.\Generated_Source\PSoC5/CapSense_CSHL.c ****                                     CapSense_posFiltersData[posXIndex + 1u] = 
1715:.\Generated_Source\PSoC5/CapSense_CSHL.c ****                                                                              CapSense_posFiltersDat
1716:.\Generated_Source\PSoC5/CapSense_CSHL.c ****                                     CapSense_posFiltersData[posXIndex] = tempPos;
1717:.\Generated_Source\PSoC5/CapSense_CSHL.c ****                                     
1718:.\Generated_Source\PSoC5/CapSense_CSHL.c ****                                     tempPos = posY;
1719:.\Generated_Source\PSoC5/CapSense_CSHL.c ****                                     posY = (uint8) CapSense_MedianFilter(posY,
1720:.\Generated_Source\PSoC5/CapSense_CSHL.c ****                                                                        CapSense_posFiltersData[posY
1721:.\Generated_Source\PSoC5/CapSense_CSHL.c ****                                                                        CapSense_posFiltersData[posY
1722:.\Generated_Source\PSoC5/CapSense_CSHL.c ****                                     CapSense_posFiltersData[posYIndex + 1u] = 
1723:.\Generated_Source\PSoC5/CapSense_CSHL.c ****                                                                              CapSense_posFiltersDat
1724:.\Generated_Source\PSoC5/CapSense_CSHL.c ****                                     CapSense_posFiltersData[posYIndex] = tempPos;
1725:.\Generated_Source\PSoC5/CapSense_CSHL.c ****                                 }
1726:.\Generated_Source\PSoC5/CapSense_CSHL.c ****                                 
1727:.\Generated_Source\PSoC5/CapSense_CSHL.c ****                             #endif /* (0u != (CapSense_MEDIAN_FILTER & \
1728:.\Generated_Source\PSoC5/CapSense_CSHL.c ****                                    *          CapSense_TOUCH_PADS_POS_FILTERS_MASK))
1729:.\Generated_Source\PSoC5/CapSense_CSHL.c ****                                    */
1730:.\Generated_Source\PSoC5/CapSense_CSHL.c **** 
ARM GAS  C:\Users\lenovo\AppData\Local\Temp\ccnUwRoN.s 			page 48


1731:.\Generated_Source\PSoC5/CapSense_CSHL.c ****                             #if(0u !=(CapSense_AVERAGING_FILTER & CapSense_TOUCH_PADS_POS_FILTERS_M
1732:.\Generated_Source\PSoC5/CapSense_CSHL.c ****                                 if (0u != (posFiltersMask & CapSense_AVERAGING_FILTER))
1733:.\Generated_Source\PSoC5/CapSense_CSHL.c ****                                 {
1734:.\Generated_Source\PSoC5/CapSense_CSHL.c ****                                     tempPos = posX;
1735:.\Generated_Source\PSoC5/CapSense_CSHL.c ****                                     posX = (uint8) CapSense_AveragingFilter(posX,
1736:.\Generated_Source\PSoC5/CapSense_CSHL.c ****                                                                        CapSense_posFiltersData[posX
1737:.\Generated_Source\PSoC5/CapSense_CSHL.c ****                                                                        CapSense_posFiltersData[posX
1738:.\Generated_Source\PSoC5/CapSense_CSHL.c ****                                     CapSense_posFiltersData[posXIndex + 1u] = 
1739:.\Generated_Source\PSoC5/CapSense_CSHL.c ****                                                                              CapSense_posFiltersDat
1740:.\Generated_Source\PSoC5/CapSense_CSHL.c ****                                     CapSense_posFiltersData[posXIndex] = tempPos;
1741:.\Generated_Source\PSoC5/CapSense_CSHL.c ****                                     
1742:.\Generated_Source\PSoC5/CapSense_CSHL.c ****                                     tempPos = posY;
1743:.\Generated_Source\PSoC5/CapSense_CSHL.c ****                                     posY = (uint8) CapSense_AveragingFilter(posY, 
1744:.\Generated_Source\PSoC5/CapSense_CSHL.c ****                                                                       CapSense_posFiltersData[posYI
1745:.\Generated_Source\PSoC5/CapSense_CSHL.c ****                                                                       CapSense_posFiltersData[posYI
1746:.\Generated_Source\PSoC5/CapSense_CSHL.c ****                                     CapSense_posFiltersData[posYIndex + 1u] = 
1747:.\Generated_Source\PSoC5/CapSense_CSHL.c ****                                                                             CapSense_posFiltersData
1748:.\Generated_Source\PSoC5/CapSense_CSHL.c ****                                     CapSense_posFiltersData[posYIndex] = tempPos;
1749:.\Generated_Source\PSoC5/CapSense_CSHL.c ****                                 }
1750:.\Generated_Source\PSoC5/CapSense_CSHL.c **** 
1751:.\Generated_Source\PSoC5/CapSense_CSHL.c ****                             #endif /* (0u != (CapSense_AVERAGING_FILTER & \
1752:.\Generated_Source\PSoC5/CapSense_CSHL.c ****                                    *           CapSense_TOUCH_PADS_POS_FILTERS_MASK))
1753:.\Generated_Source\PSoC5/CapSense_CSHL.c ****                                    */
1754:.\Generated_Source\PSoC5/CapSense_CSHL.c **** 
1755:.\Generated_Source\PSoC5/CapSense_CSHL.c ****                             #if (0u != (CapSense_IIR2_FILTER & CapSense_TOUCH_PADS_POS_FILTERS_MASK
1756:.\Generated_Source\PSoC5/CapSense_CSHL.c ****                                 if (0u != (posFiltersMask & CapSense_IIR2_FILTER))
1757:.\Generated_Source\PSoC5/CapSense_CSHL.c ****                                 {
1758:.\Generated_Source\PSoC5/CapSense_CSHL.c ****                                     posX = (uint8) CapSense_IIR2Filter(posX, 
1759:.\Generated_Source\PSoC5/CapSense_CSHL.c ****                                                                            CapSense_posFiltersData[
1760:.\Generated_Source\PSoC5/CapSense_CSHL.c ****                                     CapSense_posFiltersData[posXIndex] = posX;
1761:.\Generated_Source\PSoC5/CapSense_CSHL.c ****                                     
1762:.\Generated_Source\PSoC5/CapSense_CSHL.c ****                                     posY = (uint8) CapSense_IIR2Filter(posY, 
1763:.\Generated_Source\PSoC5/CapSense_CSHL.c ****                                                                             CapSense_posFiltersData
1764:.\Generated_Source\PSoC5/CapSense_CSHL.c ****                                     CapSense_posFiltersData[posYIndex] = posY;
1765:.\Generated_Source\PSoC5/CapSense_CSHL.c ****                                 }
1766:.\Generated_Source\PSoC5/CapSense_CSHL.c ****                                 
1767:.\Generated_Source\PSoC5/CapSense_CSHL.c ****                             #endif /* (0u != (CapSense_IIR2_FILTER & \
1768:.\Generated_Source\PSoC5/CapSense_CSHL.c ****                                    *          CapSense_TOUCH_PADS_POS_FILTERS_MASK))
1769:.\Generated_Source\PSoC5/CapSense_CSHL.c ****                                    */
1770:.\Generated_Source\PSoC5/CapSense_CSHL.c **** 
1771:.\Generated_Source\PSoC5/CapSense_CSHL.c ****                             #if (0u != (CapSense_IIR4_FILTER & CapSense_TOUCH_PADS_POS_FILTERS_MASK
1772:.\Generated_Source\PSoC5/CapSense_CSHL.c ****                                 if (0u != (posFiltersMask & CapSense_IIR4_FILTER))
1773:.\Generated_Source\PSoC5/CapSense_CSHL.c ****                                 {
1774:.\Generated_Source\PSoC5/CapSense_CSHL.c ****                                     posX = (uint8) CapSense_IIR4Filter((uint16)posX,
1775:.\Generated_Source\PSoC5/CapSense_CSHL.c ****                                                                     (uint16)CapSense_posFiltersData
1776:.\Generated_Source\PSoC5/CapSense_CSHL.c ****                                     CapSense_posFiltersData[posXIndex] = posX;
1777:.\Generated_Source\PSoC5/CapSense_CSHL.c **** 
1778:.\Generated_Source\PSoC5/CapSense_CSHL.c ****                                     posY = (uint8) CapSense_IIR4Filter((uint16)posY,
1779:.\Generated_Source\PSoC5/CapSense_CSHL.c ****                                                                     (uint16)CapSense_posFiltersData
1780:.\Generated_Source\PSoC5/CapSense_CSHL.c ****                                     CapSense_posFiltersData[posYIndex] = posY;
1781:.\Generated_Source\PSoC5/CapSense_CSHL.c ****                                 }
1782:.\Generated_Source\PSoC5/CapSense_CSHL.c ****                                 
1783:.\Generated_Source\PSoC5/CapSense_CSHL.c ****                             #endif /* (0u != (CapSense_IIR4_FILTER & \
1784:.\Generated_Source\PSoC5/CapSense_CSHL.c ****                                    *           CapSense_TOUCH_PADS_POS_FILTERS_MASK))
1785:.\Generated_Source\PSoC5/CapSense_CSHL.c ****                                    */
1786:.\Generated_Source\PSoC5/CapSense_CSHL.c **** 
1787:.\Generated_Source\PSoC5/CapSense_CSHL.c ****                             #if (0u != (CapSense_JITTER_FILTER & CapSense_TOUCH_PADS_POS_FILTERS_MA
ARM GAS  C:\Users\lenovo\AppData\Local\Temp\ccnUwRoN.s 			page 49


1788:.\Generated_Source\PSoC5/CapSense_CSHL.c ****                                 if (0u != (posFiltersMask & CapSense_JITTER_FILTER))
1789:.\Generated_Source\PSoC5/CapSense_CSHL.c ****                                     {
1790:.\Generated_Source\PSoC5/CapSense_CSHL.c ****                                         posX = (uint8) CapSense_JitterFilter(posX, 
1791:.\Generated_Source\PSoC5/CapSense_CSHL.c ****                                                                             CapSense_posFiltersData
1792:.\Generated_Source\PSoC5/CapSense_CSHL.c ****                                         CapSense_posFiltersData[posXIndex] = posX;
1793:.\Generated_Source\PSoC5/CapSense_CSHL.c ****                                         
1794:.\Generated_Source\PSoC5/CapSense_CSHL.c ****                                         posY = (uint8) CapSense_JitterFilter(posY, 
1795:.\Generated_Source\PSoC5/CapSense_CSHL.c ****                                                                             CapSense_posFiltersData
1796:.\Generated_Source\PSoC5/CapSense_CSHL.c ****                                         CapSense_posFiltersData[posYIndex] = posY;
1797:.\Generated_Source\PSoC5/CapSense_CSHL.c ****                                     }
1798:.\Generated_Source\PSoC5/CapSense_CSHL.c ****                             #endif /* (0u != (CapSense_JITTER_FILTER & \
1799:.\Generated_Source\PSoC5/CapSense_CSHL.c ****                                    *           CapSense_TOUCH_PADS_POS_FILTERS_MASK))
1800:.\Generated_Source\PSoC5/CapSense_CSHL.c ****                                    */
1801:.\Generated_Source\PSoC5/CapSense_CSHL.c ****                         }
1802:.\Generated_Source\PSoC5/CapSense_CSHL.c ****                     }
1803:.\Generated_Source\PSoC5/CapSense_CSHL.c ****                 #endif /* (0u != CapSense_TOUCH_PADS_POS_FILTERS_MASK) */
1804:.\Generated_Source\PSoC5/CapSense_CSHL.c **** 
1805:.\Generated_Source\PSoC5/CapSense_CSHL.c ****                 /* Save positions */
1806:.\Generated_Source\PSoC5/CapSense_CSHL.c ****                 pos[0u] = posX;
1807:.\Generated_Source\PSoC5/CapSense_CSHL.c ****                 pos[1u] = posY;
1808:.\Generated_Source\PSoC5/CapSense_CSHL.c ****             }
1809:.\Generated_Source\PSoC5/CapSense_CSHL.c ****         }
1810:.\Generated_Source\PSoC5/CapSense_CSHL.c **** 
1811:.\Generated_Source\PSoC5/CapSense_CSHL.c ****         #if (0u != CapSense_TOUCH_PADS_POS_FILTERS_MASK)
1812:.\Generated_Source\PSoC5/CapSense_CSHL.c ****             if(touch == 0u)
1813:.\Generated_Source\PSoC5/CapSense_CSHL.c ****             {
1814:.\Generated_Source\PSoC5/CapSense_CSHL.c ****                 /* Reset the filters */
1815:.\Generated_Source\PSoC5/CapSense_CSHL.c ****                 if ((posFiltersMask & CapSense_ANY_POS_FILTER) != 0u)
1816:.\Generated_Source\PSoC5/CapSense_CSHL.c ****                 {
1817:.\Generated_Source\PSoC5/CapSense_CSHL.c ****                     CapSense_posFiltersData[firstTimeIndex] = 0u;
1818:.\Generated_Source\PSoC5/CapSense_CSHL.c ****                 }
1819:.\Generated_Source\PSoC5/CapSense_CSHL.c ****             }
1820:.\Generated_Source\PSoC5/CapSense_CSHL.c ****         #endif /* (0u != CapSense_TOUCH_PADS_POS_FILTERS_MASK) */
1821:.\Generated_Source\PSoC5/CapSense_CSHL.c ****         
1822:.\Generated_Source\PSoC5/CapSense_CSHL.c ****         return (touch);
1823:.\Generated_Source\PSoC5/CapSense_CSHL.c ****     }
1824:.\Generated_Source\PSoC5/CapSense_CSHL.c **** #endif /* (CapSense_TOTAL_TOUCH_PADS_COUNT > 0u) */
1825:.\Generated_Source\PSoC5/CapSense_CSHL.c **** 
1826:.\Generated_Source\PSoC5/CapSense_CSHL.c **** 
1827:.\Generated_Source\PSoC5/CapSense_CSHL.c **** #if ( (CapSense_RAW_FILTER_MASK & CapSense_MEDIAN_FILTER) | \
1828:.\Generated_Source\PSoC5/CapSense_CSHL.c ****       (CapSense_POS_FILTERS_MASK & CapSense_MEDIAN_FILTER) )
1829:.\Generated_Source\PSoC5/CapSense_CSHL.c ****     /*******************************************************************************
1830:.\Generated_Source\PSoC5/CapSense_CSHL.c ****     * Function Name: CapSense_MedianFilter
1831:.\Generated_Source\PSoC5/CapSense_CSHL.c ****     ********************************************************************************
1832:.\Generated_Source\PSoC5/CapSense_CSHL.c ****     *
1833:.\Generated_Source\PSoC5/CapSense_CSHL.c ****     * Summary:
1834:.\Generated_Source\PSoC5/CapSense_CSHL.c ****     *  Median filter function. 
1835:.\Generated_Source\PSoC5/CapSense_CSHL.c ****     *  The median filter looks at the three most recent samples and reports the 
1836:.\Generated_Source\PSoC5/CapSense_CSHL.c ****     *  median value.
1837:.\Generated_Source\PSoC5/CapSense_CSHL.c ****     *
1838:.\Generated_Source\PSoC5/CapSense_CSHL.c ****     * Parameters:
1839:.\Generated_Source\PSoC5/CapSense_CSHL.c ****     *  x1:  Current value.
1840:.\Generated_Source\PSoC5/CapSense_CSHL.c ****     *  x2:  Previous value.
1841:.\Generated_Source\PSoC5/CapSense_CSHL.c ****     *  x3:  Before previous value.
1842:.\Generated_Source\PSoC5/CapSense_CSHL.c ****     *
1843:.\Generated_Source\PSoC5/CapSense_CSHL.c ****     * Return:
1844:.\Generated_Source\PSoC5/CapSense_CSHL.c ****     *  Returns filtered value.
ARM GAS  C:\Users\lenovo\AppData\Local\Temp\ccnUwRoN.s 			page 50


1845:.\Generated_Source\PSoC5/CapSense_CSHL.c ****     *
1846:.\Generated_Source\PSoC5/CapSense_CSHL.c ****     *******************************************************************************/
1847:.\Generated_Source\PSoC5/CapSense_CSHL.c ****     uint16 CapSense_MedianFilter(uint16 x1, uint16 x2, uint16 x3)
1848:.\Generated_Source\PSoC5/CapSense_CSHL.c ****                                          
1849:.\Generated_Source\PSoC5/CapSense_CSHL.c ****     {
1850:.\Generated_Source\PSoC5/CapSense_CSHL.c ****         uint16 tmp;
1851:.\Generated_Source\PSoC5/CapSense_CSHL.c ****         
1852:.\Generated_Source\PSoC5/CapSense_CSHL.c ****         if (x1 > x2)
1853:.\Generated_Source\PSoC5/CapSense_CSHL.c ****         {
1854:.\Generated_Source\PSoC5/CapSense_CSHL.c ****             tmp = x2;
1855:.\Generated_Source\PSoC5/CapSense_CSHL.c ****             x2 = x1;
1856:.\Generated_Source\PSoC5/CapSense_CSHL.c ****             x1 = tmp;
1857:.\Generated_Source\PSoC5/CapSense_CSHL.c ****         }
1858:.\Generated_Source\PSoC5/CapSense_CSHL.c ****         
1859:.\Generated_Source\PSoC5/CapSense_CSHL.c ****         if (x2 > x3)
1860:.\Generated_Source\PSoC5/CapSense_CSHL.c ****         {
1861:.\Generated_Source\PSoC5/CapSense_CSHL.c ****             x2 = x3;
1862:.\Generated_Source\PSoC5/CapSense_CSHL.c ****         }
1863:.\Generated_Source\PSoC5/CapSense_CSHL.c ****         
1864:.\Generated_Source\PSoC5/CapSense_CSHL.c ****         return ((x1 > x2) ? x1 : x2);
1865:.\Generated_Source\PSoC5/CapSense_CSHL.c ****     }
1866:.\Generated_Source\PSoC5/CapSense_CSHL.c **** #endif /* ( (CapSense_RAW_FILTER_MASK & CapSense_MEDIAN_FILTER) | \
1867:.\Generated_Source\PSoC5/CapSense_CSHL.c ****        *    (CapSense_POS_FILTERS_MASK & CapSense_MEDIAN_FILTER) )
1868:.\Generated_Source\PSoC5/CapSense_CSHL.c ****        */
1869:.\Generated_Source\PSoC5/CapSense_CSHL.c **** 
1870:.\Generated_Source\PSoC5/CapSense_CSHL.c **** 
1871:.\Generated_Source\PSoC5/CapSense_CSHL.c **** #if ( (CapSense_RAW_FILTER_MASK & CapSense_AVERAGING_FILTER) | \
1872:.\Generated_Source\PSoC5/CapSense_CSHL.c ****       (CapSense_POS_FILTERS_MASK & CapSense_AVERAGING_FILTER) )
1873:.\Generated_Source\PSoC5/CapSense_CSHL.c ****     /*******************************************************************************
1874:.\Generated_Source\PSoC5/CapSense_CSHL.c ****     * Function Name: CapSense_AveragingFilter
1875:.\Generated_Source\PSoC5/CapSense_CSHL.c ****     ********************************************************************************
1876:.\Generated_Source\PSoC5/CapSense_CSHL.c ****     *
1877:.\Generated_Source\PSoC5/CapSense_CSHL.c ****     * Summary:
1878:.\Generated_Source\PSoC5/CapSense_CSHL.c ****     *  Averaging filter function.
1879:.\Generated_Source\PSoC5/CapSense_CSHL.c ****     *  The averaging filter looks at the three most recent samples of position and
1880:.\Generated_Source\PSoC5/CapSense_CSHL.c ****     *  reports the averaging value.
1881:.\Generated_Source\PSoC5/CapSense_CSHL.c ****     *
1882:.\Generated_Source\PSoC5/CapSense_CSHL.c ****     * Parameters:
1883:.\Generated_Source\PSoC5/CapSense_CSHL.c ****     *  x1:  Current value.
1884:.\Generated_Source\PSoC5/CapSense_CSHL.c ****     *  x2:  Previous value.
1885:.\Generated_Source\PSoC5/CapSense_CSHL.c ****     *  x3:  Before previous value.
1886:.\Generated_Source\PSoC5/CapSense_CSHL.c ****     *
1887:.\Generated_Source\PSoC5/CapSense_CSHL.c ****     * Return:
1888:.\Generated_Source\PSoC5/CapSense_CSHL.c ****     *  Returns filtered value.
1889:.\Generated_Source\PSoC5/CapSense_CSHL.c ****     *
1890:.\Generated_Source\PSoC5/CapSense_CSHL.c ****     *******************************************************************************/
1891:.\Generated_Source\PSoC5/CapSense_CSHL.c ****     uint16 CapSense_AveragingFilter(uint16 x1, uint16 x2, uint16 x3)
1892:.\Generated_Source\PSoC5/CapSense_CSHL.c ****                                             
1893:.\Generated_Source\PSoC5/CapSense_CSHL.c ****     {
1894:.\Generated_Source\PSoC5/CapSense_CSHL.c ****         uint32 tmp = ((uint32)x1 + (uint32)x2 + (uint32)x3) / 3u;
1895:.\Generated_Source\PSoC5/CapSense_CSHL.c ****         
1896:.\Generated_Source\PSoC5/CapSense_CSHL.c ****         return ((uint16) tmp);
1897:.\Generated_Source\PSoC5/CapSense_CSHL.c ****     }
1898:.\Generated_Source\PSoC5/CapSense_CSHL.c **** #endif /* ( (CapSense_RAW_FILTER_MASK & CapSense_AVERAGING_FILTER) | \
1899:.\Generated_Source\PSoC5/CapSense_CSHL.c ****        *    (CapSense_POS_FILTERS_MASK & CapSense_AVERAGING_FILTER) )
1900:.\Generated_Source\PSoC5/CapSense_CSHL.c ****        */
1901:.\Generated_Source\PSoC5/CapSense_CSHL.c **** 
ARM GAS  C:\Users\lenovo\AppData\Local\Temp\ccnUwRoN.s 			page 51


1902:.\Generated_Source\PSoC5/CapSense_CSHL.c **** 
1903:.\Generated_Source\PSoC5/CapSense_CSHL.c **** #if ( (CapSense_RAW_FILTER_MASK & CapSense_IIR2_FILTER) | \
1904:.\Generated_Source\PSoC5/CapSense_CSHL.c ****       (CapSense_POS_FILTERS_MASK & CapSense_IIR2_FILTER) )
1905:.\Generated_Source\PSoC5/CapSense_CSHL.c ****     /*******************************************************************************
1906:.\Generated_Source\PSoC5/CapSense_CSHL.c ****     * Function Name: CapSense_IIR2Filter
1907:.\Generated_Source\PSoC5/CapSense_CSHL.c ****     ********************************************************************************
1908:.\Generated_Source\PSoC5/CapSense_CSHL.c ****     *
1909:.\Generated_Source\PSoC5/CapSense_CSHL.c ****     * Summary:
1910:.\Generated_Source\PSoC5/CapSense_CSHL.c ****     *  IIR1/2 filter function. IIR1/2 = 1/2current + 1/2previous.
1911:.\Generated_Source\PSoC5/CapSense_CSHL.c ****     *
1912:.\Generated_Source\PSoC5/CapSense_CSHL.c ****     * Parameters:
1913:.\Generated_Source\PSoC5/CapSense_CSHL.c ****     *  x1:  Current value.
1914:.\Generated_Source\PSoC5/CapSense_CSHL.c ****     *  x2:  Previous value.
1915:.\Generated_Source\PSoC5/CapSense_CSHL.c ****     *
1916:.\Generated_Source\PSoC5/CapSense_CSHL.c ****     * Return:
1917:.\Generated_Source\PSoC5/CapSense_CSHL.c ****     *  Returns filtered value.
1918:.\Generated_Source\PSoC5/CapSense_CSHL.c ****     *
1919:.\Generated_Source\PSoC5/CapSense_CSHL.c ****     *******************************************************************************/
1920:.\Generated_Source\PSoC5/CapSense_CSHL.c ****     uint16 CapSense_IIR2Filter(uint16 x1, uint16 x2)
1921:.\Generated_Source\PSoC5/CapSense_CSHL.c ****                                        
1922:.\Generated_Source\PSoC5/CapSense_CSHL.c ****     {
 936              		.loc 1 1922 0
 937              		.cfi_startproc
 938              		@ args = 0, pretend = 0, frame = 0
 939              		@ frame_needed = 0, uses_anonymous_args = 0
 940              		@ link register save eliminated.
 941              	.LVL125:
1923:.\Generated_Source\PSoC5/CapSense_CSHL.c ****         uint32 tmp;
1924:.\Generated_Source\PSoC5/CapSense_CSHL.c ****         
1925:.\Generated_Source\PSoC5/CapSense_CSHL.c ****         /* IIR = 1/2 Current Value+ 1/2 Previous Value */
1926:.\Generated_Source\PSoC5/CapSense_CSHL.c ****         tmp = (uint32)x1 + (uint32)x2;
 942              		.loc 1 1926 0
 943 0000 0844     		add	r0, r0, r1
 944              	.LVL126:
1927:.\Generated_Source\PSoC5/CapSense_CSHL.c ****         tmp >>= 1u;
1928:.\Generated_Source\PSoC5/CapSense_CSHL.c ****     
1929:.\Generated_Source\PSoC5/CapSense_CSHL.c ****         return ((uint16) tmp);
1930:.\Generated_Source\PSoC5/CapSense_CSHL.c ****     }
 945              		.loc 1 1930 0
 946 0002 C0F34F00 		ubfx	r0, r0, #1, #16
 947              	.LVL127:
 948 0006 7047     		bx	lr
 949              		.cfi_endproc
 950              	.LFE14:
 951              		.size	CapSense_IIR2Filter, .-CapSense_IIR2Filter
 952              		.section	.text.CapSense_UpdateSensorBaseline,"ax",%progbits
 953              		.align	2
 954              		.global	CapSense_UpdateSensorBaseline
 955              		.thumb
 956              		.thumb_func
 957              		.type	CapSense_UpdateSensorBaseline, %function
 958              	CapSense_UpdateSensorBaseline:
 959              	.LFB4:
 359:.\Generated_Source\PSoC5/CapSense_CSHL.c ****     uint32 calc;
 960              		.loc 1 359 0
 961              		.cfi_startproc
 962              		@ args = 0, pretend = 0, frame = 0
ARM GAS  C:\Users\lenovo\AppData\Local\Temp\ccnUwRoN.s 			page 52


 963              		@ frame_needed = 0, uses_anonymous_args = 0
 964              	.LVL128:
 965 0000 F8B5     		push	{r3, r4, r5, r6, r7, lr}
 966              		.cfi_def_cfa_offset 24
 967              		.cfi_offset 3, -24
 968              		.cfi_offset 4, -20
 969              		.cfi_offset 5, -16
 970              		.cfi_offset 6, -12
 971              		.cfi_offset 7, -8
 972              		.cfi_offset 14, -4
 973 0002 0446     		mov	r4, r0
 363:.\Generated_Source\PSoC5/CapSense_CSHL.c ****     uint8 noiseThreshold = CapSense_noiseThreshold[widget];
 974              		.loc 1 363 0
 975 0004 294B     		ldr	r3, .L94
 976 0006 1B5C     		ldrb	r3, [r3, r0]	@ zero_extendqisi2
 977              	.LVL129:
 364:.\Generated_Source\PSoC5/CapSense_CSHL.c ****     
 978              		.loc 1 364 0
 979 0008 294A     		ldr	r2, .L94+4
 980 000a 1344     		add	r3, r3, r2
 981              	.LVL130:
 982 000c 1E7B     		ldrb	r6, [r3, #12]	@ zero_extendqisi2
 983              	.LVL131:
 389:.\Generated_Source\PSoC5/CapSense_CSHL.c ****         CapSense_rawFilterData1[sensor] = filteredRawData;
 984              		.loc 1 389 0
 985 000e 294D     		ldr	r5, .L94+8
 986 0010 294B     		ldr	r3, .L94+12
 987              	.LVL132:
 988 0012 33F81000 		ldrh	r0, [r3, r0, lsl #1]
 989              	.LVL133:
 990 0016 35F81410 		ldrh	r1, [r5, r4, lsl #1]
 991 001a FFF7FEFF 		bl	CapSense_IIR2Filter
 992              	.LVL134:
 390:.\Generated_Source\PSoC5/CapSense_CSHL.c ****         
 993              		.loc 1 390 0
 994 001e 25F81400 		strh	r0, [r5, r4, lsl #1]	@ movhi
 419:.\Generated_Source\PSoC5/CapSense_CSHL.c ****     {
 995              		.loc 1 419 0
 996 0022 264B     		ldr	r3, .L94+16
 997 0024 33F81420 		ldrh	r2, [r3, r4, lsl #1]
 998 0028 8242     		cmp	r2, r0
 999 002a 03D8     		bhi	.L84
 421:.\Generated_Source\PSoC5/CapSense_CSHL.c ****         widget = 1u;    /* Positive difference - Calculate the Signal */
 1000              		.loc 1 421 0
 1001 002c 851A     		subs	r5, r0, r2
 1002 002e ADB2     		uxth	r5, r5
 1003              	.LVL135:
 422:.\Generated_Source\PSoC5/CapSense_CSHL.c ****     }
 1004              		.loc 1 422 0
 1005 0030 0127     		movs	r7, #1
 1006 0032 02E0     		b	.L85
 1007              	.LVL136:
 1008              	.L84:
 426:.\Generated_Source\PSoC5/CapSense_CSHL.c ****         widget = 0u;    /* Negative difference - Do NOT calculate the Signal */
 1009              		.loc 1 426 0
 1010 0034 151A     		subs	r5, r2, r0
 1011 0036 ADB2     		uxth	r5, r5
ARM GAS  C:\Users\lenovo\AppData\Local\Temp\ccnUwRoN.s 			page 53


 1012              	.LVL137:
 427:.\Generated_Source\PSoC5/CapSense_CSHL.c ****     }
 1013              		.loc 1 427 0
 1014 0038 0027     		movs	r7, #0
 1015              	.LVL138:
 1016              	.L85:
 430:.\Generated_Source\PSoC5/CapSense_CSHL.c ****     {
 1017              		.loc 1 430 0
 1018 003a 87B9     		cbnz	r7, .L86
 430:.\Generated_Source\PSoC5/CapSense_CSHL.c ****     {
 1019              		.loc 1 430 0 is_stmt 0 discriminator 1
 1020 003c 142D     		cmp	r5, #20
 1021 003e 0ED9     		bls	.L86
 432:.\Generated_Source\PSoC5/CapSense_CSHL.c ****         {
 1022              		.loc 1 432 0 is_stmt 1
 1023 0040 1F4B     		ldr	r3, .L94+20
 1024 0042 1B5D     		ldrb	r3, [r3, r4]	@ zero_extendqisi2
 1025 0044 042B     		cmp	r3, #4
 1026 0046 06D9     		bls	.L87
 434:.\Generated_Source\PSoC5/CapSense_CSHL.c ****             CapSense_lowBaselineResetCnt[sensor] = 0u;
 1027              		.loc 1 434 0
 1028 0048 2046     		mov	r0, r4
 1029              	.LVL139:
 1030 004a FFF7FEFF 		bl	CapSense_BaseInit
 1031              	.LVL140:
 435:.\Generated_Source\PSoC5/CapSense_CSHL.c ****         }
 1032              		.loc 1 435 0
 1033 004e 0022     		movs	r2, #0
 1034 0050 1B4B     		ldr	r3, .L94+20
 1035 0052 1A55     		strb	r2, [r3, r4]
 1036 0054 18E0     		b	.L88
 1037              	.LVL141:
 1038              	.L87:
 439:.\Generated_Source\PSoC5/CapSense_CSHL.c ****         }
 1039              		.loc 1 439 0
 1040 0056 0133     		adds	r3, r3, #1
 1041 0058 194A     		ldr	r2, .L94+20
 1042 005a 1355     		strb	r3, [r2, r4]
 1043 005c 14E0     		b	.L88
 1044              	.L86:
 446:.\Generated_Source\PSoC5/CapSense_CSHL.c ****                  ((tempRaw < (uint16) CapSense_NEGATIVE_NOISE_THRESHOLD)
 1045              		.loc 1 446 0
 1046 005e B3B2     		uxth	r3, r6
 1047 0060 AB42     		cmp	r3, r5
 1048 0062 02D2     		bcs	.L89
 446:.\Generated_Source\PSoC5/CapSense_CSHL.c ****                  ((tempRaw < (uint16) CapSense_NEGATIVE_NOISE_THRESHOLD)
 1049              		.loc 1 446 0 is_stmt 0 discriminator 1
 1050 0064 132D     		cmp	r5, #19
 1051 0066 0FD8     		bhi	.L88
 448:.\Generated_Source\PSoC5/CapSense_CSHL.c ****             {
 1052              		.loc 1 448 0 is_stmt 1
 1053 0068 77B9     		cbnz	r7, .L88
 1054              	.L89:
 1055              	.LVL142:
 453:.\Generated_Source\PSoC5/CapSense_CSHL.c **** 
 1056              		.loc 1 453 0
 1057 006a 1649     		ldr	r1, .L94+24
ARM GAS  C:\Users\lenovo\AppData\Local\Temp\ccnUwRoN.s 			page 54


 1058 006c 0B5D     		ldrb	r3, [r1, r4]	@ zero_extendqisi2
 1059 006e 43EA0223 		orr	r3, r3, r2, lsl #8
 1060              	.LVL143:
 456:.\Generated_Source\PSoC5/CapSense_CSHL.c **** 
 1061              		.loc 1 456 0
 1062 0072 1844     		add	r0, r0, r3
 1063              	.LVL144:
 459:.\Generated_Source\PSoC5/CapSense_CSHL.c **** 
 1064              		.loc 1 459 0
 1065 0074 801A     		subs	r0, r0, r2
 1066              	.LVL145:
 462:.\Generated_Source\PSoC5/CapSense_CSHL.c ****                 CapSense_sensorBaselineLow[sensor] = ((uint8) calc);
 1067              		.loc 1 462 0
 1068 0076 C0F30F22 		ubfx	r2, r0, #8, #16
 1069 007a 104B     		ldr	r3, .L94+16
 1070 007c 23F81420 		strh	r2, [r3, r4, lsl #1]	@ movhi
 463:.\Generated_Source\PSoC5/CapSense_CSHL.c **** 
 1071              		.loc 1 463 0
 1072 0080 0855     		strb	r0, [r1, r4]
 465:.\Generated_Source\PSoC5/CapSense_CSHL.c ****         #if (CapSense_AUTO_RESET == CapSense_AUTO_RESET_DISABLE)
 1073              		.loc 1 465 0
 1074 0082 0022     		movs	r2, #0
 1075 0084 0E4B     		ldr	r3, .L94+20
 1076 0086 1A55     		strb	r2, [r3, r4]
 1077              	.LVL146:
 1078              	.L88:
 472:.\Generated_Source\PSoC5/CapSense_CSHL.c ****     {
 1079              		.loc 1 472 0
 1080 0088 B6B2     		uxth	r6, r6
 1081              	.LVL147:
 1082 008a AE42     		cmp	r6, r5
 1083 008c 09D2     		bcs	.L90
 472:.\Generated_Source\PSoC5/CapSense_CSHL.c ****     {
 1084              		.loc 1 472 0 is_stmt 0 discriminator 1
 1085 008e 47B1     		cbz	r7, .L90
 476:.\Generated_Source\PSoC5/CapSense_CSHL.c ****             {
 1086              		.loc 1 476 0 is_stmt 1
 1087 0090 FF2D     		cmp	r5, #255
 1088 0092 03D9     		bls	.L91
 478:.\Generated_Source\PSoC5/CapSense_CSHL.c ****             }    
 1089              		.loc 1 478 0
 1090 0094 FF22     		movs	r2, #255
 1091 0096 0C4B     		ldr	r3, .L94+28
 1092 0098 1A55     		strb	r2, [r3, r4]
 1093 009a F8BD     		pop	{r3, r4, r5, r6, r7, pc}
 1094              	.LVL148:
 1095              	.L91:
 482:.\Generated_Source\PSoC5/CapSense_CSHL.c ****             }
 1096              		.loc 1 482 0
 1097 009c 0A4B     		ldr	r3, .L94+28
 1098 009e 1D55     		strb	r5, [r3, r4]
 1099 00a0 F8BD     		pop	{r3, r4, r5, r6, r7, pc}
 1100              	.LVL149:
 1101              	.L90:
 491:.\Generated_Source\PSoC5/CapSense_CSHL.c ****     }
 1102              		.loc 1 491 0
 1103 00a2 0022     		movs	r2, #0
ARM GAS  C:\Users\lenovo\AppData\Local\Temp\ccnUwRoN.s 			page 55


 1104 00a4 084B     		ldr	r3, .L94+28
 1105 00a6 1A55     		strb	r2, [r3, r4]
 1106 00a8 F8BD     		pop	{r3, r4, r5, r6, r7, pc}
 1107              	.LVL150:
 1108              	.L95:
 1109 00aa 00BF     		.align	2
 1110              	.L94:
 1111 00ac 00000000 		.word	CapSense_widgetNumber
 1112 00b0 00000000 		.word	.LANCHOR0
 1113 00b4 00000000 		.word	CapSense_rawFilterData1
 1114 00b8 00000000 		.word	CapSense_sensorRaw
 1115 00bc 00000000 		.word	CapSense_sensorBaseline
 1116 00c0 00000000 		.word	CapSense_lowBaselineResetCnt
 1117 00c4 00000000 		.word	CapSense_sensorBaselineLow
 1118 00c8 00000000 		.word	CapSense_sensorSignal
 1119              		.cfi_endproc
 1120              	.LFE4:
 1121              		.size	CapSense_UpdateSensorBaseline, .-CapSense_UpdateSensorBaseline
 1122              		.section	.text.CapSense_UpdateEnabledBaselines,"ax",%progbits
 1123              		.align	2
 1124              		.global	CapSense_UpdateEnabledBaselines
 1125              		.thumb
 1126              		.thumb_func
 1127              		.type	CapSense_UpdateEnabledBaselines, %function
 1128              	CapSense_UpdateEnabledBaselines:
 1129              	.LFB5:
 532:.\Generated_Source\PSoC5/CapSense_CSHL.c ****     uint8 i;
 1130              		.loc 1 532 0
 1131              		.cfi_startproc
 1132              		@ args = 0, pretend = 0, frame = 0
 1133              		@ frame_needed = 0, uses_anonymous_args = 0
 1134 0000 10B5     		push	{r4, lr}
 1135              		.cfi_def_cfa_offset 8
 1136              		.cfi_offset 4, -8
 1137              		.cfi_offset 14, -4
 1138              	.LVL151:
 537:.\Generated_Source\PSoC5/CapSense_CSHL.c ****     {
 1139              		.loc 1 537 0
 1140 0002 0024     		movs	r4, #0
 1141 0004 0DE0     		b	.L97
 1142              	.LVL152:
 1143              	.L99:
 539:.\Generated_Source\PSoC5/CapSense_CSHL.c ****         enMask = (uint8)(0x01u << (i & 0x07u));
 1144              		.loc 1 539 0
 1145 0006 E208     		lsrs	r2, r4, #3
 540:.\Generated_Source\PSoC5/CapSense_CSHL.c ****         if((CapSense_sensorEnableMask[pos] & enMask) != 0u)
 1146              		.loc 1 540 0
 1147 0008 04F00701 		and	r1, r4, #7
 1148 000c 0123     		movs	r3, #1
 1149 000e 8B40     		lsls	r3, r3, r1
 1150              	.LVL153:
 541:.\Generated_Source\PSoC5/CapSense_CSHL.c ****         {
 1151              		.loc 1 541 0
 1152 0010 0549     		ldr	r1, .L101
 1153 0012 8A5C     		ldrb	r2, [r1, r2]	@ zero_extendqisi2
 1154 0014 1342     		tst	r3, r2
 1155 0016 02D0     		beq	.L98
ARM GAS  C:\Users\lenovo\AppData\Local\Temp\ccnUwRoN.s 			page 56


 543:.\Generated_Source\PSoC5/CapSense_CSHL.c ****         }
 1156              		.loc 1 543 0
 1157 0018 2046     		mov	r0, r4
 1158 001a FFF7FEFF 		bl	CapSense_UpdateSensorBaseline
 1159              	.LVL154:
 1160              	.L98:
 537:.\Generated_Source\PSoC5/CapSense_CSHL.c ****     {
 1161              		.loc 1 537 0 discriminator 2
 1162 001e 0134     		adds	r4, r4, #1
 1163              	.LVL155:
 1164 0020 E4B2     		uxtb	r4, r4
 1165              	.LVL156:
 1166              	.L97:
 537:.\Generated_Source\PSoC5/CapSense_CSHL.c ****     {
 1167              		.loc 1 537 0 is_stmt 0 discriminator 1
 1168 0022 062C     		cmp	r4, #6
 1169 0024 EFD9     		bls	.L99
 546:.\Generated_Source\PSoC5/CapSense_CSHL.c **** 
 1170              		.loc 1 546 0 is_stmt 1
 1171 0026 10BD     		pop	{r4, pc}
 1172              	.LVL157:
 1173              	.L102:
 1174              		.align	2
 1175              	.L101:
 1176 0028 00000000 		.word	CapSense_sensorEnableMask
 1177              		.cfi_endproc
 1178              	.LFE5:
 1179              		.size	CapSense_UpdateEnabledBaselines, .-CapSense_UpdateEnabledBaselines
 1180              		.global	CapSense_centroidMult
 1181              		.global	CapSense_numberOfSensors
 1182              		.global	CapSense_rawDataIndex
 1183              		.global	CapSense_debounceCounter
 1184              		.global	CapSense_debounce
 1185              		.global	CapSense_hysteresis
 1186              		.global	CapSense_noiseThreshold
 1187              		.global	CapSense_fingerThreshold
 1188              		.comm	CapSense_lowBaselineResetCnt,7,4
 1189              		.comm	CapSense_sensorOnMask,1,4
 1190              		.comm	CapSense_sensorSignal,7,4
 1191              		.comm	CapSense_sensorBaselineLow,7,4
 1192              		.comm	CapSense_sensorBaseline,14,4
 1193              		.comm	CapSense_rawFilterData1,14,4
 1194              		.section	.rodata
 1195              		.align	2
 1196              		.set	.LANCHOR2,. + 0
 1197              		.type	CapSense_rawDataIndex, %object
 1198              		.size	CapSense_rawDataIndex, 3
 1199              	CapSense_rawDataIndex:
 1200 0000 02       		.byte	2
 1201 0001 00       		.byte	0
 1202 0002 01       		.byte	1
 1203 0003 00       		.space	1
 1204              		.type	CapSense_numberOfSensors, %object
 1205              		.size	CapSense_numberOfSensors, 3
 1206              	CapSense_numberOfSensors:
 1207 0004 05       		.byte	5
 1208 0005 01       		.byte	1
ARM GAS  C:\Users\lenovo\AppData\Local\Temp\ccnUwRoN.s 			page 57


 1209 0006 01       		.byte	1
 1210 0007 00       		.space	1
 1211              		.type	CapSense_centroidMult, %object
 1212              		.size	CapSense_centroidMult, 2
 1213              	CapSense_centroidMult:
 1214 0008 0019     		.short	6400
 1215 000a 0000     		.data
 1216              		.align	2
 1217              		.set	.LANCHOR0,. + 0
 1218              		.type	CapSense_debounce, %object
 1219              		.size	CapSense_debounce, 3
 1220              	CapSense_debounce:
 1221 0000 01       		.byte	1
 1222 0001 03       		.byte	3
 1223 0002 03       		.byte	3
 1224 0003 00       		.space	1
 1225              		.type	CapSense_fingerThreshold, %object
 1226              		.size	CapSense_fingerThreshold, 3
 1227              	CapSense_fingerThreshold:
 1228 0004 28       		.byte	40
 1229 0005 28       		.byte	40
 1230 0006 28       		.byte	40
 1231 0007 00       		.space	1
 1232              		.type	CapSense_hysteresis, %object
 1233              		.size	CapSense_hysteresis, 3
 1234              	CapSense_hysteresis:
 1235 0008 00       		.byte	0
 1236 0009 05       		.byte	5
 1237 000a 05       		.byte	5
 1238 000b 00       		.space	1
 1239              		.type	CapSense_noiseThreshold, %object
 1240              		.size	CapSense_noiseThreshold, 3
 1241              	CapSense_noiseThreshold:
 1242 000c 14       		.byte	20
 1243 000d 14       		.byte	20
 1244 000e 14       		.byte	20
 1245 000f 00       		.bss
 1246              		.align	2
 1247              		.set	.LANCHOR1,. + 0
 1248              		.type	CapSense_debounceCounter, %object
 1249              		.size	CapSense_debounceCounter, 3
 1250              	CapSense_debounceCounter:
 1251 0000 000000   		.space	3
 1252 0003 00       		.space	1
 1253              		.type	CapSense_centroid.5137, %object
 1254              		.size	CapSense_centroid.5137, 3
 1255              	CapSense_centroid.5137:
 1256 0004 000000   		.space	3
 1257 0007 00       		.text
 1258              	.Letext0:
 1259              		.file 2 ".\\Generated_Source\\PSoC5\\cytypes.h"
 1260              		.file 3 ".\\Generated_Source\\PSoC5\\CapSense.h"
 1261              		.file 4 ".\\Generated_Source\\PSoC5\\CapSense_CSHL.h"