ARM GAS  C:\Users\lenovo\AppData\Local\Temp\cc9VWNw2.s 			page 1


   1              		.syntax unified
   2              		.cpu cortex-m3
   3              		.fpu softvfp
   4              		.eabi_attribute 20, 1
   5              		.eabi_attribute 21, 1
   6              		.eabi_attribute 23, 3
   7              		.eabi_attribute 24, 1
   8              		.eabi_attribute 25, 1
   9              		.eabi_attribute 26, 1
  10              		.eabi_attribute 30, 1
  11              		.eabi_attribute 34, 1
  12              		.eabi_attribute 18, 4
  13              		.thumb
  14              		.file	"cyfitter_cfg.c"
  15              		.text
  16              	.Ltext0:
  17              		.cfi_sections	.debug_frame
  18              		.section	.text.CyClockStartupError,"ax",%progbits
  19              		.align	2
  20              		.thumb
  21              		.thumb_func
  22              		.type	CyClockStartupError, %function
  23              	CyClockStartupError:
  24              	.LFB3:
  25              		.file 1 ".\\Generated_Source\\PSoC5\\cyfitter_cfg.c"
   1:.\Generated_Source\PSoC5/cyfitter_cfg.c **** /*******************************************************************************
   2:.\Generated_Source\PSoC5/cyfitter_cfg.c **** * File Name: cyfitter_cfg.c
   3:.\Generated_Source\PSoC5/cyfitter_cfg.c **** * 
   4:.\Generated_Source\PSoC5/cyfitter_cfg.c **** * PSoC Creator  3.3 CP3
   5:.\Generated_Source\PSoC5/cyfitter_cfg.c **** *
   6:.\Generated_Source\PSoC5/cyfitter_cfg.c **** * Description:
   7:.\Generated_Source\PSoC5/cyfitter_cfg.c **** * This file contains device initialization code.
   8:.\Generated_Source\PSoC5/cyfitter_cfg.c **** * Except for the user defined sections in CyClockStartupError(), this file should not be modified.
   9:.\Generated_Source\PSoC5/cyfitter_cfg.c **** * This file is automatically generated by PSoC Creator.
  10:.\Generated_Source\PSoC5/cyfitter_cfg.c **** *
  11:.\Generated_Source\PSoC5/cyfitter_cfg.c **** ********************************************************************************
  12:.\Generated_Source\PSoC5/cyfitter_cfg.c **** * Copyright (c) 2007-2016 Cypress Semiconductor.  All rights reserved.
  13:.\Generated_Source\PSoC5/cyfitter_cfg.c **** * You may use this file only in accordance with the license, terms, conditions, 
  14:.\Generated_Source\PSoC5/cyfitter_cfg.c **** * disclaimers, and limitations in the end user license agreement accompanying 
  15:.\Generated_Source\PSoC5/cyfitter_cfg.c **** * the software package with which this file was provided.
  16:.\Generated_Source\PSoC5/cyfitter_cfg.c **** ********************************************************************************/
  17:.\Generated_Source\PSoC5/cyfitter_cfg.c **** 
  18:.\Generated_Source\PSoC5/cyfitter_cfg.c **** #include <string.h>
  19:.\Generated_Source\PSoC5/cyfitter_cfg.c **** #include "cytypes.h"
  20:.\Generated_Source\PSoC5/cyfitter_cfg.c **** #include "cydevice_trm.h"
  21:.\Generated_Source\PSoC5/cyfitter_cfg.c **** #include "cyfitter.h"
  22:.\Generated_Source\PSoC5/cyfitter_cfg.c **** #include "CyLib.h"
  23:.\Generated_Source\PSoC5/cyfitter_cfg.c **** #include "cyfitter_cfg.h"
  24:.\Generated_Source\PSoC5/cyfitter_cfg.c **** 
  25:.\Generated_Source\PSoC5/cyfitter_cfg.c **** #define CY_NEED_CYCLOCKSTARTUPERROR 1
  26:.\Generated_Source\PSoC5/cyfitter_cfg.c **** 
  27:.\Generated_Source\PSoC5/cyfitter_cfg.c **** 
  28:.\Generated_Source\PSoC5/cyfitter_cfg.c **** #if defined(__GNUC__) || defined(__ARMCC_VERSION)
  29:.\Generated_Source\PSoC5/cyfitter_cfg.c ****     #define CYPACKED 
  30:.\Generated_Source\PSoC5/cyfitter_cfg.c ****     #define CYPACKED_ATTR __attribute__ ((packed))
  31:.\Generated_Source\PSoC5/cyfitter_cfg.c ****     #define CYALIGNED __attribute__ ((aligned))
  32:.\Generated_Source\PSoC5/cyfitter_cfg.c ****     #define CY_CFG_UNUSED __attribute__ ((unused))
ARM GAS  C:\Users\lenovo\AppData\Local\Temp\cc9VWNw2.s 			page 2


  33:.\Generated_Source\PSoC5/cyfitter_cfg.c ****     #ifndef CY_CFG_SECTION
  34:.\Generated_Source\PSoC5/cyfitter_cfg.c ****         #define CY_CFG_SECTION __attribute__ ((section(".psocinit")))
  35:.\Generated_Source\PSoC5/cyfitter_cfg.c ****     #endif
  36:.\Generated_Source\PSoC5/cyfitter_cfg.c ****     
  37:.\Generated_Source\PSoC5/cyfitter_cfg.c ****     #if defined(__ARMCC_VERSION)
  38:.\Generated_Source\PSoC5/cyfitter_cfg.c ****         #define CY_CFG_MEMORY_BARRIER() __memory_changed()
  39:.\Generated_Source\PSoC5/cyfitter_cfg.c ****     #else
  40:.\Generated_Source\PSoC5/cyfitter_cfg.c ****         #define CY_CFG_MEMORY_BARRIER() __sync_synchronize()
  41:.\Generated_Source\PSoC5/cyfitter_cfg.c ****     #endif
  42:.\Generated_Source\PSoC5/cyfitter_cfg.c ****     
  43:.\Generated_Source\PSoC5/cyfitter_cfg.c **** #elif defined(__ICCARM__)
  44:.\Generated_Source\PSoC5/cyfitter_cfg.c ****     #include <intrinsics.h>
  45:.\Generated_Source\PSoC5/cyfitter_cfg.c **** 
  46:.\Generated_Source\PSoC5/cyfitter_cfg.c ****     #define CYPACKED __packed
  47:.\Generated_Source\PSoC5/cyfitter_cfg.c ****     #define CYPACKED_ATTR 
  48:.\Generated_Source\PSoC5/cyfitter_cfg.c ****     #define CYALIGNED _Pragma("data_alignment=4")
  49:.\Generated_Source\PSoC5/cyfitter_cfg.c ****     #define CY_CFG_UNUSED _Pragma("diag_suppress=Pe177")
  50:.\Generated_Source\PSoC5/cyfitter_cfg.c ****     #define CY_CFG_SECTION _Pragma("location=\".psocinit\"")
  51:.\Generated_Source\PSoC5/cyfitter_cfg.c ****     
  52:.\Generated_Source\PSoC5/cyfitter_cfg.c ****     #define CY_CFG_MEMORY_BARRIER() __DMB()
  53:.\Generated_Source\PSoC5/cyfitter_cfg.c ****     
  54:.\Generated_Source\PSoC5/cyfitter_cfg.c **** #else
  55:.\Generated_Source\PSoC5/cyfitter_cfg.c ****     #error Unsupported toolchain
  56:.\Generated_Source\PSoC5/cyfitter_cfg.c **** #endif
  57:.\Generated_Source\PSoC5/cyfitter_cfg.c **** 
  58:.\Generated_Source\PSoC5/cyfitter_cfg.c **** 
  59:.\Generated_Source\PSoC5/cyfitter_cfg.c **** CY_CFG_UNUSED
  60:.\Generated_Source\PSoC5/cyfitter_cfg.c **** static void CYMEMZERO(void *s, size_t n);
  61:.\Generated_Source\PSoC5/cyfitter_cfg.c **** CY_CFG_UNUSED
  62:.\Generated_Source\PSoC5/cyfitter_cfg.c **** static void CYMEMZERO(void *s, size_t n)
  63:.\Generated_Source\PSoC5/cyfitter_cfg.c **** {
  64:.\Generated_Source\PSoC5/cyfitter_cfg.c **** 	(void)memset(s, 0, n);
  65:.\Generated_Source\PSoC5/cyfitter_cfg.c **** }
  66:.\Generated_Source\PSoC5/cyfitter_cfg.c **** CY_CFG_UNUSED
  67:.\Generated_Source\PSoC5/cyfitter_cfg.c **** static void CYCONFIGCPY(void *dest, const void *src, size_t n);
  68:.\Generated_Source\PSoC5/cyfitter_cfg.c **** CY_CFG_UNUSED
  69:.\Generated_Source\PSoC5/cyfitter_cfg.c **** static void CYCONFIGCPY(void *dest, const void *src, size_t n)
  70:.\Generated_Source\PSoC5/cyfitter_cfg.c **** {
  71:.\Generated_Source\PSoC5/cyfitter_cfg.c **** 	(void)memcpy(dest, src, n);
  72:.\Generated_Source\PSoC5/cyfitter_cfg.c **** }
  73:.\Generated_Source\PSoC5/cyfitter_cfg.c **** CY_CFG_UNUSED
  74:.\Generated_Source\PSoC5/cyfitter_cfg.c **** static void CYCONFIGCPYCODE(void *dest, const void *src, size_t n);
  75:.\Generated_Source\PSoC5/cyfitter_cfg.c **** CY_CFG_UNUSED
  76:.\Generated_Source\PSoC5/cyfitter_cfg.c **** static void CYCONFIGCPYCODE(void *dest, const void *src, size_t n)
  77:.\Generated_Source\PSoC5/cyfitter_cfg.c **** {
  78:.\Generated_Source\PSoC5/cyfitter_cfg.c **** 	(void)memcpy(dest, src, n);
  79:.\Generated_Source\PSoC5/cyfitter_cfg.c **** }
  80:.\Generated_Source\PSoC5/cyfitter_cfg.c **** 
  81:.\Generated_Source\PSoC5/cyfitter_cfg.c **** 
  82:.\Generated_Source\PSoC5/cyfitter_cfg.c **** 
  83:.\Generated_Source\PSoC5/cyfitter_cfg.c **** /* Clock startup error codes                                                   */
  84:.\Generated_Source\PSoC5/cyfitter_cfg.c **** #define CYCLOCKSTART_NO_ERROR    0u
  85:.\Generated_Source\PSoC5/cyfitter_cfg.c **** #define CYCLOCKSTART_XTAL_ERROR  1u
  86:.\Generated_Source\PSoC5/cyfitter_cfg.c **** #define CYCLOCKSTART_32KHZ_ERROR 2u
  87:.\Generated_Source\PSoC5/cyfitter_cfg.c **** #define CYCLOCKSTART_PLL_ERROR   3u
  88:.\Generated_Source\PSoC5/cyfitter_cfg.c **** 
  89:.\Generated_Source\PSoC5/cyfitter_cfg.c **** #ifdef CY_NEED_CYCLOCKSTARTUPERROR
ARM GAS  C:\Users\lenovo\AppData\Local\Temp\cc9VWNw2.s 			page 3


  90:.\Generated_Source\PSoC5/cyfitter_cfg.c **** /*******************************************************************************
  91:.\Generated_Source\PSoC5/cyfitter_cfg.c **** * Function Name: CyClockStartupError
  92:.\Generated_Source\PSoC5/cyfitter_cfg.c **** ********************************************************************************
  93:.\Generated_Source\PSoC5/cyfitter_cfg.c **** * Summary:
  94:.\Generated_Source\PSoC5/cyfitter_cfg.c **** *  If an error is encountered during clock configuration (crystal startup error,
  95:.\Generated_Source\PSoC5/cyfitter_cfg.c **** *  PLL lock error, etc.), the system will end up here.  Unless reimplemented by
  96:.\Generated_Source\PSoC5/cyfitter_cfg.c **** *  the customer, this function will stop in an infinite loop.
  97:.\Generated_Source\PSoC5/cyfitter_cfg.c **** *
  98:.\Generated_Source\PSoC5/cyfitter_cfg.c **** * Parameters:
  99:.\Generated_Source\PSoC5/cyfitter_cfg.c **** *   void
 100:.\Generated_Source\PSoC5/cyfitter_cfg.c **** *
 101:.\Generated_Source\PSoC5/cyfitter_cfg.c **** * Return:
 102:.\Generated_Source\PSoC5/cyfitter_cfg.c **** *   void
 103:.\Generated_Source\PSoC5/cyfitter_cfg.c **** *
 104:.\Generated_Source\PSoC5/cyfitter_cfg.c **** *******************************************************************************/
 105:.\Generated_Source\PSoC5/cyfitter_cfg.c **** CY_CFG_UNUSED
 106:.\Generated_Source\PSoC5/cyfitter_cfg.c **** static void CyClockStartupError(uint8 errorCode);
 107:.\Generated_Source\PSoC5/cyfitter_cfg.c **** CY_CFG_UNUSED
 108:.\Generated_Source\PSoC5/cyfitter_cfg.c **** static void CyClockStartupError(uint8 errorCode)
 109:.\Generated_Source\PSoC5/cyfitter_cfg.c **** {
  26              		.loc 1 109 0
  27              		.cfi_startproc
  28              		@ Volatile: function does not return.
  29              		@ args = 0, pretend = 0, frame = 0
  30              		@ frame_needed = 0, uses_anonymous_args = 0
  31              		@ link register save eliminated.
  32              	.LVL0:
  33              	.L2:
 110:.\Generated_Source\PSoC5/cyfitter_cfg.c ****     /* To remove the compiler warning if errorCode not used.                */
 111:.\Generated_Source\PSoC5/cyfitter_cfg.c ****     errorCode = errorCode;
 112:.\Generated_Source\PSoC5/cyfitter_cfg.c **** 
 113:.\Generated_Source\PSoC5/cyfitter_cfg.c ****     /* `#START CyClockStartupError` */
 114:.\Generated_Source\PSoC5/cyfitter_cfg.c **** 
 115:.\Generated_Source\PSoC5/cyfitter_cfg.c ****     /* If we have a clock startup error (bad MHz crystal, PLL lock, etc.),  */
 116:.\Generated_Source\PSoC5/cyfitter_cfg.c ****     /* we will end up here to allow the customer to implement something to  */
 117:.\Generated_Source\PSoC5/cyfitter_cfg.c ****     /* deal with the clock condition.                                       */
 118:.\Generated_Source\PSoC5/cyfitter_cfg.c **** 
 119:.\Generated_Source\PSoC5/cyfitter_cfg.c ****     /* `#END` */
 120:.\Generated_Source\PSoC5/cyfitter_cfg.c **** 
 121:.\Generated_Source\PSoC5/cyfitter_cfg.c ****     /* If nothing else, stop here since the clocks have not started         */
 122:.\Generated_Source\PSoC5/cyfitter_cfg.c ****     /* correctly.                                                           */
 123:.\Generated_Source\PSoC5/cyfitter_cfg.c ****     while(1) {}
  34              		.loc 1 123 0 discriminator 1
  35 0000 FEE7     		b	.L2
  36              		.cfi_endproc
  37              	.LFE3:
  38              		.size	CyClockStartupError, .-CyClockStartupError
  39 0002 00BF     		.section	.text.cfg_write_bytes32,"ax",%progbits
  40              		.align	2
  41              		.thumb
  42              		.thumb_func
  43              		.type	cfg_write_bytes32, %function
  44              	cfg_write_bytes32:
  45              	.LFB4:
 124:.\Generated_Source\PSoC5/cyfitter_cfg.c **** }
 125:.\Generated_Source\PSoC5/cyfitter_cfg.c **** #endif
 126:.\Generated_Source\PSoC5/cyfitter_cfg.c **** 
ARM GAS  C:\Users\lenovo\AppData\Local\Temp\cc9VWNw2.s 			page 4


 127:.\Generated_Source\PSoC5/cyfitter_cfg.c **** #define CY_CFG_BASE_ADDR_COUNT 36u
 128:.\Generated_Source\PSoC5/cyfitter_cfg.c **** CYPACKED typedef struct
 129:.\Generated_Source\PSoC5/cyfitter_cfg.c **** {
 130:.\Generated_Source\PSoC5/cyfitter_cfg.c **** 	uint8 offset;
 131:.\Generated_Source\PSoC5/cyfitter_cfg.c **** 	uint8 value;
 132:.\Generated_Source\PSoC5/cyfitter_cfg.c **** } CYPACKED_ATTR cy_cfg_addrvalue_t;
 133:.\Generated_Source\PSoC5/cyfitter_cfg.c **** 
 134:.\Generated_Source\PSoC5/cyfitter_cfg.c **** #define cy_cfg_addr_table ((const uint32 CYFAR *)0x48000000u)
 135:.\Generated_Source\PSoC5/cyfitter_cfg.c **** #define cy_cfg_data_table ((const cy_cfg_addrvalue_t CYFAR *)0x48000090u)
 136:.\Generated_Source\PSoC5/cyfitter_cfg.c **** 
 137:.\Generated_Source\PSoC5/cyfitter_cfg.c **** /* UDB_1_2_0_CONFIG Address: CYDEV_UCFG_B0_P3_U1_BASE Size (bytes): 128 */
 138:.\Generated_Source\PSoC5/cyfitter_cfg.c **** #define BS_UDB_1_2_0_CONFIG_VAL ((const uint8 CYFAR *)0x48000AB4u)
 139:.\Generated_Source\PSoC5/cyfitter_cfg.c **** 
 140:.\Generated_Source\PSoC5/cyfitter_cfg.c **** /* IOPINS0_8 Address: CYREG_PRT15_DR Size (bytes): 10 */
 141:.\Generated_Source\PSoC5/cyfitter_cfg.c **** #define BS_IOPINS0_8_VAL ((const uint8 CYFAR *)0x48000B34u)
 142:.\Generated_Source\PSoC5/cyfitter_cfg.c **** 
 143:.\Generated_Source\PSoC5/cyfitter_cfg.c **** /* IOPINS0_1 Address: CYREG_PRT1_DR Size (bytes): 10 */
 144:.\Generated_Source\PSoC5/cyfitter_cfg.c **** #define BS_IOPINS0_1_VAL ((const uint8 CYFAR *)0x48000B40u)
 145:.\Generated_Source\PSoC5/cyfitter_cfg.c **** 
 146:.\Generated_Source\PSoC5/cyfitter_cfg.c **** /* IOPINS0_2 Address: CYREG_PRT2_DM0 Size (bytes): 8 */
 147:.\Generated_Source\PSoC5/cyfitter_cfg.c **** #define BS_IOPINS0_2_VAL ((const uint8 CYFAR *)0x48000B4Cu)
 148:.\Generated_Source\PSoC5/cyfitter_cfg.c **** 
 149:.\Generated_Source\PSoC5/cyfitter_cfg.c **** /* IOPINS0_4 Address: CYREG_PRT4_DR Size (bytes): 10 */
 150:.\Generated_Source\PSoC5/cyfitter_cfg.c **** #define BS_IOPINS0_4_VAL ((const uint8 CYFAR *)0x48000B54u)
 151:.\Generated_Source\PSoC5/cyfitter_cfg.c **** 
 152:.\Generated_Source\PSoC5/cyfitter_cfg.c **** /* IOPINS0_5 Address: CYREG_PRT5_DM0 Size (bytes): 8 */
 153:.\Generated_Source\PSoC5/cyfitter_cfg.c **** #define BS_IOPINS0_5_VAL ((const uint8 CYFAR *)0x48000B60u)
 154:.\Generated_Source\PSoC5/cyfitter_cfg.c **** 
 155:.\Generated_Source\PSoC5/cyfitter_cfg.c **** /* IOPINS0_6 Address: CYREG_PRT6_DM0 Size (bytes): 8 */
 156:.\Generated_Source\PSoC5/cyfitter_cfg.c **** #define BS_IOPINS0_6_VAL ((const uint8 CYFAR *)0x48000B68u)
 157:.\Generated_Source\PSoC5/cyfitter_cfg.c **** 
 158:.\Generated_Source\PSoC5/cyfitter_cfg.c **** /* CYDEV_CLKDIST_ACFG0_CFG0 Address: CYREG_CLKDIST_ACFG0_CFG0 Size (bytes): 4 */
 159:.\Generated_Source\PSoC5/cyfitter_cfg.c **** #define BS_CYDEV_CLKDIST_ACFG0_CFG0_VAL ((const uint8 CYFAR *)0x48000B70u)
 160:.\Generated_Source\PSoC5/cyfitter_cfg.c **** 
 161:.\Generated_Source\PSoC5/cyfitter_cfg.c **** 
 162:.\Generated_Source\PSoC5/cyfitter_cfg.c **** /*******************************************************************************
 163:.\Generated_Source\PSoC5/cyfitter_cfg.c **** * Function Name: cfg_write_bytes32
 164:.\Generated_Source\PSoC5/cyfitter_cfg.c **** ********************************************************************************
 165:.\Generated_Source\PSoC5/cyfitter_cfg.c **** * Summary:
 166:.\Generated_Source\PSoC5/cyfitter_cfg.c **** *  This function is used for setting up the chip configuration areas that
 167:.\Generated_Source\PSoC5/cyfitter_cfg.c **** *  contain relatively sparse data.
 168:.\Generated_Source\PSoC5/cyfitter_cfg.c **** *
 169:.\Generated_Source\PSoC5/cyfitter_cfg.c **** * Parameters:
 170:.\Generated_Source\PSoC5/cyfitter_cfg.c **** *   void
 171:.\Generated_Source\PSoC5/cyfitter_cfg.c **** *
 172:.\Generated_Source\PSoC5/cyfitter_cfg.c **** * Return:
 173:.\Generated_Source\PSoC5/cyfitter_cfg.c **** *   void
 174:.\Generated_Source\PSoC5/cyfitter_cfg.c **** *
 175:.\Generated_Source\PSoC5/cyfitter_cfg.c **** *******************************************************************************/
 176:.\Generated_Source\PSoC5/cyfitter_cfg.c **** static void cfg_write_bytes32(const uint32 addr_table[], const cy_cfg_addrvalue_t data_table[]);
 177:.\Generated_Source\PSoC5/cyfitter_cfg.c **** static void cfg_write_bytes32(const uint32 addr_table[], const cy_cfg_addrvalue_t data_table[])
 178:.\Generated_Source\PSoC5/cyfitter_cfg.c **** {
  46              		.loc 1 178 0
  47              		.cfi_startproc
  48              		@ args = 0, pretend = 0, frame = 0
  49              		@ frame_needed = 0, uses_anonymous_args = 0
  50              		@ link register save eliminated.
ARM GAS  C:\Users\lenovo\AppData\Local\Temp\cc9VWNw2.s 			page 5


  51              	.LVL1:
  52 0000 F0B4     		push	{r4, r5, r6, r7}
  53              		.cfi_def_cfa_offset 16
  54              		.cfi_offset 4, -16
  55              		.cfi_offset 5, -12
  56              		.cfi_offset 6, -8
  57              		.cfi_offset 7, -4
  58              	.LVL2:
 179:.\Generated_Source\PSoC5/cyfitter_cfg.c **** 	/* For 32-bit little-endian architectures */
 180:.\Generated_Source\PSoC5/cyfitter_cfg.c **** 	uint32 i, j = 0u;
  59              		.loc 1 180 0
  60 0002 0022     		movs	r2, #0
 181:.\Generated_Source\PSoC5/cyfitter_cfg.c **** 	for (i = 0u; i < CY_CFG_BASE_ADDR_COUNT; i++)
  61              		.loc 1 181 0
  62 0004 1746     		mov	r7, r2
  63 0006 11E0     		b	.L4
  64              	.LVL3:
  65              	.L7:
  66              	.LBB2:
 182:.\Generated_Source\PSoC5/cyfitter_cfg.c **** 	{
 183:.\Generated_Source\PSoC5/cyfitter_cfg.c **** 		uint32 baseAddr = addr_table[i];
  67              		.loc 1 183 0
  68 0008 50F82760 		ldr	r6, [r0, r7, lsl #2]
  69              	.LVL4:
 184:.\Generated_Source\PSoC5/cyfitter_cfg.c **** 		uint8 count = (uint8)baseAddr;
  70              		.loc 1 184 0
  71 000c F3B2     		uxtb	r3, r6
  72              	.LVL5:
 185:.\Generated_Source\PSoC5/cyfitter_cfg.c **** 		baseAddr &= 0xFFFFFF00u;
  73              		.loc 1 185 0
  74 000e 26F0FF06 		bic	r6, r6, #255
  75              	.LVL6:
 186:.\Generated_Source\PSoC5/cyfitter_cfg.c **** 		while (count != 0u)
  76              		.loc 1 186 0
  77 0012 08E0     		b	.L5
  78              	.L6:
 187:.\Generated_Source\PSoC5/cyfitter_cfg.c **** 		{
 188:.\Generated_Source\PSoC5/cyfitter_cfg.c **** 			CY_SET_XTND_REG8((void CYFAR *)(baseAddr + data_table[j].offset), data_table[j].value);
  79              		.loc 1 188 0
  80 0014 01EB4205 		add	r5, r1, r2, lsl #1
  81 0018 11F81240 		ldrb	r4, [r1, r2, lsl #1]	@ zero_extendqisi2
  82 001c 6D78     		ldrb	r5, [r5, #1]	@ zero_extendqisi2
  83 001e A555     		strb	r5, [r4, r6]
 189:.\Generated_Source\PSoC5/cyfitter_cfg.c **** 			j++;
  84              		.loc 1 189 0
  85 0020 0132     		adds	r2, r2, #1
  86              	.LVL7:
 190:.\Generated_Source\PSoC5/cyfitter_cfg.c **** 			count--;
  87              		.loc 1 190 0
  88 0022 013B     		subs	r3, r3, #1
  89              	.LVL8:
  90 0024 DBB2     		uxtb	r3, r3
  91              	.LVL9:
  92              	.L5:
 186:.\Generated_Source\PSoC5/cyfitter_cfg.c **** 		{
  93              		.loc 1 186 0
  94 0026 002B     		cmp	r3, #0
ARM GAS  C:\Users\lenovo\AppData\Local\Temp\cc9VWNw2.s 			page 6


  95 0028 F4D1     		bne	.L6
  96              	.LBE2:
 181:.\Generated_Source\PSoC5/cyfitter_cfg.c **** 	{
  97              		.loc 1 181 0 discriminator 2
  98 002a 0137     		adds	r7, r7, #1
  99              	.LVL10:
 100              	.L4:
 181:.\Generated_Source\PSoC5/cyfitter_cfg.c **** 	{
 101              		.loc 1 181 0 is_stmt 0 discriminator 1
 102 002c 232F     		cmp	r7, #35
 103 002e EBD9     		bls	.L7
 191:.\Generated_Source\PSoC5/cyfitter_cfg.c **** 		}
 192:.\Generated_Source\PSoC5/cyfitter_cfg.c **** 	}
 193:.\Generated_Source\PSoC5/cyfitter_cfg.c **** }
 104              		.loc 1 193 0 is_stmt 1
 105 0030 F0BC     		pop	{r4, r5, r6, r7}
 106              		.cfi_restore 7
 107              		.cfi_restore 6
 108              		.cfi_restore 5
 109              		.cfi_restore 4
 110              		.cfi_def_cfa_offset 0
 111              	.LVL11:
 112 0032 7047     		bx	lr
 113              		.cfi_endproc
 114              	.LFE4:
 115              		.size	cfg_write_bytes32, .-cfg_write_bytes32
 116              		.section	.text.AnalogSetDefault,"ax",%progbits
 117              		.align	2
 118              		.thumb
 119              		.thumb_func
 120              		.type	AnalogSetDefault, %function
 121              	AnalogSetDefault:
 122              	.LFB6:
 194:.\Generated_Source\PSoC5/cyfitter_cfg.c **** 
 195:.\Generated_Source\PSoC5/cyfitter_cfg.c **** /*******************************************************************************
 196:.\Generated_Source\PSoC5/cyfitter_cfg.c **** * Function Name: ClockSetup
 197:.\Generated_Source\PSoC5/cyfitter_cfg.c **** ********************************************************************************
 198:.\Generated_Source\PSoC5/cyfitter_cfg.c **** *
 199:.\Generated_Source\PSoC5/cyfitter_cfg.c **** * Summary:
 200:.\Generated_Source\PSoC5/cyfitter_cfg.c **** *  Performs the initialization of all of the clocks in the device based on the
 201:.\Generated_Source\PSoC5/cyfitter_cfg.c **** *  settings in the Clock tab of the DWR.  This includes enabling the requested
 202:.\Generated_Source\PSoC5/cyfitter_cfg.c **** *  clocks and setting the necessary dividers to produce the desired frequency. 
 203:.\Generated_Source\PSoC5/cyfitter_cfg.c **** *
 204:.\Generated_Source\PSoC5/cyfitter_cfg.c **** * Parameters:
 205:.\Generated_Source\PSoC5/cyfitter_cfg.c **** *  void
 206:.\Generated_Source\PSoC5/cyfitter_cfg.c **** *
 207:.\Generated_Source\PSoC5/cyfitter_cfg.c **** * Return:
 208:.\Generated_Source\PSoC5/cyfitter_cfg.c **** *  void
 209:.\Generated_Source\PSoC5/cyfitter_cfg.c **** *
 210:.\Generated_Source\PSoC5/cyfitter_cfg.c **** *******************************************************************************/
 211:.\Generated_Source\PSoC5/cyfitter_cfg.c **** static void ClockSetup(void);
 212:.\Generated_Source\PSoC5/cyfitter_cfg.c **** static void ClockSetup(void)
 213:.\Generated_Source\PSoC5/cyfitter_cfg.c **** {
 214:.\Generated_Source\PSoC5/cyfitter_cfg.c **** 	uint32 timeout;
 215:.\Generated_Source\PSoC5/cyfitter_cfg.c **** 	uint8 pllLock;
 216:.\Generated_Source\PSoC5/cyfitter_cfg.c **** 
 217:.\Generated_Source\PSoC5/cyfitter_cfg.c **** 
ARM GAS  C:\Users\lenovo\AppData\Local\Temp\cc9VWNw2.s 			page 7


 218:.\Generated_Source\PSoC5/cyfitter_cfg.c **** 	/* Configure Digital Clocks based on settings from Clock DWR */
 219:.\Generated_Source\PSoC5/cyfitter_cfg.c **** 	CY_SET_XTND_REG16((void CYFAR *)(CYREG_CLKDIST_DCFG0_CFG0), 0x0000u);
 220:.\Generated_Source\PSoC5/cyfitter_cfg.c **** 	CY_SET_XTND_REG8((void CYFAR *)(CYREG_CLKDIST_DCFG0_CFG0 + 0x2u), 0x50u);
 221:.\Generated_Source\PSoC5/cyfitter_cfg.c **** 	CY_SET_XTND_REG16((void CYFAR *)(CYREG_CLKDIST_DCFG1_CFG0), 0x0001u);
 222:.\Generated_Source\PSoC5/cyfitter_cfg.c **** 	CY_SET_XTND_REG8((void CYFAR *)(CYREG_CLKDIST_DCFG1_CFG0 + 0x2u), 0x19u);
 223:.\Generated_Source\PSoC5/cyfitter_cfg.c **** 	CY_SET_XTND_REG16((void CYFAR *)(CYREG_CLKDIST_DCFG2_CFG0), 0x007Fu);
 224:.\Generated_Source\PSoC5/cyfitter_cfg.c **** 	CY_SET_XTND_REG8((void CYFAR *)(CYREG_CLKDIST_DCFG2_CFG0 + 0x2u), 0x18u);
 225:.\Generated_Source\PSoC5/cyfitter_cfg.c **** 	CY_SET_XTND_REG16((void CYFAR *)(CYREG_CLKDIST_DCFG3_CFG0), 0x0340u);
 226:.\Generated_Source\PSoC5/cyfitter_cfg.c **** 	CY_SET_XTND_REG8((void CYFAR *)(CYREG_CLKDIST_DCFG3_CFG0 + 0x2u), 0x18u);
 227:.\Generated_Source\PSoC5/cyfitter_cfg.c **** 	CY_SET_XTND_REG16((void CYFAR *)(CYREG_CLKDIST_DCFG4_CFG0), 0x18FFu);
 228:.\Generated_Source\PSoC5/cyfitter_cfg.c **** 	CY_SET_XTND_REG8((void CYFAR *)(CYREG_CLKDIST_DCFG4_CFG0 + 0x2u), 0x18u);
 229:.\Generated_Source\PSoC5/cyfitter_cfg.c **** 
 230:.\Generated_Source\PSoC5/cyfitter_cfg.c **** 	/* Configure Analog Clocks based on settings from Clock DWR */
 231:.\Generated_Source\PSoC5/cyfitter_cfg.c **** 	CYCONFIGCPY((void CYFAR *)(CYREG_CLKDIST_ACFG0_CFG0), (const void CYFAR *)(BS_CYDEV_CLKDIST_ACFG0_
 232:.\Generated_Source\PSoC5/cyfitter_cfg.c **** 
 233:.\Generated_Source\PSoC5/cyfitter_cfg.c **** 	/* Configure ILO based on settings from Clock DWR */
 234:.\Generated_Source\PSoC5/cyfitter_cfg.c **** 	CY_SET_XTND_REG8((void CYFAR *)(CYREG_SLOWCLK_ILO_CR0), 0x06u);
 235:.\Generated_Source\PSoC5/cyfitter_cfg.c **** 
 236:.\Generated_Source\PSoC5/cyfitter_cfg.c **** 	/* Configure IMO based on settings from Clock DWR */
 237:.\Generated_Source\PSoC5/cyfitter_cfg.c **** 	CY_SET_XTND_REG8((void CYFAR *)(CYREG_FASTCLK_IMO_CR), 0x52u);
 238:.\Generated_Source\PSoC5/cyfitter_cfg.c **** 	CY_SET_XTND_REG8((void CYFAR *)(CYREG_IMO_TR1), (CY_GET_XTND_REG8((void CYFAR *)CYREG_FLSHID_CUST_
 239:.\Generated_Source\PSoC5/cyfitter_cfg.c **** 
 240:.\Generated_Source\PSoC5/cyfitter_cfg.c **** 	/* Configure PLL based on settings from Clock DWR */
 241:.\Generated_Source\PSoC5/cyfitter_cfg.c **** 	CY_SET_XTND_REG16((void CYFAR *)(CYREG_FASTCLK_PLL_P), 0x0818u);
 242:.\Generated_Source\PSoC5/cyfitter_cfg.c **** 	CY_SET_XTND_REG16((void CYFAR *)(CYREG_FASTCLK_PLL_CFG0), 0x1251u);
 243:.\Generated_Source\PSoC5/cyfitter_cfg.c **** 	/* Wait up to 250us for the PLL to lock */
 244:.\Generated_Source\PSoC5/cyfitter_cfg.c **** 	pllLock = 0u;
 245:.\Generated_Source\PSoC5/cyfitter_cfg.c **** 	for (timeout = 250u / 10u; (timeout > 0u) && (pllLock != 0x03u); timeout--)
 246:.\Generated_Source\PSoC5/cyfitter_cfg.c **** 	{ 
 247:.\Generated_Source\PSoC5/cyfitter_cfg.c **** 		pllLock = 0x03u & ((uint8)((uint8)pllLock << 1) | ((CY_GET_XTND_REG8((void CYFAR *)CYREG_FASTCLK_
 248:.\Generated_Source\PSoC5/cyfitter_cfg.c **** 		CyDelayCycles(10u * 48u); /* Delay 10us based on 48MHz clock */
 249:.\Generated_Source\PSoC5/cyfitter_cfg.c **** 	}
 250:.\Generated_Source\PSoC5/cyfitter_cfg.c **** 	/* If we ran out of time the PLL didn't lock so go to the error function */
 251:.\Generated_Source\PSoC5/cyfitter_cfg.c **** 	if (timeout == 0u)
 252:.\Generated_Source\PSoC5/cyfitter_cfg.c **** 	{
 253:.\Generated_Source\PSoC5/cyfitter_cfg.c **** 		CyClockStartupError(CYCLOCKSTART_PLL_ERROR);
 254:.\Generated_Source\PSoC5/cyfitter_cfg.c **** 	}
 255:.\Generated_Source\PSoC5/cyfitter_cfg.c **** 
 256:.\Generated_Source\PSoC5/cyfitter_cfg.c **** 	/* Configure Bus/Master Clock based on settings from Clock DWR */
 257:.\Generated_Source\PSoC5/cyfitter_cfg.c **** 	CY_SET_XTND_REG16((void CYFAR *)(CYREG_CLKDIST_MSTR0), 0x0100u);
 258:.\Generated_Source\PSoC5/cyfitter_cfg.c **** 	CY_SET_XTND_REG8((void CYFAR *)(CYREG_CLKDIST_MSTR0), 0x07u);
 259:.\Generated_Source\PSoC5/cyfitter_cfg.c **** 	CY_SET_XTND_REG8((void CYFAR *)(CYREG_CLKDIST_BCFG0), 0x00u);
 260:.\Generated_Source\PSoC5/cyfitter_cfg.c **** 	CY_SET_XTND_REG8((void CYFAR *)(CYREG_CLKDIST_BCFG2), 0x48u);
 261:.\Generated_Source\PSoC5/cyfitter_cfg.c **** 	CY_SET_XTND_REG8((void CYFAR *)(CYREG_CLKDIST_MSTR0), 0x00u);
 262:.\Generated_Source\PSoC5/cyfitter_cfg.c **** 
 263:.\Generated_Source\PSoC5/cyfitter_cfg.c **** 	/* Configure USB Clock based on settings from Clock DWR */
 264:.\Generated_Source\PSoC5/cyfitter_cfg.c **** 	CY_SET_XTND_REG8((void CYFAR *)(CYREG_CLKDIST_UCFG), 0x00u);
 265:.\Generated_Source\PSoC5/cyfitter_cfg.c **** 	CY_SET_XTND_REG8((void CYFAR *)(CYREG_CLKDIST_LD), 0x02u);
 266:.\Generated_Source\PSoC5/cyfitter_cfg.c **** 	CY_SET_XTND_REG8((void CYFAR *)(CYREG_CLKDIST_DLY1), 0x04u);
 267:.\Generated_Source\PSoC5/cyfitter_cfg.c **** 
 268:.\Generated_Source\PSoC5/cyfitter_cfg.c **** 	CY_SET_XTND_REG8((void CYFAR *)(CYREG_PM_ACT_CFG2), ((CY_GET_XTND_REG8((void CYFAR *)CYREG_PM_ACT_
 269:.\Generated_Source\PSoC5/cyfitter_cfg.c **** 	CY_SET_XTND_REG8((void CYFAR *)(CYREG_PM_ACT_CFG1), ((CY_GET_XTND_REG8((void CYFAR *)CYREG_PM_ACT_
 270:.\Generated_Source\PSoC5/cyfitter_cfg.c **** 	CY_SET_XTND_REG8((void CYFAR *)(CYREG_PM_ACT_CFG0), ((CY_GET_XTND_REG8((void CYFAR *)CYREG_PM_ACT_
 271:.\Generated_Source\PSoC5/cyfitter_cfg.c **** }
 272:.\Generated_Source\PSoC5/cyfitter_cfg.c **** 
 273:.\Generated_Source\PSoC5/cyfitter_cfg.c **** 
 274:.\Generated_Source\PSoC5/cyfitter_cfg.c **** /* Analog API Functions */
ARM GAS  C:\Users\lenovo\AppData\Local\Temp\cc9VWNw2.s 			page 8


 275:.\Generated_Source\PSoC5/cyfitter_cfg.c **** 
 276:.\Generated_Source\PSoC5/cyfitter_cfg.c **** 
 277:.\Generated_Source\PSoC5/cyfitter_cfg.c **** /*******************************************************************************
 278:.\Generated_Source\PSoC5/cyfitter_cfg.c **** * Function Name: AnalogSetDefault
 279:.\Generated_Source\PSoC5/cyfitter_cfg.c **** ********************************************************************************
 280:.\Generated_Source\PSoC5/cyfitter_cfg.c **** *
 281:.\Generated_Source\PSoC5/cyfitter_cfg.c **** * Summary:
 282:.\Generated_Source\PSoC5/cyfitter_cfg.c **** *  Sets up the analog portions of the chip to default values based on chip
 283:.\Generated_Source\PSoC5/cyfitter_cfg.c **** *  configuration options from the project.
 284:.\Generated_Source\PSoC5/cyfitter_cfg.c **** *
 285:.\Generated_Source\PSoC5/cyfitter_cfg.c **** * Parameters:
 286:.\Generated_Source\PSoC5/cyfitter_cfg.c **** *  void
 287:.\Generated_Source\PSoC5/cyfitter_cfg.c **** *
 288:.\Generated_Source\PSoC5/cyfitter_cfg.c **** * Return:
 289:.\Generated_Source\PSoC5/cyfitter_cfg.c **** *  void
 290:.\Generated_Source\PSoC5/cyfitter_cfg.c **** *
 291:.\Generated_Source\PSoC5/cyfitter_cfg.c **** *******************************************************************************/
 292:.\Generated_Source\PSoC5/cyfitter_cfg.c **** static void AnalogSetDefault(void);
 293:.\Generated_Source\PSoC5/cyfitter_cfg.c **** static void AnalogSetDefault(void)
 294:.\Generated_Source\PSoC5/cyfitter_cfg.c **** {
 123              		.loc 1 294 0
 124              		.cfi_startproc
 125              		@ args = 0, pretend = 0, frame = 0
 126              		@ frame_needed = 0, uses_anonymous_args = 0
 127              		@ link register save eliminated.
 295:.\Generated_Source\PSoC5/cyfitter_cfg.c **** 	uint8 bg_xover_inl_trim = CY_GET_XTND_REG8((void CYFAR *)(CYREG_FLSHID_MFG_CFG_BG_XOVER_INL_TRIM +
 128              		.loc 1 295 0
 129 0000 104B     		ldr	r3, .L10
 130 0002 1B78     		ldrb	r3, [r3]	@ zero_extendqisi2
 131 0004 DBB2     		uxtb	r3, r3
 132              	.LVL12:
 296:.\Generated_Source\PSoC5/cyfitter_cfg.c **** 	CY_SET_XTND_REG8((void CYFAR *)(CYREG_BG_DFT0), (bg_xover_inl_trim & 0x07u));
 133              		.loc 1 296 0
 134 0006 03F00701 		and	r1, r3, #7
 135 000a 0F4A     		ldr	r2, .L10+4
 136 000c 1170     		strb	r1, [r2]
 297:.\Generated_Source\PSoC5/cyfitter_cfg.c **** 	CY_SET_XTND_REG8((void CYFAR *)(CYREG_BG_DFT1), ((bg_xover_inl_trim >> 4) & 0x0Fu));
 137              		.loc 1 297 0
 138 000e 1B09     		lsrs	r3, r3, #4
 139              	.LVL13:
 140 0010 0132     		adds	r2, r2, #1
 141 0012 1370     		strb	r3, [r2]
 298:.\Generated_Source\PSoC5/cyfitter_cfg.c **** 	CY_SET_XTND_REG8((void CYFAR *)CYREG_PRT4_AG, 0x01u);
 142              		.loc 1 298 0
 143 0014 0123     		movs	r3, #1
 144 0016 A2F22272 		subw	r2, r2, #1826
 145 001a 1370     		strb	r3, [r2]
 299:.\Generated_Source\PSoC5/cyfitter_cfg.c **** 	CY_SET_XTND_REG8((void CYFAR *)CYREG_PRT6_AG, 0x10u);
 146              		.loc 1 299 0
 147 001c 1022     		movs	r2, #16
 148 001e 0B49     		ldr	r1, .L10+8
 149 0020 0A70     		strb	r2, [r1]
 300:.\Generated_Source\PSoC5/cyfitter_cfg.c **** 	CY_SET_XTND_REG8((void CYFAR *)CYREG_CAPSL_CFG0, 0x00u);
 150              		.loc 1 300 0
 151 0022 0020     		movs	r0, #0
 152 0024 01F20371 		addw	r1, r1, #1795
 153 0028 0870     		strb	r0, [r1]
ARM GAS  C:\Users\lenovo\AppData\Local\Temp\cc9VWNw2.s 			page 9


 301:.\Generated_Source\PSoC5/cyfitter_cfg.c **** 	CY_SET_XTND_REG8((void CYFAR *)CYREG_CMP3_SW3, 0x20u);
 154              		.loc 1 301 0
 155 002a 2020     		movs	r0, #32
 156 002c 01F26B21 		addw	r1, r1, #619
 157 0030 0870     		strb	r0, [r1]
 302:.\Generated_Source\PSoC5/cyfitter_cfg.c **** 	CY_SET_XTND_REG8((void CYFAR *)CYREG_DSM0_SW0, 0x10u);
 158              		.loc 1 302 0
 159 0032 2531     		adds	r1, r1, #37
 160 0034 0A70     		strb	r2, [r1]
 303:.\Generated_Source\PSoC5/cyfitter_cfg.c **** 	CY_SET_XTND_REG8((void CYFAR *)CYREG_BUS_SW3, 0x01u);
 161              		.loc 1 303 0
 162 0036 064A     		ldr	r2, .L10+12
 163 0038 1370     		strb	r3, [r2]
 304:.\Generated_Source\PSoC5/cyfitter_cfg.c **** 	CY_SET_XTND_REG8((void CYFAR *)CYREG_PUMP_CR0, 0x44u);
 164              		.loc 1 304 0
 165 003a 4422     		movs	r2, #68
 166 003c 054B     		ldr	r3, .L10+16
 167 003e 1A70     		strb	r2, [r3]
 168 0040 7047     		bx	lr
 169              	.L11:
 170 0042 00BF     		.align	2
 171              	.L10:
 172 0044 CF010049 		.word	1224737231
 173 0048 6E580040 		.word	1073764462
 174 004c 6D510040 		.word	1073762669
 175 0050 5B5B0040 		.word	1073765211
 176 0054 76580040 		.word	1073764470
 177              		.cfi_endproc
 178              	.LFE6:
 179              		.size	AnalogSetDefault, .-AnalogSetDefault
 180              		.section	.text.CYMEMZERO,"ax",%progbits
 181              		.align	2
 182              		.thumb
 183              		.thumb_func
 184              		.type	CYMEMZERO, %function
 185              	CYMEMZERO:
 186              	.LFB0:
  63:.\Generated_Source\PSoC5/cyfitter_cfg.c **** 	(void)memset(s, 0, n);
 187              		.loc 1 63 0
 188              		.cfi_startproc
 189              		@ args = 0, pretend = 0, frame = 0
 190              		@ frame_needed = 0, uses_anonymous_args = 0
 191              	.LVL14:
 192 0000 08B5     		push	{r3, lr}
 193              		.cfi_def_cfa_offset 8
 194              		.cfi_offset 3, -8
 195              		.cfi_offset 14, -4
 196 0002 0A46     		mov	r2, r1
  64:.\Generated_Source\PSoC5/cyfitter_cfg.c **** }
 197              		.loc 1 64 0
 198 0004 0021     		movs	r1, #0
 199              	.LVL15:
 200 0006 FFF7FEFF 		bl	memset
 201              	.LVL16:
 202 000a 08BD     		pop	{r3, pc}
 203              		.cfi_endproc
 204              	.LFE0:
ARM GAS  C:\Users\lenovo\AppData\Local\Temp\cc9VWNw2.s 			page 10


 205              		.size	CYMEMZERO, .-CYMEMZERO
 206              		.section	.text.CYCONFIGCPY,"ax",%progbits
 207              		.align	2
 208              		.thumb
 209              		.thumb_func
 210              		.type	CYCONFIGCPY, %function
 211              	CYCONFIGCPY:
 212              	.LFB1:
  70:.\Generated_Source\PSoC5/cyfitter_cfg.c **** 	(void)memcpy(dest, src, n);
 213              		.loc 1 70 0
 214              		.cfi_startproc
 215              		@ args = 0, pretend = 0, frame = 0
 216              		@ frame_needed = 0, uses_anonymous_args = 0
 217              	.LVL17:
 218 0000 08B5     		push	{r3, lr}
 219              		.cfi_def_cfa_offset 8
 220              		.cfi_offset 3, -8
 221              		.cfi_offset 14, -4
  71:.\Generated_Source\PSoC5/cyfitter_cfg.c **** }
 222              		.loc 1 71 0
 223 0002 FFF7FEFF 		bl	memcpy
 224              	.LVL18:
 225 0006 08BD     		pop	{r3, pc}
 226              		.cfi_endproc
 227              	.LFE1:
 228              		.size	CYCONFIGCPY, .-CYCONFIGCPY
 229              		.section	.text.ClockSetup,"ax",%progbits
 230              		.align	2
 231              		.thumb
 232              		.thumb_func
 233              		.type	ClockSetup, %function
 234              	ClockSetup:
 235              	.LFB5:
 213:.\Generated_Source\PSoC5/cyfitter_cfg.c **** 	uint32 timeout;
 236              		.loc 1 213 0
 237              		.cfi_startproc
 238              		@ args = 0, pretend = 0, frame = 0
 239              		@ frame_needed = 0, uses_anonymous_args = 0
 240 0000 38B5     		push	{r3, r4, r5, lr}
 241              		.cfi_def_cfa_offset 16
 242              		.cfi_offset 3, -16
 243              		.cfi_offset 4, -12
 244              		.cfi_offset 5, -8
 245              		.cfi_offset 14, -4
 219:.\Generated_Source\PSoC5/cyfitter_cfg.c **** 	CY_SET_XTND_REG8((void CYFAR *)(CYREG_CLKDIST_DCFG0_CFG0 + 0x2u), 0x50u);
 246              		.loc 1 219 0
 247 0002 0024     		movs	r4, #0
 248 0004 374B     		ldr	r3, .L22
 249 0006 1C80     		strh	r4, [r3]	@ movhi
 220:.\Generated_Source\PSoC5/cyfitter_cfg.c **** 	CY_SET_XTND_REG16((void CYFAR *)(CYREG_CLKDIST_DCFG1_CFG0), 0x0001u);
 250              		.loc 1 220 0
 251 0008 5022     		movs	r2, #80
 252 000a 0233     		adds	r3, r3, #2
 253 000c 1A70     		strb	r2, [r3]
 221:.\Generated_Source\PSoC5/cyfitter_cfg.c **** 	CY_SET_XTND_REG8((void CYFAR *)(CYREG_CLKDIST_DCFG1_CFG0 + 0x2u), 0x19u);
 254              		.loc 1 221 0
 255 000e 0122     		movs	r2, #1
ARM GAS  C:\Users\lenovo\AppData\Local\Temp\cc9VWNw2.s 			page 11


 256 0010 0233     		adds	r3, r3, #2
 257 0012 1A80     		strh	r2, [r3]	@ movhi
 222:.\Generated_Source\PSoC5/cyfitter_cfg.c **** 	CY_SET_XTND_REG16((void CYFAR *)(CYREG_CLKDIST_DCFG2_CFG0), 0x007Fu);
 258              		.loc 1 222 0
 259 0014 1925     		movs	r5, #25
 260 0016 0233     		adds	r3, r3, #2
 261 0018 1D70     		strb	r5, [r3]
 223:.\Generated_Source\PSoC5/cyfitter_cfg.c **** 	CY_SET_XTND_REG8((void CYFAR *)(CYREG_CLKDIST_DCFG2_CFG0 + 0x2u), 0x18u);
 262              		.loc 1 223 0
 263 001a 7F22     		movs	r2, #127
 264 001c 0233     		adds	r3, r3, #2
 265 001e 1A80     		strh	r2, [r3]	@ movhi
 224:.\Generated_Source\PSoC5/cyfitter_cfg.c **** 	CY_SET_XTND_REG16((void CYFAR *)(CYREG_CLKDIST_DCFG3_CFG0), 0x0340u);
 266              		.loc 1 224 0
 267 0020 1823     		movs	r3, #24
 268 0022 314A     		ldr	r2, .L22+4
 269 0024 1370     		strb	r3, [r2]
 225:.\Generated_Source\PSoC5/cyfitter_cfg.c **** 	CY_SET_XTND_REG8((void CYFAR *)(CYREG_CLKDIST_DCFG3_CFG0 + 0x2u), 0x18u);
 270              		.loc 1 225 0
 271 0026 4FF45071 		mov	r1, #832
 272 002a 0232     		adds	r2, r2, #2
 273 002c 1180     		strh	r1, [r2]	@ movhi
 226:.\Generated_Source\PSoC5/cyfitter_cfg.c **** 	CY_SET_XTND_REG16((void CYFAR *)(CYREG_CLKDIST_DCFG4_CFG0), 0x18FFu);
 274              		.loc 1 226 0
 275 002e 0232     		adds	r2, r2, #2
 276 0030 1370     		strb	r3, [r2]
 227:.\Generated_Source\PSoC5/cyfitter_cfg.c **** 	CY_SET_XTND_REG8((void CYFAR *)(CYREG_CLKDIST_DCFG4_CFG0 + 0x2u), 0x18u);
 277              		.loc 1 227 0
 278 0032 41F6FF01 		movw	r1, #6399
 279 0036 0232     		adds	r2, r2, #2
 280 0038 1180     		strh	r1, [r2]	@ movhi
 228:.\Generated_Source\PSoC5/cyfitter_cfg.c **** 
 281              		.loc 1 228 0
 282 003a 0232     		adds	r2, r2, #2
 283 003c 1370     		strb	r3, [r2]
 231:.\Generated_Source\PSoC5/cyfitter_cfg.c **** 
 284              		.loc 1 231 0
 285 003e 2B48     		ldr	r0, .L22+8
 286 0040 2B49     		ldr	r1, .L22+12
 287 0042 0422     		movs	r2, #4
 288 0044 FFF7FEFF 		bl	CYCONFIGCPY
 289              	.LVL19:
 234:.\Generated_Source\PSoC5/cyfitter_cfg.c **** 
 290              		.loc 1 234 0
 291 0048 0622     		movs	r2, #6
 292 004a 2A4B     		ldr	r3, .L22+16
 293 004c 1A70     		strb	r2, [r3]
 237:.\Generated_Source\PSoC5/cyfitter_cfg.c **** 	CY_SET_XTND_REG8((void CYFAR *)(CYREG_IMO_TR1), (CY_GET_XTND_REG8((void CYFAR *)CYREG_FLSHID_CUST_
 294              		.loc 1 237 0
 295 004e 5222     		movs	r2, #82
 296 0050 A3F58073 		sub	r3, r3, #256
 297 0054 1A70     		strb	r2, [r3]
 238:.\Generated_Source\PSoC5/cyfitter_cfg.c **** 
 298              		.loc 1 238 0
 299 0056 284B     		ldr	r3, .L22+20
 300 0058 1B78     		ldrb	r3, [r3]	@ zero_extendqisi2
 301 005a DBB2     		uxtb	r3, r3
ARM GAS  C:\Users\lenovo\AppData\Local\Temp\cc9VWNw2.s 			page 12


 302 005c 274A     		ldr	r2, .L22+24
 303 005e 1370     		strb	r3, [r2]
 241:.\Generated_Source\PSoC5/cyfitter_cfg.c **** 	CY_SET_XTND_REG16((void CYFAR *)(CYREG_FASTCLK_PLL_CFG0), 0x1251u);
 304              		.loc 1 241 0
 305 0060 40F61802 		movw	r2, #2072
 306 0064 264B     		ldr	r3, .L22+28
 307 0066 1A80     		strh	r2, [r3]	@ movhi
 242:.\Generated_Source\PSoC5/cyfitter_cfg.c **** 	/* Wait up to 250us for the PLL to lock */
 308              		.loc 1 242 0
 309 0068 41F25122 		movw	r2, #4689
 310 006c 023B     		subs	r3, r3, #2
 311 006e 1A80     		strh	r2, [r3]	@ movhi
 312              	.LVL20:
 245:.\Generated_Source\PSoC5/cyfitter_cfg.c **** 	{ 
 313              		.loc 1 245 0
 314 0070 0CE0     		b	.L17
 315              	.LVL21:
 316              	.L19:
 247:.\Generated_Source\PSoC5/cyfitter_cfg.c **** 		CyDelayCycles(10u * 48u); /* Delay 10us based on 48MHz clock */
 317              		.loc 1 247 0 discriminator 4
 318 0072 244B     		ldr	r3, .L22+32
 319 0074 1B78     		ldrb	r3, [r3]	@ zero_extendqisi2
 320 0076 03F00103 		and	r3, r3, #1
 321 007a 43EA4404 		orr	r4, r3, r4, lsl #1
 322              	.LVL22:
 323 007e 04F00304 		and	r4, r4, #3
 324              	.LVL23:
 248:.\Generated_Source\PSoC5/cyfitter_cfg.c **** 	}
 325              		.loc 1 248 0 discriminator 4
 326 0082 4FF4F070 		mov	r0, #480
 327 0086 FFF7FEFF 		bl	CyDelayCycles
 328              	.LVL24:
 245:.\Generated_Source\PSoC5/cyfitter_cfg.c **** 	{ 
 329              		.loc 1 245 0 discriminator 4
 330 008a 013D     		subs	r5, r5, #1
 331              	.LVL25:
 332              	.L17:
 245:.\Generated_Source\PSoC5/cyfitter_cfg.c **** 	{ 
 333              		.loc 1 245 0 is_stmt 0 discriminator 1
 334 008c 0DB1     		cbz	r5, .L18
 245:.\Generated_Source\PSoC5/cyfitter_cfg.c **** 	{ 
 335              		.loc 1 245 0 discriminator 3
 336 008e 032C     		cmp	r4, #3
 337 0090 EFD1     		bne	.L19
 338              	.L18:
 251:.\Generated_Source\PSoC5/cyfitter_cfg.c **** 	{
 339              		.loc 1 251 0 is_stmt 1
 340 0092 15B9     		cbnz	r5, .L20
 253:.\Generated_Source\PSoC5/cyfitter_cfg.c **** 	}
 341              		.loc 1 253 0
 342 0094 0320     		movs	r0, #3
 343 0096 FFF7FEFF 		bl	CyClockStartupError
 344              	.LVL26:
 345              	.L20:
 257:.\Generated_Source\PSoC5/cyfitter_cfg.c **** 	CY_SET_XTND_REG8((void CYFAR *)(CYREG_CLKDIST_MSTR0), 0x07u);
 346              		.loc 1 257 0
 347 009a 1B4A     		ldr	r2, .L22+36
ARM GAS  C:\Users\lenovo\AppData\Local\Temp\cc9VWNw2.s 			page 13


 348 009c 4FF48073 		mov	r3, #256
 349 00a0 1380     		strh	r3, [r2]	@ movhi
 258:.\Generated_Source\PSoC5/cyfitter_cfg.c **** 	CY_SET_XTND_REG8((void CYFAR *)(CYREG_CLKDIST_BCFG0), 0x00u);
 350              		.loc 1 258 0
 351 00a2 0723     		movs	r3, #7
 352 00a4 1370     		strb	r3, [r2]
 259:.\Generated_Source\PSoC5/cyfitter_cfg.c **** 	CY_SET_XTND_REG8((void CYFAR *)(CYREG_CLKDIST_BCFG2), 0x48u);
 353              		.loc 1 259 0
 354 00a6 0023     		movs	r3, #0
 355 00a8 1849     		ldr	r1, .L22+40
 356 00aa 0B70     		strb	r3, [r1]
 260:.\Generated_Source\PSoC5/cyfitter_cfg.c **** 	CY_SET_XTND_REG8((void CYFAR *)(CYREG_CLKDIST_MSTR0), 0x00u);
 357              		.loc 1 260 0
 358 00ac 4820     		movs	r0, #72
 359 00ae 0231     		adds	r1, r1, #2
 360 00b0 0870     		strb	r0, [r1]
 261:.\Generated_Source\PSoC5/cyfitter_cfg.c **** 
 361              		.loc 1 261 0
 362 00b2 1370     		strb	r3, [r2]
 264:.\Generated_Source\PSoC5/cyfitter_cfg.c **** 	CY_SET_XTND_REG8((void CYFAR *)(CYREG_CLKDIST_LD), 0x02u);
 363              		.loc 1 264 0
 364 00b4 0532     		adds	r2, r2, #5
 365 00b6 1370     		strb	r3, [r2]
 265:.\Generated_Source\PSoC5/cyfitter_cfg.c **** 	CY_SET_XTND_REG8((void CYFAR *)(CYREG_CLKDIST_DLY1), 0x04u);
 366              		.loc 1 265 0
 367 00b8 0222     		movs	r2, #2
 368 00ba 154B     		ldr	r3, .L22+44
 369 00bc 1A70     		strb	r2, [r3]
 266:.\Generated_Source\PSoC5/cyfitter_cfg.c **** 
 370              		.loc 1 266 0
 371 00be 0422     		movs	r2, #4
 372 00c0 0A33     		adds	r3, r3, #10
 373 00c2 1A70     		strb	r2, [r3]
 268:.\Generated_Source\PSoC5/cyfitter_cfg.c **** 	CY_SET_XTND_REG8((void CYFAR *)(CYREG_PM_ACT_CFG1), ((CY_GET_XTND_REG8((void CYFAR *)CYREG_PM_ACT_
 374              		.loc 1 268 0
 375 00c4 134A     		ldr	r2, .L22+48
 376 00c6 1378     		ldrb	r3, [r2]	@ zero_extendqisi2
 377 00c8 43F01F03 		orr	r3, r3, #31
 378 00cc 1370     		strb	r3, [r2]
 269:.\Generated_Source\PSoC5/cyfitter_cfg.c **** 	CY_SET_XTND_REG8((void CYFAR *)(CYREG_PM_ACT_CFG0), ((CY_GET_XTND_REG8((void CYFAR *)CYREG_PM_ACT_
 379              		.loc 1 269 0
 380 00ce 013A     		subs	r2, r2, #1
 381 00d0 1378     		ldrb	r3, [r2]	@ zero_extendqisi2
 382 00d2 43F00103 		orr	r3, r3, #1
 383 00d6 1370     		strb	r3, [r2]
 270:.\Generated_Source\PSoC5/cyfitter_cfg.c **** }
 384              		.loc 1 270 0
 385 00d8 013A     		subs	r2, r2, #1
 386 00da 1378     		ldrb	r3, [r2]	@ zero_extendqisi2
 387 00dc 43F08003 		orr	r3, r3, #128
 388 00e0 1370     		strb	r3, [r2]
 389 00e2 38BD     		pop	{r3, r4, r5, pc}
 390              	.LVL27:
 391              	.L23:
 392              		.align	2
 393              	.L22:
 394 00e4 80400040 		.word	1073758336
ARM GAS  C:\Users\lenovo\AppData\Local\Temp\cc9VWNw2.s 			page 14


 395 00e8 8A400040 		.word	1073758346
 396 00ec 00410040 		.word	1073758464
 397 00f0 700B0048 		.word	1207962480
 398 00f4 00430040 		.word	1073758976
 399 00f8 0F010049 		.word	1224737039
 400 00fc A1460040 		.word	1073759905
 401 0100 22420040 		.word	1073758754
 402 0104 25420040 		.word	1073758757
 403 0108 04400040 		.word	1073758212
 404 010c 06400040 		.word	1073758214
 405 0110 01400040 		.word	1073758209
 406 0114 A2430040 		.word	1073759138
 407              		.cfi_endproc
 408              	.LFE5:
 409              		.size	ClockSetup, .-ClockSetup
 410              		.section	.text.SetAnalogRoutingPumps,"ax",%progbits
 411              		.align	2
 412              		.global	SetAnalogRoutingPumps
 413              		.thumb
 414              		.thumb_func
 415              		.type	SetAnalogRoutingPumps, %function
 416              	SetAnalogRoutingPumps:
 417              	.LFB7:
 305:.\Generated_Source\PSoC5/cyfitter_cfg.c **** }
 306:.\Generated_Source\PSoC5/cyfitter_cfg.c **** 
 307:.\Generated_Source\PSoC5/cyfitter_cfg.c **** 
 308:.\Generated_Source\PSoC5/cyfitter_cfg.c **** /*******************************************************************************
 309:.\Generated_Source\PSoC5/cyfitter_cfg.c **** * Function Name: SetAnalogRoutingPumps
 310:.\Generated_Source\PSoC5/cyfitter_cfg.c **** ********************************************************************************
 311:.\Generated_Source\PSoC5/cyfitter_cfg.c **** *
 312:.\Generated_Source\PSoC5/cyfitter_cfg.c **** * Summary:
 313:.\Generated_Source\PSoC5/cyfitter_cfg.c **** * Enables or disables the analog pumps feeding analog routing switches.
 314:.\Generated_Source\PSoC5/cyfitter_cfg.c **** * Intended to be called at startup, based on the Vdda system configuration;
 315:.\Generated_Source\PSoC5/cyfitter_cfg.c **** * may be called during operation when the user informs us that the Vdda voltage
 316:.\Generated_Source\PSoC5/cyfitter_cfg.c **** * crossed the pump threshold.
 317:.\Generated_Source\PSoC5/cyfitter_cfg.c **** *
 318:.\Generated_Source\PSoC5/cyfitter_cfg.c **** * Parameters:
 319:.\Generated_Source\PSoC5/cyfitter_cfg.c **** *  enabled - 1 to enable the pumps, 0 to disable the pumps
 320:.\Generated_Source\PSoC5/cyfitter_cfg.c **** *
 321:.\Generated_Source\PSoC5/cyfitter_cfg.c **** * Return:
 322:.\Generated_Source\PSoC5/cyfitter_cfg.c **** *  void
 323:.\Generated_Source\PSoC5/cyfitter_cfg.c **** *
 324:.\Generated_Source\PSoC5/cyfitter_cfg.c **** *******************************************************************************/
 325:.\Generated_Source\PSoC5/cyfitter_cfg.c **** void SetAnalogRoutingPumps(uint8 enabled)
 326:.\Generated_Source\PSoC5/cyfitter_cfg.c **** {
 418              		.loc 1 326 0
 419              		.cfi_startproc
 420              		@ args = 0, pretend = 0, frame = 0
 421              		@ frame_needed = 0, uses_anonymous_args = 0
 422              		@ link register save eliminated.
 423              	.LVL28:
 327:.\Generated_Source\PSoC5/cyfitter_cfg.c **** 	uint8 regValue = CY_GET_XTND_REG8((void CYFAR *)CYREG_PUMP_CR0);
 424              		.loc 1 327 0
 425 0000 054B     		ldr	r3, .L27
 426 0002 1B78     		ldrb	r3, [r3]	@ zero_extendqisi2
 427 0004 DBB2     		uxtb	r3, r3
 428              	.LVL29:
ARM GAS  C:\Users\lenovo\AppData\Local\Temp\cc9VWNw2.s 			page 15


 328:.\Generated_Source\PSoC5/cyfitter_cfg.c **** 	if (enabled != 0u)
 429              		.loc 1 328 0
 430 0006 10B1     		cbz	r0, .L25
 329:.\Generated_Source\PSoC5/cyfitter_cfg.c **** 	{
 330:.\Generated_Source\PSoC5/cyfitter_cfg.c **** 		regValue |= 0x22u;
 431              		.loc 1 330 0
 432 0008 43F02203 		orr	r3, r3, #34
 433              	.LVL30:
 434 000c 01E0     		b	.L26
 435              	.L25:
 331:.\Generated_Source\PSoC5/cyfitter_cfg.c **** 	}
 332:.\Generated_Source\PSoC5/cyfitter_cfg.c **** 	else
 333:.\Generated_Source\PSoC5/cyfitter_cfg.c **** 	{
 334:.\Generated_Source\PSoC5/cyfitter_cfg.c **** 		regValue &= (uint8)~0x22u;
 436              		.loc 1 334 0
 437 000e 03F0DD03 		and	r3, r3, #221
 438              	.LVL31:
 439              	.L26:
 335:.\Generated_Source\PSoC5/cyfitter_cfg.c **** 	}
 336:.\Generated_Source\PSoC5/cyfitter_cfg.c **** 	CY_SET_XTND_REG8((void CYFAR *)CYREG_PUMP_CR0, regValue);
 440              		.loc 1 336 0
 441 0012 014A     		ldr	r2, .L27
 442 0014 1370     		strb	r3, [r2]
 443 0016 7047     		bx	lr
 444              	.L28:
 445              		.align	2
 446              	.L27:
 447 0018 76580040 		.word	1073764470
 448              		.cfi_endproc
 449              	.LFE7:
 450              		.size	SetAnalogRoutingPumps, .-SetAnalogRoutingPumps
 451              		.section	.text.ADC_AMux_Set,"ax",%progbits
 452              		.align	2
 453              		.global	ADC_AMux_Set
 454              		.thumb
 455              		.thumb_func
 456              		.type	ADC_AMux_Set, %function
 457              	ADC_AMux_Set:
 458              	.LFB8:
 337:.\Generated_Source\PSoC5/cyfitter_cfg.c **** }
 338:.\Generated_Source\PSoC5/cyfitter_cfg.c **** 
 339:.\Generated_Source\PSoC5/cyfitter_cfg.c **** #define CY_AMUX_UNUSED CYREG_BOOST_SR
 340:.\Generated_Source\PSoC5/cyfitter_cfg.c **** /* This is an implementation detail of the AMux. Code that depends on it may be
 341:.\Generated_Source\PSoC5/cyfitter_cfg.c ****    incompatible with other versions of PSoC Creator. */
 342:.\Generated_Source\PSoC5/cyfitter_cfg.c **** uint8 CYXDATA * const CYCODE ADC_AMux__addrTable[2] = {
 343:.\Generated_Source\PSoC5/cyfitter_cfg.c **** 	(uint8 CYXDATA *)CYREG_DSM0_SW3, 
 344:.\Generated_Source\PSoC5/cyfitter_cfg.c **** 	(uint8 CYXDATA *)CY_AMUX_UNUSED, 
 345:.\Generated_Source\PSoC5/cyfitter_cfg.c **** };
 346:.\Generated_Source\PSoC5/cyfitter_cfg.c **** 
 347:.\Generated_Source\PSoC5/cyfitter_cfg.c **** /* This is an implementation detail of the AMux. Code that depends on it may be
 348:.\Generated_Source\PSoC5/cyfitter_cfg.c ****    incompatible with other versions of PSoC Creator. */
 349:.\Generated_Source\PSoC5/cyfitter_cfg.c **** const uint8 CYCODE ADC_AMux__maskTable[2] = {
 350:.\Generated_Source\PSoC5/cyfitter_cfg.c **** 	0x40u, 
 351:.\Generated_Source\PSoC5/cyfitter_cfg.c **** 	0x00u, 
 352:.\Generated_Source\PSoC5/cyfitter_cfg.c **** };
 353:.\Generated_Source\PSoC5/cyfitter_cfg.c **** 
 354:.\Generated_Source\PSoC5/cyfitter_cfg.c **** /*******************************************************************************
ARM GAS  C:\Users\lenovo\AppData\Local\Temp\cc9VWNw2.s 			page 16


 355:.\Generated_Source\PSoC5/cyfitter_cfg.c **** * Function Name: ADC_AMux_Set
 356:.\Generated_Source\PSoC5/cyfitter_cfg.c **** ********************************************************************************
 357:.\Generated_Source\PSoC5/cyfitter_cfg.c **** * Summary:
 358:.\Generated_Source\PSoC5/cyfitter_cfg.c **** *  This function is used to set a particular channel as active on the AMux.
 359:.\Generated_Source\PSoC5/cyfitter_cfg.c **** *
 360:.\Generated_Source\PSoC5/cyfitter_cfg.c **** * Parameters:  
 361:.\Generated_Source\PSoC5/cyfitter_cfg.c **** *   channel - The mux channel input to set as active
 362:.\Generated_Source\PSoC5/cyfitter_cfg.c **** *
 363:.\Generated_Source\PSoC5/cyfitter_cfg.c **** * Return:
 364:.\Generated_Source\PSoC5/cyfitter_cfg.c **** *   void
 365:.\Generated_Source\PSoC5/cyfitter_cfg.c **** *
 366:.\Generated_Source\PSoC5/cyfitter_cfg.c **** *******************************************************************************/
 367:.\Generated_Source\PSoC5/cyfitter_cfg.c **** void ADC_AMux_Set(uint8 channel)
 368:.\Generated_Source\PSoC5/cyfitter_cfg.c **** {
 459              		.loc 1 368 0
 460              		.cfi_startproc
 461              		@ args = 0, pretend = 0, frame = 0
 462              		@ frame_needed = 0, uses_anonymous_args = 0
 463              		@ link register save eliminated.
 464              	.LVL32:
 369:.\Generated_Source\PSoC5/cyfitter_cfg.c **** 	if (channel < 2)
 465              		.loc 1 369 0
 466 0000 0128     		cmp	r0, #1
 467 0002 07D8     		bhi	.L29
 370:.\Generated_Source\PSoC5/cyfitter_cfg.c **** 	{
 371:.\Generated_Source\PSoC5/cyfitter_cfg.c **** 		*ADC_AMux__addrTable[channel] |= ADC_AMux__maskTable[channel];
 468              		.loc 1 371 0
 469 0004 044B     		ldr	r3, .L31
 470 0006 53F82020 		ldr	r2, [r3, r0, lsl #2]
 471 000a 1844     		add	r0, r0, r3
 472              	.LVL33:
 473 000c 017A     		ldrb	r1, [r0, #8]	@ zero_extendqisi2
 474 000e 1378     		ldrb	r3, [r2]	@ zero_extendqisi2
 475 0010 0B43     		orrs	r3, r3, r1
 476 0012 1370     		strb	r3, [r2]
 477              	.L29:
 478 0014 7047     		bx	lr
 479              	.L32:
 480 0016 00BF     		.align	2
 481              	.L31:
 482 0018 00000000 		.word	.LANCHOR0
 483              		.cfi_endproc
 484              	.LFE8:
 485              		.size	ADC_AMux_Set, .-ADC_AMux_Set
 486              		.section	.text.ADC_AMux_Unset,"ax",%progbits
 487              		.align	2
 488              		.global	ADC_AMux_Unset
 489              		.thumb
 490              		.thumb_func
 491              		.type	ADC_AMux_Unset, %function
 492              	ADC_AMux_Unset:
 493              	.LFB9:
 372:.\Generated_Source\PSoC5/cyfitter_cfg.c **** 	}
 373:.\Generated_Source\PSoC5/cyfitter_cfg.c **** }
 374:.\Generated_Source\PSoC5/cyfitter_cfg.c **** 
 375:.\Generated_Source\PSoC5/cyfitter_cfg.c **** /*******************************************************************************
 376:.\Generated_Source\PSoC5/cyfitter_cfg.c **** * Function Name: ADC_AMux_Unset
ARM GAS  C:\Users\lenovo\AppData\Local\Temp\cc9VWNw2.s 			page 17


 377:.\Generated_Source\PSoC5/cyfitter_cfg.c **** ********************************************************************************
 378:.\Generated_Source\PSoC5/cyfitter_cfg.c **** * Summary:
 379:.\Generated_Source\PSoC5/cyfitter_cfg.c **** *  This function is used to clear a particular channel from being active on the
 380:.\Generated_Source\PSoC5/cyfitter_cfg.c **** *  AMux.
 381:.\Generated_Source\PSoC5/cyfitter_cfg.c **** *
 382:.\Generated_Source\PSoC5/cyfitter_cfg.c **** * Parameters:  
 383:.\Generated_Source\PSoC5/cyfitter_cfg.c **** *   channel - The mux channel input to mark inactive
 384:.\Generated_Source\PSoC5/cyfitter_cfg.c **** *
 385:.\Generated_Source\PSoC5/cyfitter_cfg.c **** * Return:
 386:.\Generated_Source\PSoC5/cyfitter_cfg.c **** *   void
 387:.\Generated_Source\PSoC5/cyfitter_cfg.c **** *
 388:.\Generated_Source\PSoC5/cyfitter_cfg.c **** *******************************************************************************/
 389:.\Generated_Source\PSoC5/cyfitter_cfg.c **** void ADC_AMux_Unset(uint8 channel)
 390:.\Generated_Source\PSoC5/cyfitter_cfg.c **** {
 494              		.loc 1 390 0
 495              		.cfi_startproc
 496              		@ args = 0, pretend = 0, frame = 0
 497              		@ frame_needed = 0, uses_anonymous_args = 0
 498              		@ link register save eliminated.
 499              	.LVL34:
 391:.\Generated_Source\PSoC5/cyfitter_cfg.c **** 	if (channel < 2)
 500              		.loc 1 391 0
 501 0000 0128     		cmp	r0, #1
 502 0002 08D8     		bhi	.L33
 392:.\Generated_Source\PSoC5/cyfitter_cfg.c **** 	{
 393:.\Generated_Source\PSoC5/cyfitter_cfg.c **** 		*ADC_AMux__addrTable[channel] &= (uint8)~ADC_AMux__maskTable[channel];
 503              		.loc 1 393 0
 504 0004 044B     		ldr	r3, .L35
 505 0006 53F82020 		ldr	r2, [r3, r0, lsl #2]
 506 000a 1844     		add	r0, r0, r3
 507              	.LVL35:
 508 000c 017A     		ldrb	r1, [r0, #8]	@ zero_extendqisi2
 509 000e 1378     		ldrb	r3, [r2]	@ zero_extendqisi2
 510 0010 23EA0103 		bic	r3, r3, r1
 511 0014 1370     		strb	r3, [r2]
 512              	.L33:
 513 0016 7047     		bx	lr
 514              	.L36:
 515              		.align	2
 516              	.L35:
 517 0018 00000000 		.word	.LANCHOR0
 518              		.cfi_endproc
 519              	.LFE9:
 520              		.size	ADC_AMux_Unset, .-ADC_AMux_Unset
 521              		.section	.text.CapSense_AMuxCH0_Set,"ax",%progbits
 522              		.align	2
 523              		.global	CapSense_AMuxCH0_Set
 524              		.thumb
 525              		.thumb_func
 526              		.type	CapSense_AMuxCH0_Set, %function
 527              	CapSense_AMuxCH0_Set:
 528              	.LFB10:
 394:.\Generated_Source\PSoC5/cyfitter_cfg.c **** 	}
 395:.\Generated_Source\PSoC5/cyfitter_cfg.c **** }
 396:.\Generated_Source\PSoC5/cyfitter_cfg.c **** 
 397:.\Generated_Source\PSoC5/cyfitter_cfg.c **** /* This is an implementation detail of the AMux. Code that depends on it may be
 398:.\Generated_Source\PSoC5/cyfitter_cfg.c ****    incompatible with other versions of PSoC Creator. */
ARM GAS  C:\Users\lenovo\AppData\Local\Temp\cc9VWNw2.s 			page 18


 399:.\Generated_Source\PSoC5/cyfitter_cfg.c **** uint8 CYXDATA * const CYCODE CapSense_AMuxCH0__addrTable[10] = {
 400:.\Generated_Source\PSoC5/cyfitter_cfg.c **** 	(uint8 CYXDATA *)CYREG_PRT5_AMUX, 
 401:.\Generated_Source\PSoC5/cyfitter_cfg.c **** 	(uint8 CYXDATA *)CYREG_PRT5_AMUX, 
 402:.\Generated_Source\PSoC5/cyfitter_cfg.c **** 	(uint8 CYXDATA *)CYREG_PRT5_AMUX, 
 403:.\Generated_Source\PSoC5/cyfitter_cfg.c **** 	(uint8 CYXDATA *)CYREG_PRT5_AMUX, 
 404:.\Generated_Source\PSoC5/cyfitter_cfg.c **** 	(uint8 CYXDATA *)CYREG_PRT5_AMUX, 
 405:.\Generated_Source\PSoC5/cyfitter_cfg.c **** 	(uint8 CYXDATA *)CYREG_PRT5_AMUX, 
 406:.\Generated_Source\PSoC5/cyfitter_cfg.c **** 	(uint8 CYXDATA *)CYREG_PRT5_AMUX, 
 407:.\Generated_Source\PSoC5/cyfitter_cfg.c **** 	(uint8 CYXDATA *)CYREG_PRT6_AMUX, 
 408:.\Generated_Source\PSoC5/cyfitter_cfg.c **** 	(uint8 CYXDATA *)CYREG_CMP3_SW3, 
 409:.\Generated_Source\PSoC5/cyfitter_cfg.c **** 	(uint8 CYXDATA *)CYREG_DAC1_SW3, 
 410:.\Generated_Source\PSoC5/cyfitter_cfg.c **** };
 411:.\Generated_Source\PSoC5/cyfitter_cfg.c **** 
 412:.\Generated_Source\PSoC5/cyfitter_cfg.c **** /* This is an implementation detail of the AMux. Code that depends on it may be
 413:.\Generated_Source\PSoC5/cyfitter_cfg.c ****    incompatible with other versions of PSoC Creator. */
 414:.\Generated_Source\PSoC5/cyfitter_cfg.c **** const uint8 CYCODE CapSense_AMuxCH0__maskTable[10] = {
 415:.\Generated_Source\PSoC5/cyfitter_cfg.c **** 	0x40u, 
 416:.\Generated_Source\PSoC5/cyfitter_cfg.c **** 	0x20u, 
 417:.\Generated_Source\PSoC5/cyfitter_cfg.c **** 	0x01u, 
 418:.\Generated_Source\PSoC5/cyfitter_cfg.c **** 	0x02u, 
 419:.\Generated_Source\PSoC5/cyfitter_cfg.c **** 	0x04u, 
 420:.\Generated_Source\PSoC5/cyfitter_cfg.c **** 	0x08u, 
 421:.\Generated_Source\PSoC5/cyfitter_cfg.c **** 	0x10u, 
 422:.\Generated_Source\PSoC5/cyfitter_cfg.c **** 	0x10u, 
 423:.\Generated_Source\PSoC5/cyfitter_cfg.c **** 	0x01u, 
 424:.\Generated_Source\PSoC5/cyfitter_cfg.c **** 	0x10u, 
 425:.\Generated_Source\PSoC5/cyfitter_cfg.c **** };
 426:.\Generated_Source\PSoC5/cyfitter_cfg.c **** 
 427:.\Generated_Source\PSoC5/cyfitter_cfg.c **** /*******************************************************************************
 428:.\Generated_Source\PSoC5/cyfitter_cfg.c **** * Function Name: CapSense_AMuxCH0_Set
 429:.\Generated_Source\PSoC5/cyfitter_cfg.c **** ********************************************************************************
 430:.\Generated_Source\PSoC5/cyfitter_cfg.c **** * Summary:
 431:.\Generated_Source\PSoC5/cyfitter_cfg.c **** *  This function is used to set a particular channel as active on the AMux.
 432:.\Generated_Source\PSoC5/cyfitter_cfg.c **** *
 433:.\Generated_Source\PSoC5/cyfitter_cfg.c **** * Parameters:  
 434:.\Generated_Source\PSoC5/cyfitter_cfg.c **** *   channel - The mux channel input to set as active
 435:.\Generated_Source\PSoC5/cyfitter_cfg.c **** *
 436:.\Generated_Source\PSoC5/cyfitter_cfg.c **** * Return:
 437:.\Generated_Source\PSoC5/cyfitter_cfg.c **** *   void
 438:.\Generated_Source\PSoC5/cyfitter_cfg.c **** *
 439:.\Generated_Source\PSoC5/cyfitter_cfg.c **** *******************************************************************************/
 440:.\Generated_Source\PSoC5/cyfitter_cfg.c **** void CapSense_AMuxCH0_Set(uint8 channel)
 441:.\Generated_Source\PSoC5/cyfitter_cfg.c **** {
 529              		.loc 1 441 0
 530              		.cfi_startproc
 531              		@ args = 0, pretend = 0, frame = 0
 532              		@ frame_needed = 0, uses_anonymous_args = 0
 533              		@ link register save eliminated.
 534              	.LVL36:
 442:.\Generated_Source\PSoC5/cyfitter_cfg.c **** 	if (channel < 10)
 535              		.loc 1 442 0
 536 0000 0928     		cmp	r0, #9
 537 0002 09D8     		bhi	.L37
 443:.\Generated_Source\PSoC5/cyfitter_cfg.c **** 	{
 444:.\Generated_Source\PSoC5/cyfitter_cfg.c **** 		*CapSense_AMuxCH0__addrTable[channel] |= CapSense_AMuxCH0__maskTable[channel];
 538              		.loc 1 444 0
 539 0004 054B     		ldr	r3, .L39
ARM GAS  C:\Users\lenovo\AppData\Local\Temp\cc9VWNw2.s 			page 19


 540 0006 03EB8002 		add	r2, r3, r0, lsl #2
 541 000a D268     		ldr	r2, [r2, #12]
 542 000c 1844     		add	r0, r0, r3
 543              	.LVL37:
 544 000e 90F83410 		ldrb	r1, [r0, #52]	@ zero_extendqisi2
 545 0012 1378     		ldrb	r3, [r2]	@ zero_extendqisi2
 546 0014 0B43     		orrs	r3, r3, r1
 547 0016 1370     		strb	r3, [r2]
 548              	.L37:
 549 0018 7047     		bx	lr
 550              	.L40:
 551 001a 00BF     		.align	2
 552              	.L39:
 553 001c 00000000 		.word	.LANCHOR0
 554              		.cfi_endproc
 555              	.LFE10:
 556              		.size	CapSense_AMuxCH0_Set, .-CapSense_AMuxCH0_Set
 557              		.section	.text.CapSense_AMuxCH0_Unset,"ax",%progbits
 558              		.align	2
 559              		.global	CapSense_AMuxCH0_Unset
 560              		.thumb
 561              		.thumb_func
 562              		.type	CapSense_AMuxCH0_Unset, %function
 563              	CapSense_AMuxCH0_Unset:
 564              	.LFB11:
 445:.\Generated_Source\PSoC5/cyfitter_cfg.c **** 	}
 446:.\Generated_Source\PSoC5/cyfitter_cfg.c **** }
 447:.\Generated_Source\PSoC5/cyfitter_cfg.c **** 
 448:.\Generated_Source\PSoC5/cyfitter_cfg.c **** /*******************************************************************************
 449:.\Generated_Source\PSoC5/cyfitter_cfg.c **** * Function Name: CapSense_AMuxCH0_Unset
 450:.\Generated_Source\PSoC5/cyfitter_cfg.c **** ********************************************************************************
 451:.\Generated_Source\PSoC5/cyfitter_cfg.c **** * Summary:
 452:.\Generated_Source\PSoC5/cyfitter_cfg.c **** *  This function is used to clear a particular channel from being active on the
 453:.\Generated_Source\PSoC5/cyfitter_cfg.c **** *  AMux.
 454:.\Generated_Source\PSoC5/cyfitter_cfg.c **** *
 455:.\Generated_Source\PSoC5/cyfitter_cfg.c **** * Parameters:  
 456:.\Generated_Source\PSoC5/cyfitter_cfg.c **** *   channel - The mux channel input to mark inactive
 457:.\Generated_Source\PSoC5/cyfitter_cfg.c **** *
 458:.\Generated_Source\PSoC5/cyfitter_cfg.c **** * Return:
 459:.\Generated_Source\PSoC5/cyfitter_cfg.c **** *   void
 460:.\Generated_Source\PSoC5/cyfitter_cfg.c **** *
 461:.\Generated_Source\PSoC5/cyfitter_cfg.c **** *******************************************************************************/
 462:.\Generated_Source\PSoC5/cyfitter_cfg.c **** void CapSense_AMuxCH0_Unset(uint8 channel)
 463:.\Generated_Source\PSoC5/cyfitter_cfg.c **** {
 565              		.loc 1 463 0
 566              		.cfi_startproc
 567              		@ args = 0, pretend = 0, frame = 0
 568              		@ frame_needed = 0, uses_anonymous_args = 0
 569              		@ link register save eliminated.
 570              	.LVL38:
 464:.\Generated_Source\PSoC5/cyfitter_cfg.c **** 	if (channel < 10)
 571              		.loc 1 464 0
 572 0000 0928     		cmp	r0, #9
 573 0002 0AD8     		bhi	.L41
 465:.\Generated_Source\PSoC5/cyfitter_cfg.c **** 	{
 466:.\Generated_Source\PSoC5/cyfitter_cfg.c **** 		*CapSense_AMuxCH0__addrTable[channel] &= (uint8)~CapSense_AMuxCH0__maskTable[channel];
 574              		.loc 1 466 0
ARM GAS  C:\Users\lenovo\AppData\Local\Temp\cc9VWNw2.s 			page 20


 575 0004 054B     		ldr	r3, .L43
 576 0006 03EB8002 		add	r2, r3, r0, lsl #2
 577 000a D268     		ldr	r2, [r2, #12]
 578 000c 1844     		add	r0, r0, r3
 579              	.LVL39:
 580 000e 90F83410 		ldrb	r1, [r0, #52]	@ zero_extendqisi2
 581 0012 1378     		ldrb	r3, [r2]	@ zero_extendqisi2
 582 0014 23EA0103 		bic	r3, r3, r1
 583 0018 1370     		strb	r3, [r2]
 584              	.L41:
 585 001a 7047     		bx	lr
 586              	.L44:
 587              		.align	2
 588              	.L43:
 589 001c 00000000 		.word	.LANCHOR0
 590              		.cfi_endproc
 591              	.LFE11:
 592              		.size	CapSense_AMuxCH0_Unset, .-CapSense_AMuxCH0_Unset
 593              		.section	.text.cyfitter_cfg,"ax",%progbits
 594              		.align	2
 595              		.global	cyfitter_cfg
 596              		.thumb
 597              		.thumb_func
 598              		.type	cyfitter_cfg, %function
 599              	cyfitter_cfg:
 600              	.LFB12:
 467:.\Generated_Source\PSoC5/cyfitter_cfg.c **** 	}
 468:.\Generated_Source\PSoC5/cyfitter_cfg.c **** }
 469:.\Generated_Source\PSoC5/cyfitter_cfg.c **** 
 470:.\Generated_Source\PSoC5/cyfitter_cfg.c **** 
 471:.\Generated_Source\PSoC5/cyfitter_cfg.c **** 
 472:.\Generated_Source\PSoC5/cyfitter_cfg.c **** /*******************************************************************************
 473:.\Generated_Source\PSoC5/cyfitter_cfg.c **** * Function Name: cyfitter_cfg
 474:.\Generated_Source\PSoC5/cyfitter_cfg.c **** ********************************************************************************
 475:.\Generated_Source\PSoC5/cyfitter_cfg.c **** * Summary:
 476:.\Generated_Source\PSoC5/cyfitter_cfg.c **** *  This function is called by the start-up code for the selected device. It
 477:.\Generated_Source\PSoC5/cyfitter_cfg.c **** *  performs all of the necessary device configuration based on the design
 478:.\Generated_Source\PSoC5/cyfitter_cfg.c **** *  settings.  This includes settings from the Design Wide Resources (DWR) such
 479:.\Generated_Source\PSoC5/cyfitter_cfg.c **** *  as Clocks and Pins as well as any component configuration that is necessary.
 480:.\Generated_Source\PSoC5/cyfitter_cfg.c **** *
 481:.\Generated_Source\PSoC5/cyfitter_cfg.c **** * Parameters:  
 482:.\Generated_Source\PSoC5/cyfitter_cfg.c **** *   void
 483:.\Generated_Source\PSoC5/cyfitter_cfg.c **** *
 484:.\Generated_Source\PSoC5/cyfitter_cfg.c **** * Return:
 485:.\Generated_Source\PSoC5/cyfitter_cfg.c **** *   void
 486:.\Generated_Source\PSoC5/cyfitter_cfg.c **** *
 487:.\Generated_Source\PSoC5/cyfitter_cfg.c **** *******************************************************************************/
 488:.\Generated_Source\PSoC5/cyfitter_cfg.c **** 
 489:.\Generated_Source\PSoC5/cyfitter_cfg.c **** void cyfitter_cfg(void)
 490:.\Generated_Source\PSoC5/cyfitter_cfg.c **** {
 601              		.loc 1 490 0
 602              		.cfi_startproc
 603              		@ args = 0, pretend = 0, frame = 0
 604              		@ frame_needed = 0, uses_anonymous_args = 0
 605 0000 38B5     		push	{r3, r4, r5, lr}
 606              		.cfi_def_cfa_offset 16
 607              		.cfi_offset 3, -16
ARM GAS  C:\Users\lenovo\AppData\Local\Temp\cc9VWNw2.s 			page 21


 608              		.cfi_offset 4, -12
 609              		.cfi_offset 5, -8
 610              		.cfi_offset 14, -4
 491:.\Generated_Source\PSoC5/cyfitter_cfg.c **** #ifdef CYGlobalIntDisable
 492:.\Generated_Source\PSoC5/cyfitter_cfg.c **** 	/* Disable interrupts by default. Let user enable if/when they want. */
 493:.\Generated_Source\PSoC5/cyfitter_cfg.c **** 	CYGlobalIntDisable
 611              		.loc 1 493 0
 612              	@ 493 ".\Generated_Source\PSoC5\cyfitter_cfg.c" 1
 613 0002 72B6     		CPSID   i
 614              	@ 0 "" 2
 494:.\Generated_Source\PSoC5/cyfitter_cfg.c **** #endif
 495:.\Generated_Source\PSoC5/cyfitter_cfg.c **** 
 496:.\Generated_Source\PSoC5/cyfitter_cfg.c **** 
 497:.\Generated_Source\PSoC5/cyfitter_cfg.c **** 	/* Set Flash Cycles based on max possible frequency in case a glitch occurs during ClockSetup(). *
 498:.\Generated_Source\PSoC5/cyfitter_cfg.c **** 	CY_SET_XTND_REG8((void CYFAR *)(CYREG_CACHE_CC_CTL), (((CYDEV_INSTRUCT_CACHE_ENABLED) != 0) ? 0x01
 615              		.loc 1 498 0
 616              		.thumb
 617 0004 0122     		movs	r2, #1
 618 0006 3D4B     		ldr	r3, .L51
 619 0008 1A70     		strb	r2, [r3]
 499:.\Generated_Source\PSoC5/cyfitter_cfg.c **** 	/* Setup clocks based on selections from Clock DWR */
 500:.\Generated_Source\PSoC5/cyfitter_cfg.c **** 	ClockSetup();
 620              		.loc 1 500 0
 621 000a FFF7FEFF 		bl	ClockSetup
 622              	.LVL40:
 501:.\Generated_Source\PSoC5/cyfitter_cfg.c **** 	/* Enable/Disable Debug functionality based on settings from System DWR */
 502:.\Generated_Source\PSoC5/cyfitter_cfg.c **** 	CY_SET_XTND_REG8((void CYFAR *)CYREG_MLOGIC_DEBUG, (CY_GET_XTND_REG8((void CYFAR *)CYREG_MLOGIC_DE
 623              		.loc 1 502 0
 624 000e 3C4A     		ldr	r2, .L51+4
 625 0010 1378     		ldrb	r3, [r2]	@ zero_extendqisi2
 626 0012 43F00403 		orr	r3, r3, #4
 627 0016 1370     		strb	r3, [r2]
 628              	.LVL41:
 629              	.LBB3:
 503:.\Generated_Source\PSoC5/cyfitter_cfg.c **** 
 504:.\Generated_Source\PSoC5/cyfitter_cfg.c **** 	{
 505:.\Generated_Source\PSoC5/cyfitter_cfg.c **** 
 506:.\Generated_Source\PSoC5/cyfitter_cfg.c **** 		CYPACKED typedef struct {
 507:.\Generated_Source\PSoC5/cyfitter_cfg.c **** 			void CYFAR *address;
 508:.\Generated_Source\PSoC5/cyfitter_cfg.c **** 			uint16 size;
 509:.\Generated_Source\PSoC5/cyfitter_cfg.c **** 		} CYPACKED_ATTR cfg_memset_t;
 510:.\Generated_Source\PSoC5/cyfitter_cfg.c **** 
 511:.\Generated_Source\PSoC5/cyfitter_cfg.c **** 
 512:.\Generated_Source\PSoC5/cyfitter_cfg.c **** 		CYPACKED typedef struct {
 513:.\Generated_Source\PSoC5/cyfitter_cfg.c **** 			void CYFAR *dest;
 514:.\Generated_Source\PSoC5/cyfitter_cfg.c **** 			const void CYFAR *src;
 515:.\Generated_Source\PSoC5/cyfitter_cfg.c **** 			uint16 size;
 516:.\Generated_Source\PSoC5/cyfitter_cfg.c **** 		} CYPACKED_ATTR cfg_memcpy_t;
 517:.\Generated_Source\PSoC5/cyfitter_cfg.c **** 
 518:.\Generated_Source\PSoC5/cyfitter_cfg.c **** 		static const cfg_memset_t CYCODE cfg_memset_list [] = {
 519:.\Generated_Source\PSoC5/cyfitter_cfg.c **** 			/* address, size */
 520:.\Generated_Source\PSoC5/cyfitter_cfg.c **** 			{(void CYFAR *)(CYREG_PRT0_DR), 16u},
 521:.\Generated_Source\PSoC5/cyfitter_cfg.c **** 			{(void CYFAR *)(CYREG_PRT3_DR), 16u},
 522:.\Generated_Source\PSoC5/cyfitter_cfg.c **** 			{(void CYFAR *)(CYREG_PRT12_DR), 16u},
 523:.\Generated_Source\PSoC5/cyfitter_cfg.c **** 			{(void CYFAR *)(CYDEV_UCFG_B0_P0_U0_BASE), 1664u},
 524:.\Generated_Source\PSoC5/cyfitter_cfg.c **** 			{(void CYFAR *)(CYDEV_UCFG_B0_P3_ROUTE_BASE), 2304u},
 525:.\Generated_Source\PSoC5/cyfitter_cfg.c **** 			{(void CYFAR *)(CYDEV_UCFG_B1_P2_U0_BASE), 2048u},
ARM GAS  C:\Users\lenovo\AppData\Local\Temp\cc9VWNw2.s 			page 22


 526:.\Generated_Source\PSoC5/cyfitter_cfg.c **** 			{(void CYFAR *)(CYDEV_UCFG_DSI0_BASE), 2560u},
 527:.\Generated_Source\PSoC5/cyfitter_cfg.c **** 			{(void CYFAR *)(CYDEV_UCFG_DSI12_BASE), 512u},
 528:.\Generated_Source\PSoC5/cyfitter_cfg.c **** 			{(void CYFAR *)(CYREG_BCTL0_MDCLK_EN), 32u},
 529:.\Generated_Source\PSoC5/cyfitter_cfg.c **** 		};
 530:.\Generated_Source\PSoC5/cyfitter_cfg.c **** 
 531:.\Generated_Source\PSoC5/cyfitter_cfg.c **** 		static const cfg_memcpy_t CYCODE cfg_memcpy_list [] = {
 532:.\Generated_Source\PSoC5/cyfitter_cfg.c **** 			/* dest, src, size */
 533:.\Generated_Source\PSoC5/cyfitter_cfg.c **** 			{(void CYFAR *)(CYDEV_UCFG_B0_P3_U1_BASE), BS_UDB_1_2_0_CONFIG_VAL, 128u},
 534:.\Generated_Source\PSoC5/cyfitter_cfg.c **** 		};
 535:.\Generated_Source\PSoC5/cyfitter_cfg.c **** 
 536:.\Generated_Source\PSoC5/cyfitter_cfg.c **** 		uint8 CYDATA i;
 537:.\Generated_Source\PSoC5/cyfitter_cfg.c **** 
 538:.\Generated_Source\PSoC5/cyfitter_cfg.c **** 		/* Zero out critical memory blocks before beginning configuration */
 539:.\Generated_Source\PSoC5/cyfitter_cfg.c **** 		for (i = 0u; i < (sizeof(cfg_memset_list)/sizeof(cfg_memset_list[0])); i++)
 630              		.loc 1 539 0
 631 0018 0024     		movs	r4, #0
 632 001a 0BE0     		b	.L46
 633              	.LVL42:
 634              	.L47:
 635              	.LBB4:
 540:.\Generated_Source\PSoC5/cyfitter_cfg.c **** 		{
 541:.\Generated_Source\PSoC5/cyfitter_cfg.c **** 			const cfg_memset_t CYCODE * CYDATA ms = &cfg_memset_list[i];
 542:.\Generated_Source\PSoC5/cyfitter_cfg.c **** 			CYMEMZERO(ms->address, (size_t)(uint32)(ms->size));
 636              		.loc 1 542 0 discriminator 3
 637 001c 3949     		ldr	r1, .L51+8
 638 001e 6300     		lsls	r3, r4, #1
 639 0020 1A19     		adds	r2, r3, r4
 640 0022 5200     		lsls	r2, r2, #1
 641 0024 0A44     		add	r2, r2, r1
 642 0026 106C     		ldr	r0, [r2, #64]	@ unaligned
 643 0028 B2F84410 		ldrh	r1, [r2, #68]
 644 002c FFF7FEFF 		bl	CYMEMZERO
 645              	.LVL43:
 646              	.LBE4:
 539:.\Generated_Source\PSoC5/cyfitter_cfg.c **** 		{
 647              		.loc 1 539 0 discriminator 3
 648 0030 0134     		adds	r4, r4, #1
 649              	.LVL44:
 650 0032 E4B2     		uxtb	r4, r4
 651              	.LVL45:
 652              	.L46:
 539:.\Generated_Source\PSoC5/cyfitter_cfg.c **** 		{
 653              		.loc 1 539 0 is_stmt 0 discriminator 1
 654 0034 082C     		cmp	r4, #8
 655 0036 F1D9     		bls	.L47
 656 0038 0024     		movs	r4, #0
 657              	.LVL46:
 658 003a 0BE0     		b	.L48
 659              	.LVL47:
 660              	.L49:
 661              	.LBB5:
 543:.\Generated_Source\PSoC5/cyfitter_cfg.c **** 		}
 544:.\Generated_Source\PSoC5/cyfitter_cfg.c **** 
 545:.\Generated_Source\PSoC5/cyfitter_cfg.c **** 		/* Copy device configuration data into registers */
 546:.\Generated_Source\PSoC5/cyfitter_cfg.c **** 		for (i = 0u; i < (sizeof(cfg_memcpy_list)/sizeof(cfg_memcpy_list[0])); i++)
 547:.\Generated_Source\PSoC5/cyfitter_cfg.c **** 		{
 548:.\Generated_Source\PSoC5/cyfitter_cfg.c **** 			const cfg_memcpy_t CYCODE * CYDATA mc = &cfg_memcpy_list[i];
ARM GAS  C:\Users\lenovo\AppData\Local\Temp\cc9VWNw2.s 			page 23


 549:.\Generated_Source\PSoC5/cyfitter_cfg.c **** 			void * CYDATA destPtr = mc->dest;
 662              		.loc 1 549 0 is_stmt 1 discriminator 3
 663 003c 3149     		ldr	r1, .L51+8
 664 003e A300     		lsls	r3, r4, #2
 665 0040 1A19     		adds	r2, r3, r4
 666 0042 5200     		lsls	r2, r2, #1
 667 0044 0A44     		add	r2, r2, r1
 668              	.LVL48:
 550:.\Generated_Source\PSoC5/cyfitter_cfg.c **** 			const void * CYDATA srcPtr = mc->src;
 551:.\Generated_Source\PSoC5/cyfitter_cfg.c **** 			uint16 CYDATA numBytes = mc->size;
 552:.\Generated_Source\PSoC5/cyfitter_cfg.c **** 			CYCONFIGCPY(destPtr, srcPtr, numBytes);
 669              		.loc 1 552 0 discriminator 3
 670 0046 906F     		ldr	r0, [r2, #120]	@ unaligned
 671              	.LVL49:
 672 0048 D16F     		ldr	r1, [r2, #124]	@ unaligned
 673              	.LVL50:
 674 004a 8022     		movs	r2, #128
 675 004c FFF7FEFF 		bl	CYCONFIGCPY
 676              	.LVL51:
 677              	.LBE5:
 546:.\Generated_Source\PSoC5/cyfitter_cfg.c **** 		{
 678              		.loc 1 546 0 discriminator 3
 679 0050 0134     		adds	r4, r4, #1
 680              	.LVL52:
 681 0052 E4B2     		uxtb	r4, r4
 682              	.LVL53:
 683              	.L48:
 546:.\Generated_Source\PSoC5/cyfitter_cfg.c **** 		{
 684              		.loc 1 546 0 is_stmt 0 discriminator 1
 685 0054 002C     		cmp	r4, #0
 686 0056 F1D0     		beq	.L49
 553:.\Generated_Source\PSoC5/cyfitter_cfg.c **** 		}
 554:.\Generated_Source\PSoC5/cyfitter_cfg.c **** 
 555:.\Generated_Source\PSoC5/cyfitter_cfg.c **** 		cfg_write_bytes32(cy_cfg_addr_table, cy_cfg_data_table);
 687              		.loc 1 555 0 is_stmt 1
 688 0058 4FF09040 		mov	r0, #1207959552
 689 005c 2A49     		ldr	r1, .L51+12
 690 005e FFF7FEFF 		bl	cfg_write_bytes32
 691              	.LVL54:
 556:.\Generated_Source\PSoC5/cyfitter_cfg.c **** 
 557:.\Generated_Source\PSoC5/cyfitter_cfg.c **** 		/* Perform normal device configuration. Order is not critical for these items. */
 558:.\Generated_Source\PSoC5/cyfitter_cfg.c **** 		CY_SET_XTND_REG16((void CYFAR *)(CYREG_CAPSR_CFG0), 0x0300u);
 692              		.loc 1 558 0
 693 0062 4FF44072 		mov	r2, #768
 694 0066 294B     		ldr	r3, .L51+16
 695 0068 1A80     		strh	r2, [r3]	@ movhi
 559:.\Generated_Source\PSoC5/cyfitter_cfg.c **** 		CY_SET_XTND_REG8((void CYFAR *)(CYREG_DSM0_CR3), 0x0Au);
 696              		.loc 1 559 0
 697 006a 0A24     		movs	r4, #10
 698              	.LVL55:
 699 006c 1133     		adds	r3, r3, #17
 700 006e 1C70     		strb	r4, [r3]
 560:.\Generated_Source\PSoC5/cyfitter_cfg.c **** 		CY_SET_XTND_REG16((void CYFAR *)(CYREG_LUT3_CR), 0x0303u);
 701              		.loc 1 560 0
 702 0070 40F20332 		movw	r2, #771
 703 0074 353B     		subs	r3, r3, #53
 704 0076 1A80     		strh	r2, [r3]	@ movhi
ARM GAS  C:\Users\lenovo\AppData\Local\Temp\cc9VWNw2.s 			page 24


 561:.\Generated_Source\PSoC5/cyfitter_cfg.c **** 
 562:.\Generated_Source\PSoC5/cyfitter_cfg.c **** 		/* Enable digital routing */
 563:.\Generated_Source\PSoC5/cyfitter_cfg.c **** 		CY_SET_XTND_REG8((void CYFAR *)CYREG_BCTL0_BANK_CTL, CY_GET_XTND_REG8((void CYFAR *)CYREG_BCTL0_B
 705              		.loc 1 563 0
 706 0078 254A     		ldr	r2, .L51+20
 707 007a 1378     		ldrb	r3, [r2]	@ zero_extendqisi2
 708 007c 43F00203 		orr	r3, r3, #2
 709 0080 1370     		strb	r3, [r2]
 564:.\Generated_Source\PSoC5/cyfitter_cfg.c **** 		CY_SET_XTND_REG8((void CYFAR *)CYREG_BCTL1_BANK_CTL, CY_GET_XTND_REG8((void CYFAR *)CYREG_BCTL1_B
 710              		.loc 1 564 0
 711 0082 1032     		adds	r2, r2, #16
 712 0084 1378     		ldrb	r3, [r2]	@ zero_extendqisi2
 713 0086 43F00203 		orr	r3, r3, #2
 714 008a 1370     		strb	r3, [r2]
 565:.\Generated_Source\PSoC5/cyfitter_cfg.c **** 
 566:.\Generated_Source\PSoC5/cyfitter_cfg.c **** 		/* Enable UDB array */
 567:.\Generated_Source\PSoC5/cyfitter_cfg.c **** 		CY_SET_XTND_REG8((void CYFAR *)CYREG_PM_ACT_CFG0, CY_GET_XTND_REG8((void CYFAR *)CYREG_PM_ACT_CFG
 715              		.loc 1 567 0
 716 008c 214D     		ldr	r5, .L51+24
 717 008e 2B78     		ldrb	r3, [r5]	@ zero_extendqisi2
 718 0090 43F04003 		orr	r3, r3, #64
 719 0094 2B70     		strb	r3, [r5]
 568:.\Generated_Source\PSoC5/cyfitter_cfg.c **** 		CY_SET_XTND_REG8((void CYFAR *)CYREG_PM_AVAIL_CR2, CY_GET_XTND_REG8((void CYFAR *)CYREG_PM_AVAIL_
 720              		.loc 1 568 0
 721 0096 A2F58632 		sub	r2, r2, #68608
 722 009a 513A     		subs	r2, r2, #81
 723 009c 1378     		ldrb	r3, [r2]	@ zero_extendqisi2
 724 009e 43F01003 		orr	r3, r3, #16
 725 00a2 1370     		strb	r3, [r2]
 726              	.LBE3:
 569:.\Generated_Source\PSoC5/cyfitter_cfg.c **** 	}
 570:.\Generated_Source\PSoC5/cyfitter_cfg.c **** 
 571:.\Generated_Source\PSoC5/cyfitter_cfg.c **** 
 572:.\Generated_Source\PSoC5/cyfitter_cfg.c **** 	/* Perform second pass device configuration. These items must be configured in specific order afte
 573:.\Generated_Source\PSoC5/cyfitter_cfg.c **** 	CYCONFIGCPY((void CYFAR *)(CYREG_PRT15_DR), (const void CYFAR *)(BS_IOPINS0_8_VAL), 10u);
 727              		.loc 1 573 0
 728 00a4 1C48     		ldr	r0, .L51+28
 729 00a6 1D49     		ldr	r1, .L51+32
 730 00a8 2246     		mov	r2, r4
 731 00aa FFF7FEFF 		bl	CYCONFIGCPY
 732              	.LVL56:
 574:.\Generated_Source\PSoC5/cyfitter_cfg.c **** 	CYCONFIGCPY((void CYFAR *)(CYREG_PRT1_DR), (const void CYFAR *)(BS_IOPINS0_1_VAL), 10u);
 733              		.loc 1 574 0
 734 00ae 1C48     		ldr	r0, .L51+36
 735 00b0 1C49     		ldr	r1, .L51+40
 736 00b2 2246     		mov	r2, r4
 737 00b4 FFF7FEFF 		bl	CYCONFIGCPY
 738              	.LVL57:
 575:.\Generated_Source\PSoC5/cyfitter_cfg.c **** 	CYCONFIGCPY((void CYFAR *)(CYREG_PRT2_DM0), (const void CYFAR *)(BS_IOPINS0_2_VAL), 8u);
 739              		.loc 1 575 0
 740 00b8 1B48     		ldr	r0, .L51+44
 741 00ba 1C49     		ldr	r1, .L51+48
 742 00bc 0822     		movs	r2, #8
 743 00be FFF7FEFF 		bl	CYCONFIGCPY
 744              	.LVL58:
 576:.\Generated_Source\PSoC5/cyfitter_cfg.c **** 	CYCONFIGCPY((void CYFAR *)(CYREG_PRT4_DR), (const void CYFAR *)(BS_IOPINS0_4_VAL), 10u);
 745              		.loc 1 576 0
ARM GAS  C:\Users\lenovo\AppData\Local\Temp\cc9VWNw2.s 			page 25


 746 00c2 1B48     		ldr	r0, .L51+52
 747 00c4 1B49     		ldr	r1, .L51+56
 748 00c6 2246     		mov	r2, r4
 749 00c8 FFF7FEFF 		bl	CYCONFIGCPY
 750              	.LVL59:
 577:.\Generated_Source\PSoC5/cyfitter_cfg.c **** 	CYCONFIGCPY((void CYFAR *)(CYREG_PRT5_DM0), (const void CYFAR *)(BS_IOPINS0_5_VAL), 8u);
 751              		.loc 1 577 0
 752 00cc 1A48     		ldr	r0, .L51+60
 753 00ce 1B49     		ldr	r1, .L51+64
 754 00d0 0822     		movs	r2, #8
 755 00d2 FFF7FEFF 		bl	CYCONFIGCPY
 756              	.LVL60:
 578:.\Generated_Source\PSoC5/cyfitter_cfg.c **** 	CYCONFIGCPY((void CYFAR *)(CYREG_PRT6_DM0), (const void CYFAR *)(BS_IOPINS0_6_VAL), 8u);
 757              		.loc 1 578 0
 758 00d6 1A48     		ldr	r0, .L51+68
 759 00d8 1A49     		ldr	r1, .L51+72
 760 00da 0822     		movs	r2, #8
 761 00dc FFF7FEFF 		bl	CYCONFIGCPY
 762              	.LVL61:
 579:.\Generated_Source\PSoC5/cyfitter_cfg.c **** 	/* Switch Boost to the precision bandgap reference from its internal reference */
 580:.\Generated_Source\PSoC5/cyfitter_cfg.c **** 	CY_SET_REG8((void CYXDATA *)CYREG_BOOST_CR2, (CY_GET_REG8((void CYXDATA *)CYREG_BOOST_CR2) | 0x08u
 763              		.loc 1 580 0
 764 00e0 194A     		ldr	r2, .L51+76
 765 00e2 1378     		ldrb	r3, [r2]	@ zero_extendqisi2
 766 00e4 43F00803 		orr	r3, r3, #8
 767 00e8 1370     		strb	r3, [r2]
 581:.\Generated_Source\PSoC5/cyfitter_cfg.c **** 
 582:.\Generated_Source\PSoC5/cyfitter_cfg.c **** 	/* Perform basic analog initialization to defaults */
 583:.\Generated_Source\PSoC5/cyfitter_cfg.c **** 	AnalogSetDefault();
 768              		.loc 1 583 0
 769 00ea FFF7FEFF 		bl	AnalogSetDefault
 770              	.LVL62:
 584:.\Generated_Source\PSoC5/cyfitter_cfg.c **** 
 585:.\Generated_Source\PSoC5/cyfitter_cfg.c **** 	/* Configure alternate active mode */
 586:.\Generated_Source\PSoC5/cyfitter_cfg.c **** 	CYCONFIGCPY((void CYFAR *)CYDEV_PM_STBY_BASE, (const void CYFAR *)CYDEV_PM_ACT_BASE, 14u);
 771              		.loc 1 586 0
 772 00ee 1748     		ldr	r0, .L51+80
 773 00f0 2946     		mov	r1, r5
 774 00f2 0E22     		movs	r2, #14
 775 00f4 FFF7FEFF 		bl	CYCONFIGCPY
 776              	.LVL63:
 777 00f8 38BD     		pop	{r3, r4, r5, pc}
 778              	.L52:
 779 00fa 00BF     		.align	2
 780              	.L51:
 781 00fc 00480040 		.word	1073760256
 782 0100 E8460040 		.word	1073759976
 783 0104 00000000 		.word	.LANCHOR0
 784 0108 90000048 		.word	1207959696
 785 010c 72580040 		.word	1073764466
 786 0110 03500140 		.word	1073827843
 787 0114 A0430040 		.word	1073759136
 788 0118 F0510040 		.word	1073762800
 789 011c 340B0048 		.word	1207962420
 790 0120 10510040 		.word	1073762576
 791 0124 400B0048 		.word	1207962432
 792 0128 22510040 		.word	1073762594
ARM GAS  C:\Users\lenovo\AppData\Local\Temp\cc9VWNw2.s 			page 26


 793 012c 4C0B0048 		.word	1207962444
 794 0130 40510040 		.word	1073762624
 795 0134 540B0048 		.word	1207962452
 796 0138 52510040 		.word	1073762642
 797 013c 600B0048 		.word	1207962464
 798 0140 62510040 		.word	1073762658
 799 0144 680B0048 		.word	1207962472
 800 0148 22430040 		.word	1073759010
 801 014c B0430040 		.word	1073759152
 802              		.cfi_endproc
 803              	.LFE12:
 804              		.size	cyfitter_cfg, .-cyfitter_cfg
 805              		.global	CapSense_AMuxCH0__maskTable
 806              		.global	CapSense_AMuxCH0__addrTable
 807              		.global	ADC_AMux__maskTable
 808              		.global	ADC_AMux__addrTable
 809              		.section	.rodata
 810              		.align	2
 811              		.set	.LANCHOR0,. + 0
 812              		.type	ADC_AMux__addrTable, %object
 813              		.size	ADC_AMux__addrTable, 8
 814              	ADC_AMux__addrTable:
 815 0000 035B0040 		.word	1073765123
 816 0004 24430040 		.word	1073759012
 817              		.type	ADC_AMux__maskTable, %object
 818              		.size	ADC_AMux__maskTable, 2
 819              	ADC_AMux__maskTable:
 820 0008 40       		.byte	64
 821 0009 00       		.byte	0
 822 000a 0000     		.space	2
 823              		.type	CapSense_AMuxCH0__addrTable, %object
 824              		.size	CapSense_AMuxCH0__addrTable, 40
 825              	CapSense_AMuxCH0__addrTable:
 826 000c 5C510040 		.word	1073762652
 827 0010 5C510040 		.word	1073762652
 828 0014 5C510040 		.word	1073762652
 829 0018 5C510040 		.word	1073762652
 830 001c 5C510040 		.word	1073762652
 831 0020 5C510040 		.word	1073762652
 832 0024 5C510040 		.word	1073762652
 833 0028 6C510040 		.word	1073762668
 834 002c DB5A0040 		.word	1073765083
 835 0030 8B5A0040 		.word	1073765003
 836              		.type	CapSense_AMuxCH0__maskTable, %object
 837              		.size	CapSense_AMuxCH0__maskTable, 10
 838              	CapSense_AMuxCH0__maskTable:
 839 0034 40       		.byte	64
 840 0035 20       		.byte	32
 841 0036 01       		.byte	1
 842 0037 02       		.byte	2
 843 0038 04       		.byte	4
 844 0039 08       		.byte	8
 845 003a 10       		.byte	16
 846 003b 10       		.byte	16
 847 003c 01       		.byte	1
 848 003d 10       		.byte	16
 849 003e 0000     		.space	2
ARM GAS  C:\Users\lenovo\AppData\Local\Temp\cc9VWNw2.s 			page 27


 850              		.type	cfg_memset_list.4913, %object
 851              		.size	cfg_memset_list.4913, 54
 852              	cfg_memset_list.4913:
 853 0040 00510040 		.word	1073762560
 854 0044 1000     		.short	16
 855 0046 30510040 		.4byte	1073762608
 856 004a 1000     		.short	16
 857 004c C0510040 		.word	1073762752
 858 0050 1000     		.short	16
 859 0052 00000140 		.4byte	1073807360
 860 0056 8006     		.short	1664
 861 0058 00070140 		.word	1073809152
 862 005c 0009     		.short	2304
 863 005e 00140140 		.4byte	1073812480
 864 0062 0008     		.short	2048
 865 0064 00400140 		.word	1073823744
 866 0068 000A     		.short	2560
 867 006a 004C0140 		.4byte	1073826816
 868 006e 0002     		.short	512
 869 0070 00500140 		.word	1073827840
 870 0074 2000     		.short	32
 871 0076 0000     		.space	2
 872              		.type	cfg_memcpy_list.4914, %object
 873              		.size	cfg_memcpy_list.4914, 10
 874              	cfg_memcpy_list.4914:
 875 0078 80060140 		.word	1073809024
 876 007c B40A0048 		.word	1207962292
 877 0080 8000     		.short	128
 878 0082 0000     		.text
 879              	.Letext0:
 880              		.file 2 "c:\\program files (x86)\\cypress\\psoc creator\\3.3\\psoc creator\\import\\gnu\\arm\\4.9.
 881              		.file 3 ".\\Generated_Source\\PSoC5\\cytypes.h"
 882              		.file 4 ".\\Generated_Source\\PSoC5\\CyLib.h"